
PNG_MCU_v2.elf:     file format elf32-littlearm

Sections:
Idx Name          Size      VMA       LMA       File off  Algn
  0 .isr_vector   000000c0  08000000  08000000  00010000  2**0
                  CONTENTS, ALLOC, LOAD, READONLY, DATA
  1 .text         00006548  080000c0  080000c0  000100c0  2**2
                  CONTENTS, ALLOC, LOAD, READONLY, CODE
  2 .rodata       00000778  08006608  08006608  00016608  2**2
                  CONTENTS, ALLOC, LOAD, READONLY, DATA
  3 .init_array   00000004  08006d80  08006d80  00016d80  2**2
                  CONTENTS, ALLOC, LOAD, DATA
  4 .fini_array   00000004  08006d84  08006d84  00016d84  2**2
                  CONTENTS, ALLOC, LOAD, DATA
  5 .data         00000088  20000000  08006d88  00020000  2**2
                  CONTENTS, ALLOC, LOAD, DATA
  6 .bss          00001928  20000088  08006e10  00020088  2**2
                  ALLOC
  7 ._user_heap_stack 00000600  200019b0  08006e10  000219b0  2**0
                  ALLOC
  8 .ARM.attributes 00000028  00000000  00000000  00020088  2**0
                  CONTENTS, READONLY
  9 .debug_info   00014141  00000000  00000000  000200b0  2**0
                  CONTENTS, READONLY, DEBUGGING
 10 .debug_abbrev 0000326e  00000000  00000000  000341f1  2**0
                  CONTENTS, READONLY, DEBUGGING
 11 .debug_loc    0000ba07  00000000  00000000  0003745f  2**0
                  CONTENTS, READONLY, DEBUGGING
 12 .debug_aranges 00000c50  00000000  00000000  00042e68  2**3
                  CONTENTS, READONLY, DEBUGGING
 13 .debug_ranges 00001118  00000000  00000000  00043ab8  2**3
                  CONTENTS, READONLY, DEBUGGING
 14 .debug_line   00007532  00000000  00000000  00044bd0  2**0
                  CONTENTS, READONLY, DEBUGGING
 15 .debug_str    0000398c  00000000  00000000  0004c102  2**0
                  CONTENTS, READONLY, DEBUGGING
 16 .comment      0000007c  00000000  00000000  0004fa8e  2**0
                  CONTENTS, READONLY
 17 .debug_frame  000027e8  00000000  00000000  0004fb0c  2**2
                  CONTENTS, READONLY, DEBUGGING

Disassembly of section .text:

080000c0 <__do_global_dtors_aux>:
 80000c0:	b510      	push	{r4, lr}
 80000c2:	4c06      	ldr	r4, [pc, #24]	; (80000dc <__do_global_dtors_aux+0x1c>)
 80000c4:	7823      	ldrb	r3, [r4, #0]
 80000c6:	2b00      	cmp	r3, #0
 80000c8:	d107      	bne.n	80000da <__do_global_dtors_aux+0x1a>
 80000ca:	4b05      	ldr	r3, [pc, #20]	; (80000e0 <__do_global_dtors_aux+0x20>)
 80000cc:	2b00      	cmp	r3, #0
 80000ce:	d002      	beq.n	80000d6 <__do_global_dtors_aux+0x16>
 80000d0:	4804      	ldr	r0, [pc, #16]	; (80000e4 <__do_global_dtors_aux+0x24>)
 80000d2:	e000      	b.n	80000d6 <__do_global_dtors_aux+0x16>
 80000d4:	bf00      	nop
 80000d6:	2301      	movs	r3, #1
 80000d8:	7023      	strb	r3, [r4, #0]
 80000da:	bd10      	pop	{r4, pc}
 80000dc:	20000088 	.word	0x20000088
 80000e0:	00000000 	.word	0x00000000
 80000e4:	080065f0 	.word	0x080065f0

080000e8 <frame_dummy>:
 80000e8:	4b04      	ldr	r3, [pc, #16]	; (80000fc <frame_dummy+0x14>)
 80000ea:	b510      	push	{r4, lr}
 80000ec:	2b00      	cmp	r3, #0
 80000ee:	d003      	beq.n	80000f8 <frame_dummy+0x10>
 80000f0:	4903      	ldr	r1, [pc, #12]	; (8000100 <frame_dummy+0x18>)
 80000f2:	4804      	ldr	r0, [pc, #16]	; (8000104 <frame_dummy+0x1c>)
 80000f4:	e000      	b.n	80000f8 <frame_dummy+0x10>
 80000f6:	bf00      	nop
 80000f8:	bd10      	pop	{r4, pc}
 80000fa:	46c0      	nop			; (mov r8, r8)
 80000fc:	00000000 	.word	0x00000000
 8000100:	2000008c 	.word	0x2000008c
 8000104:	080065f0 	.word	0x080065f0

08000108 <strlen>:
 8000108:	2300      	movs	r3, #0
 800010a:	5cc2      	ldrb	r2, [r0, r3]
 800010c:	3301      	adds	r3, #1
 800010e:	2a00      	cmp	r2, #0
 8000110:	d1fb      	bne.n	800010a <strlen+0x2>
 8000112:	1e58      	subs	r0, r3, #1
 8000114:	4770      	bx	lr
	...

08000118 <__gnu_thumb1_case_sqi>:
 8000118:	b402      	push	{r1}
 800011a:	4671      	mov	r1, lr
 800011c:	0849      	lsrs	r1, r1, #1
 800011e:	0049      	lsls	r1, r1, #1
 8000120:	5609      	ldrsb	r1, [r1, r0]
 8000122:	0049      	lsls	r1, r1, #1
 8000124:	448e      	add	lr, r1
 8000126:	bc02      	pop	{r1}
 8000128:	4770      	bx	lr
 800012a:	46c0      	nop			; (mov r8, r8)

0800012c <__gnu_thumb1_case_uqi>:
 800012c:	b402      	push	{r1}
 800012e:	4671      	mov	r1, lr
 8000130:	0849      	lsrs	r1, r1, #1
 8000132:	0049      	lsls	r1, r1, #1
 8000134:	5c09      	ldrb	r1, [r1, r0]
 8000136:	0049      	lsls	r1, r1, #1
 8000138:	448e      	add	lr, r1
 800013a:	bc02      	pop	{r1}
 800013c:	4770      	bx	lr
 800013e:	46c0      	nop			; (mov r8, r8)

08000140 <__udivsi3>:
 8000140:	2200      	movs	r2, #0
 8000142:	0843      	lsrs	r3, r0, #1
 8000144:	428b      	cmp	r3, r1
 8000146:	d374      	bcc.n	8000232 <__udivsi3+0xf2>
 8000148:	0903      	lsrs	r3, r0, #4
 800014a:	428b      	cmp	r3, r1
 800014c:	d35f      	bcc.n	800020e <__udivsi3+0xce>
 800014e:	0a03      	lsrs	r3, r0, #8
 8000150:	428b      	cmp	r3, r1
 8000152:	d344      	bcc.n	80001de <__udivsi3+0x9e>
 8000154:	0b03      	lsrs	r3, r0, #12
 8000156:	428b      	cmp	r3, r1
 8000158:	d328      	bcc.n	80001ac <__udivsi3+0x6c>
 800015a:	0c03      	lsrs	r3, r0, #16
 800015c:	428b      	cmp	r3, r1
 800015e:	d30d      	bcc.n	800017c <__udivsi3+0x3c>
 8000160:	22ff      	movs	r2, #255	; 0xff
 8000162:	0209      	lsls	r1, r1, #8
 8000164:	ba12      	rev	r2, r2
 8000166:	0c03      	lsrs	r3, r0, #16
 8000168:	428b      	cmp	r3, r1
 800016a:	d302      	bcc.n	8000172 <__udivsi3+0x32>
 800016c:	1212      	asrs	r2, r2, #8
 800016e:	0209      	lsls	r1, r1, #8
 8000170:	d065      	beq.n	800023e <__udivsi3+0xfe>
 8000172:	0b03      	lsrs	r3, r0, #12
 8000174:	428b      	cmp	r3, r1
 8000176:	d319      	bcc.n	80001ac <__udivsi3+0x6c>
 8000178:	e000      	b.n	800017c <__udivsi3+0x3c>
 800017a:	0a09      	lsrs	r1, r1, #8
 800017c:	0bc3      	lsrs	r3, r0, #15
 800017e:	428b      	cmp	r3, r1
 8000180:	d301      	bcc.n	8000186 <__udivsi3+0x46>
 8000182:	03cb      	lsls	r3, r1, #15
 8000184:	1ac0      	subs	r0, r0, r3
 8000186:	4152      	adcs	r2, r2
 8000188:	0b83      	lsrs	r3, r0, #14
 800018a:	428b      	cmp	r3, r1
 800018c:	d301      	bcc.n	8000192 <__udivsi3+0x52>
 800018e:	038b      	lsls	r3, r1, #14
 8000190:	1ac0      	subs	r0, r0, r3
 8000192:	4152      	adcs	r2, r2
 8000194:	0b43      	lsrs	r3, r0, #13
 8000196:	428b      	cmp	r3, r1
 8000198:	d301      	bcc.n	800019e <__udivsi3+0x5e>
 800019a:	034b      	lsls	r3, r1, #13
 800019c:	1ac0      	subs	r0, r0, r3
 800019e:	4152      	adcs	r2, r2
 80001a0:	0b03      	lsrs	r3, r0, #12
 80001a2:	428b      	cmp	r3, r1
 80001a4:	d301      	bcc.n	80001aa <__udivsi3+0x6a>
 80001a6:	030b      	lsls	r3, r1, #12
 80001a8:	1ac0      	subs	r0, r0, r3
 80001aa:	4152      	adcs	r2, r2
 80001ac:	0ac3      	lsrs	r3, r0, #11
 80001ae:	428b      	cmp	r3, r1
 80001b0:	d301      	bcc.n	80001b6 <__udivsi3+0x76>
 80001b2:	02cb      	lsls	r3, r1, #11
 80001b4:	1ac0      	subs	r0, r0, r3
 80001b6:	4152      	adcs	r2, r2
 80001b8:	0a83      	lsrs	r3, r0, #10
 80001ba:	428b      	cmp	r3, r1
 80001bc:	d301      	bcc.n	80001c2 <__udivsi3+0x82>
 80001be:	028b      	lsls	r3, r1, #10
 80001c0:	1ac0      	subs	r0, r0, r3
 80001c2:	4152      	adcs	r2, r2
 80001c4:	0a43      	lsrs	r3, r0, #9
 80001c6:	428b      	cmp	r3, r1
 80001c8:	d301      	bcc.n	80001ce <__udivsi3+0x8e>
 80001ca:	024b      	lsls	r3, r1, #9
 80001cc:	1ac0      	subs	r0, r0, r3
 80001ce:	4152      	adcs	r2, r2
 80001d0:	0a03      	lsrs	r3, r0, #8
 80001d2:	428b      	cmp	r3, r1
 80001d4:	d301      	bcc.n	80001da <__udivsi3+0x9a>
 80001d6:	020b      	lsls	r3, r1, #8
 80001d8:	1ac0      	subs	r0, r0, r3
 80001da:	4152      	adcs	r2, r2
 80001dc:	d2cd      	bcs.n	800017a <__udivsi3+0x3a>
 80001de:	09c3      	lsrs	r3, r0, #7
 80001e0:	428b      	cmp	r3, r1
 80001e2:	d301      	bcc.n	80001e8 <__udivsi3+0xa8>
 80001e4:	01cb      	lsls	r3, r1, #7
 80001e6:	1ac0      	subs	r0, r0, r3
 80001e8:	4152      	adcs	r2, r2
 80001ea:	0983      	lsrs	r3, r0, #6
 80001ec:	428b      	cmp	r3, r1
 80001ee:	d301      	bcc.n	80001f4 <__udivsi3+0xb4>
 80001f0:	018b      	lsls	r3, r1, #6
 80001f2:	1ac0      	subs	r0, r0, r3
 80001f4:	4152      	adcs	r2, r2
 80001f6:	0943      	lsrs	r3, r0, #5
 80001f8:	428b      	cmp	r3, r1
 80001fa:	d301      	bcc.n	8000200 <__udivsi3+0xc0>
 80001fc:	014b      	lsls	r3, r1, #5
 80001fe:	1ac0      	subs	r0, r0, r3
 8000200:	4152      	adcs	r2, r2
 8000202:	0903      	lsrs	r3, r0, #4
 8000204:	428b      	cmp	r3, r1
 8000206:	d301      	bcc.n	800020c <__udivsi3+0xcc>
 8000208:	010b      	lsls	r3, r1, #4
 800020a:	1ac0      	subs	r0, r0, r3
 800020c:	4152      	adcs	r2, r2
 800020e:	08c3      	lsrs	r3, r0, #3
 8000210:	428b      	cmp	r3, r1
 8000212:	d301      	bcc.n	8000218 <__udivsi3+0xd8>
 8000214:	00cb      	lsls	r3, r1, #3
 8000216:	1ac0      	subs	r0, r0, r3
 8000218:	4152      	adcs	r2, r2
 800021a:	0883      	lsrs	r3, r0, #2
 800021c:	428b      	cmp	r3, r1
 800021e:	d301      	bcc.n	8000224 <__udivsi3+0xe4>
 8000220:	008b      	lsls	r3, r1, #2
 8000222:	1ac0      	subs	r0, r0, r3
 8000224:	4152      	adcs	r2, r2
 8000226:	0843      	lsrs	r3, r0, #1
 8000228:	428b      	cmp	r3, r1
 800022a:	d301      	bcc.n	8000230 <__udivsi3+0xf0>
 800022c:	004b      	lsls	r3, r1, #1
 800022e:	1ac0      	subs	r0, r0, r3
 8000230:	4152      	adcs	r2, r2
 8000232:	1a41      	subs	r1, r0, r1
 8000234:	d200      	bcs.n	8000238 <__udivsi3+0xf8>
 8000236:	4601      	mov	r1, r0
 8000238:	4152      	adcs	r2, r2
 800023a:	4610      	mov	r0, r2
 800023c:	4770      	bx	lr
 800023e:	e7ff      	b.n	8000240 <__udivsi3+0x100>
 8000240:	b501      	push	{r0, lr}
 8000242:	2000      	movs	r0, #0
 8000244:	f000 f806 	bl	8000254 <__aeabi_idiv0>
 8000248:	bd02      	pop	{r1, pc}
 800024a:	46c0      	nop			; (mov r8, r8)

0800024c <__aeabi_uidivmod>:
 800024c:	2900      	cmp	r1, #0
 800024e:	d0f7      	beq.n	8000240 <__udivsi3+0x100>
 8000250:	e776      	b.n	8000140 <__udivsi3>
 8000252:	4770      	bx	lr

08000254 <__aeabi_idiv0>:
 8000254:	4770      	bx	lr
 8000256:	46c0      	nop			; (mov r8, r8)

08000258 <__aeabi_d2uiz>:
 8000258:	b570      	push	{r4, r5, r6, lr}
 800025a:	2200      	movs	r2, #0
 800025c:	4b0c      	ldr	r3, [pc, #48]	; (8000290 <__aeabi_d2uiz+0x38>)
 800025e:	0004      	movs	r4, r0
 8000260:	000d      	movs	r5, r1
 8000262:	f000 fe4d 	bl	8000f00 <__aeabi_dcmpge>
 8000266:	2800      	cmp	r0, #0
 8000268:	d104      	bne.n	8000274 <__aeabi_d2uiz+0x1c>
 800026a:	0020      	movs	r0, r4
 800026c:	0029      	movs	r1, r5
 800026e:	f000 fda7 	bl	8000dc0 <__aeabi_d2iz>
 8000272:	bd70      	pop	{r4, r5, r6, pc}
 8000274:	4b06      	ldr	r3, [pc, #24]	; (8000290 <__aeabi_d2uiz+0x38>)
 8000276:	2200      	movs	r2, #0
 8000278:	0020      	movs	r0, r4
 800027a:	0029      	movs	r1, r5
 800027c:	f000 fa8a 	bl	8000794 <__aeabi_dsub>
 8000280:	f000 fd9e 	bl	8000dc0 <__aeabi_d2iz>
 8000284:	2380      	movs	r3, #128	; 0x80
 8000286:	061b      	lsls	r3, r3, #24
 8000288:	469c      	mov	ip, r3
 800028a:	4460      	add	r0, ip
 800028c:	e7f1      	b.n	8000272 <__aeabi_d2uiz+0x1a>
 800028e:	46c0      	nop			; (mov r8, r8)
 8000290:	41e00000 	.word	0x41e00000

08000294 <__aeabi_dmul>:
 8000294:	b5f0      	push	{r4, r5, r6, r7, lr}
 8000296:	4657      	mov	r7, sl
 8000298:	4645      	mov	r5, r8
 800029a:	46de      	mov	lr, fp
 800029c:	464e      	mov	r6, r9
 800029e:	b5e0      	push	{r5, r6, r7, lr}
 80002a0:	030c      	lsls	r4, r1, #12
 80002a2:	4698      	mov	r8, r3
 80002a4:	004e      	lsls	r6, r1, #1
 80002a6:	0b23      	lsrs	r3, r4, #12
 80002a8:	b087      	sub	sp, #28
 80002aa:	0007      	movs	r7, r0
 80002ac:	4692      	mov	sl, r2
 80002ae:	469b      	mov	fp, r3
 80002b0:	0d76      	lsrs	r6, r6, #21
 80002b2:	0fcd      	lsrs	r5, r1, #31
 80002b4:	2e00      	cmp	r6, #0
 80002b6:	d06b      	beq.n	8000390 <__aeabi_dmul+0xfc>
 80002b8:	4b6d      	ldr	r3, [pc, #436]	; (8000470 <__aeabi_dmul+0x1dc>)
 80002ba:	429e      	cmp	r6, r3
 80002bc:	d035      	beq.n	800032a <__aeabi_dmul+0x96>
 80002be:	2480      	movs	r4, #128	; 0x80
 80002c0:	465b      	mov	r3, fp
 80002c2:	0f42      	lsrs	r2, r0, #29
 80002c4:	0424      	lsls	r4, r4, #16
 80002c6:	00db      	lsls	r3, r3, #3
 80002c8:	4314      	orrs	r4, r2
 80002ca:	431c      	orrs	r4, r3
 80002cc:	00c3      	lsls	r3, r0, #3
 80002ce:	4699      	mov	r9, r3
 80002d0:	4b68      	ldr	r3, [pc, #416]	; (8000474 <__aeabi_dmul+0x1e0>)
 80002d2:	46a3      	mov	fp, r4
 80002d4:	469c      	mov	ip, r3
 80002d6:	2300      	movs	r3, #0
 80002d8:	2700      	movs	r7, #0
 80002da:	4466      	add	r6, ip
 80002dc:	9302      	str	r3, [sp, #8]
 80002de:	4643      	mov	r3, r8
 80002e0:	031c      	lsls	r4, r3, #12
 80002e2:	005a      	lsls	r2, r3, #1
 80002e4:	0fdb      	lsrs	r3, r3, #31
 80002e6:	4650      	mov	r0, sl
 80002e8:	0b24      	lsrs	r4, r4, #12
 80002ea:	0d52      	lsrs	r2, r2, #21
 80002ec:	4698      	mov	r8, r3
 80002ee:	d100      	bne.n	80002f2 <__aeabi_dmul+0x5e>
 80002f0:	e076      	b.n	80003e0 <__aeabi_dmul+0x14c>
 80002f2:	4b5f      	ldr	r3, [pc, #380]	; (8000470 <__aeabi_dmul+0x1dc>)
 80002f4:	429a      	cmp	r2, r3
 80002f6:	d06d      	beq.n	80003d4 <__aeabi_dmul+0x140>
 80002f8:	2380      	movs	r3, #128	; 0x80
 80002fa:	0f41      	lsrs	r1, r0, #29
 80002fc:	041b      	lsls	r3, r3, #16
 80002fe:	430b      	orrs	r3, r1
 8000300:	495c      	ldr	r1, [pc, #368]	; (8000474 <__aeabi_dmul+0x1e0>)
 8000302:	00e4      	lsls	r4, r4, #3
 8000304:	468c      	mov	ip, r1
 8000306:	431c      	orrs	r4, r3
 8000308:	00c3      	lsls	r3, r0, #3
 800030a:	2000      	movs	r0, #0
 800030c:	4462      	add	r2, ip
 800030e:	4641      	mov	r1, r8
 8000310:	18b6      	adds	r6, r6, r2
 8000312:	4069      	eors	r1, r5
 8000314:	1c72      	adds	r2, r6, #1
 8000316:	9101      	str	r1, [sp, #4]
 8000318:	4694      	mov	ip, r2
 800031a:	4307      	orrs	r7, r0
 800031c:	2f0f      	cmp	r7, #15
 800031e:	d900      	bls.n	8000322 <__aeabi_dmul+0x8e>
 8000320:	e0b0      	b.n	8000484 <__aeabi_dmul+0x1f0>
 8000322:	4a55      	ldr	r2, [pc, #340]	; (8000478 <__aeabi_dmul+0x1e4>)
 8000324:	00bf      	lsls	r7, r7, #2
 8000326:	59d2      	ldr	r2, [r2, r7]
 8000328:	4697      	mov	pc, r2
 800032a:	465b      	mov	r3, fp
 800032c:	4303      	orrs	r3, r0
 800032e:	4699      	mov	r9, r3
 8000330:	d000      	beq.n	8000334 <__aeabi_dmul+0xa0>
 8000332:	e087      	b.n	8000444 <__aeabi_dmul+0x1b0>
 8000334:	2300      	movs	r3, #0
 8000336:	469b      	mov	fp, r3
 8000338:	3302      	adds	r3, #2
 800033a:	2708      	movs	r7, #8
 800033c:	9302      	str	r3, [sp, #8]
 800033e:	e7ce      	b.n	80002de <__aeabi_dmul+0x4a>
 8000340:	4642      	mov	r2, r8
 8000342:	9201      	str	r2, [sp, #4]
 8000344:	2802      	cmp	r0, #2
 8000346:	d067      	beq.n	8000418 <__aeabi_dmul+0x184>
 8000348:	2803      	cmp	r0, #3
 800034a:	d100      	bne.n	800034e <__aeabi_dmul+0xba>
 800034c:	e20e      	b.n	800076c <__aeabi_dmul+0x4d8>
 800034e:	2801      	cmp	r0, #1
 8000350:	d000      	beq.n	8000354 <__aeabi_dmul+0xc0>
 8000352:	e162      	b.n	800061a <__aeabi_dmul+0x386>
 8000354:	2300      	movs	r3, #0
 8000356:	2400      	movs	r4, #0
 8000358:	2200      	movs	r2, #0
 800035a:	4699      	mov	r9, r3
 800035c:	9901      	ldr	r1, [sp, #4]
 800035e:	4001      	ands	r1, r0
 8000360:	b2cd      	uxtb	r5, r1
 8000362:	2100      	movs	r1, #0
 8000364:	0312      	lsls	r2, r2, #12
 8000366:	0d0b      	lsrs	r3, r1, #20
 8000368:	0b12      	lsrs	r2, r2, #12
 800036a:	051b      	lsls	r3, r3, #20
 800036c:	4313      	orrs	r3, r2
 800036e:	4a43      	ldr	r2, [pc, #268]	; (800047c <__aeabi_dmul+0x1e8>)
 8000370:	0524      	lsls	r4, r4, #20
 8000372:	4013      	ands	r3, r2
 8000374:	431c      	orrs	r4, r3
 8000376:	0064      	lsls	r4, r4, #1
 8000378:	07ed      	lsls	r5, r5, #31
 800037a:	0864      	lsrs	r4, r4, #1
 800037c:	432c      	orrs	r4, r5
 800037e:	4648      	mov	r0, r9
 8000380:	0021      	movs	r1, r4
 8000382:	b007      	add	sp, #28
 8000384:	bc3c      	pop	{r2, r3, r4, r5}
 8000386:	4690      	mov	r8, r2
 8000388:	4699      	mov	r9, r3
 800038a:	46a2      	mov	sl, r4
 800038c:	46ab      	mov	fp, r5
 800038e:	bdf0      	pop	{r4, r5, r6, r7, pc}
 8000390:	4303      	orrs	r3, r0
 8000392:	4699      	mov	r9, r3
 8000394:	d04f      	beq.n	8000436 <__aeabi_dmul+0x1a2>
 8000396:	465b      	mov	r3, fp
 8000398:	2b00      	cmp	r3, #0
 800039a:	d100      	bne.n	800039e <__aeabi_dmul+0x10a>
 800039c:	e189      	b.n	80006b2 <__aeabi_dmul+0x41e>
 800039e:	4658      	mov	r0, fp
 80003a0:	f000 fdb8 	bl	8000f14 <__clzsi2>
 80003a4:	0003      	movs	r3, r0
 80003a6:	3b0b      	subs	r3, #11
 80003a8:	2b1c      	cmp	r3, #28
 80003aa:	dd00      	ble.n	80003ae <__aeabi_dmul+0x11a>
 80003ac:	e17a      	b.n	80006a4 <__aeabi_dmul+0x410>
 80003ae:	221d      	movs	r2, #29
 80003b0:	1ad3      	subs	r3, r2, r3
 80003b2:	003a      	movs	r2, r7
 80003b4:	0001      	movs	r1, r0
 80003b6:	465c      	mov	r4, fp
 80003b8:	40da      	lsrs	r2, r3
 80003ba:	3908      	subs	r1, #8
 80003bc:	408c      	lsls	r4, r1
 80003be:	0013      	movs	r3, r2
 80003c0:	408f      	lsls	r7, r1
 80003c2:	4323      	orrs	r3, r4
 80003c4:	469b      	mov	fp, r3
 80003c6:	46b9      	mov	r9, r7
 80003c8:	2300      	movs	r3, #0
 80003ca:	4e2d      	ldr	r6, [pc, #180]	; (8000480 <__aeabi_dmul+0x1ec>)
 80003cc:	2700      	movs	r7, #0
 80003ce:	1a36      	subs	r6, r6, r0
 80003d0:	9302      	str	r3, [sp, #8]
 80003d2:	e784      	b.n	80002de <__aeabi_dmul+0x4a>
 80003d4:	4653      	mov	r3, sl
 80003d6:	4323      	orrs	r3, r4
 80003d8:	d12a      	bne.n	8000430 <__aeabi_dmul+0x19c>
 80003da:	2400      	movs	r4, #0
 80003dc:	2002      	movs	r0, #2
 80003de:	e796      	b.n	800030e <__aeabi_dmul+0x7a>
 80003e0:	4653      	mov	r3, sl
 80003e2:	4323      	orrs	r3, r4
 80003e4:	d020      	beq.n	8000428 <__aeabi_dmul+0x194>
 80003e6:	2c00      	cmp	r4, #0
 80003e8:	d100      	bne.n	80003ec <__aeabi_dmul+0x158>
 80003ea:	e157      	b.n	800069c <__aeabi_dmul+0x408>
 80003ec:	0020      	movs	r0, r4
 80003ee:	f000 fd91 	bl	8000f14 <__clzsi2>
 80003f2:	0003      	movs	r3, r0
 80003f4:	3b0b      	subs	r3, #11
 80003f6:	2b1c      	cmp	r3, #28
 80003f8:	dd00      	ble.n	80003fc <__aeabi_dmul+0x168>
 80003fa:	e149      	b.n	8000690 <__aeabi_dmul+0x3fc>
 80003fc:	211d      	movs	r1, #29
 80003fe:	1acb      	subs	r3, r1, r3
 8000400:	4651      	mov	r1, sl
 8000402:	0002      	movs	r2, r0
 8000404:	40d9      	lsrs	r1, r3
 8000406:	4653      	mov	r3, sl
 8000408:	3a08      	subs	r2, #8
 800040a:	4094      	lsls	r4, r2
 800040c:	4093      	lsls	r3, r2
 800040e:	430c      	orrs	r4, r1
 8000410:	4a1b      	ldr	r2, [pc, #108]	; (8000480 <__aeabi_dmul+0x1ec>)
 8000412:	1a12      	subs	r2, r2, r0
 8000414:	2000      	movs	r0, #0
 8000416:	e77a      	b.n	800030e <__aeabi_dmul+0x7a>
 8000418:	2501      	movs	r5, #1
 800041a:	9b01      	ldr	r3, [sp, #4]
 800041c:	4c14      	ldr	r4, [pc, #80]	; (8000470 <__aeabi_dmul+0x1dc>)
 800041e:	401d      	ands	r5, r3
 8000420:	2300      	movs	r3, #0
 8000422:	2200      	movs	r2, #0
 8000424:	4699      	mov	r9, r3
 8000426:	e79c      	b.n	8000362 <__aeabi_dmul+0xce>
 8000428:	2400      	movs	r4, #0
 800042a:	2200      	movs	r2, #0
 800042c:	2001      	movs	r0, #1
 800042e:	e76e      	b.n	800030e <__aeabi_dmul+0x7a>
 8000430:	4653      	mov	r3, sl
 8000432:	2003      	movs	r0, #3
 8000434:	e76b      	b.n	800030e <__aeabi_dmul+0x7a>
 8000436:	2300      	movs	r3, #0
 8000438:	469b      	mov	fp, r3
 800043a:	3301      	adds	r3, #1
 800043c:	2704      	movs	r7, #4
 800043e:	2600      	movs	r6, #0
 8000440:	9302      	str	r3, [sp, #8]
 8000442:	e74c      	b.n	80002de <__aeabi_dmul+0x4a>
 8000444:	2303      	movs	r3, #3
 8000446:	4681      	mov	r9, r0
 8000448:	270c      	movs	r7, #12
 800044a:	9302      	str	r3, [sp, #8]
 800044c:	e747      	b.n	80002de <__aeabi_dmul+0x4a>
 800044e:	2280      	movs	r2, #128	; 0x80
 8000450:	2300      	movs	r3, #0
 8000452:	2500      	movs	r5, #0
 8000454:	0312      	lsls	r2, r2, #12
 8000456:	4699      	mov	r9, r3
 8000458:	4c05      	ldr	r4, [pc, #20]	; (8000470 <__aeabi_dmul+0x1dc>)
 800045a:	e782      	b.n	8000362 <__aeabi_dmul+0xce>
 800045c:	465c      	mov	r4, fp
 800045e:	464b      	mov	r3, r9
 8000460:	9802      	ldr	r0, [sp, #8]
 8000462:	e76f      	b.n	8000344 <__aeabi_dmul+0xb0>
 8000464:	465c      	mov	r4, fp
 8000466:	464b      	mov	r3, r9
 8000468:	9501      	str	r5, [sp, #4]
 800046a:	9802      	ldr	r0, [sp, #8]
 800046c:	e76a      	b.n	8000344 <__aeabi_dmul+0xb0>
 800046e:	46c0      	nop			; (mov r8, r8)
 8000470:	000007ff 	.word	0x000007ff
 8000474:	fffffc01 	.word	0xfffffc01
 8000478:	08006628 	.word	0x08006628
 800047c:	800fffff 	.word	0x800fffff
 8000480:	fffffc0d 	.word	0xfffffc0d
 8000484:	464a      	mov	r2, r9
 8000486:	4649      	mov	r1, r9
 8000488:	0c17      	lsrs	r7, r2, #16
 800048a:	0c1a      	lsrs	r2, r3, #16
 800048c:	041b      	lsls	r3, r3, #16
 800048e:	0c1b      	lsrs	r3, r3, #16
 8000490:	0408      	lsls	r0, r1, #16
 8000492:	0019      	movs	r1, r3
 8000494:	0c00      	lsrs	r0, r0, #16
 8000496:	4341      	muls	r1, r0
 8000498:	0015      	movs	r5, r2
 800049a:	4688      	mov	r8, r1
 800049c:	0019      	movs	r1, r3
 800049e:	437d      	muls	r5, r7
 80004a0:	4379      	muls	r1, r7
 80004a2:	9503      	str	r5, [sp, #12]
 80004a4:	4689      	mov	r9, r1
 80004a6:	0029      	movs	r1, r5
 80004a8:	0015      	movs	r5, r2
 80004aa:	4345      	muls	r5, r0
 80004ac:	444d      	add	r5, r9
 80004ae:	9502      	str	r5, [sp, #8]
 80004b0:	4645      	mov	r5, r8
 80004b2:	0c2d      	lsrs	r5, r5, #16
 80004b4:	46aa      	mov	sl, r5
 80004b6:	9d02      	ldr	r5, [sp, #8]
 80004b8:	4455      	add	r5, sl
 80004ba:	45a9      	cmp	r9, r5
 80004bc:	d906      	bls.n	80004cc <__aeabi_dmul+0x238>
 80004be:	468a      	mov	sl, r1
 80004c0:	2180      	movs	r1, #128	; 0x80
 80004c2:	0249      	lsls	r1, r1, #9
 80004c4:	4689      	mov	r9, r1
 80004c6:	44ca      	add	sl, r9
 80004c8:	4651      	mov	r1, sl
 80004ca:	9103      	str	r1, [sp, #12]
 80004cc:	0c29      	lsrs	r1, r5, #16
 80004ce:	9104      	str	r1, [sp, #16]
 80004d0:	4641      	mov	r1, r8
 80004d2:	0409      	lsls	r1, r1, #16
 80004d4:	042d      	lsls	r5, r5, #16
 80004d6:	0c09      	lsrs	r1, r1, #16
 80004d8:	4688      	mov	r8, r1
 80004da:	0029      	movs	r1, r5
 80004dc:	0c25      	lsrs	r5, r4, #16
 80004de:	0424      	lsls	r4, r4, #16
 80004e0:	4441      	add	r1, r8
 80004e2:	0c24      	lsrs	r4, r4, #16
 80004e4:	9105      	str	r1, [sp, #20]
 80004e6:	0021      	movs	r1, r4
 80004e8:	4341      	muls	r1, r0
 80004ea:	4688      	mov	r8, r1
 80004ec:	0021      	movs	r1, r4
 80004ee:	4379      	muls	r1, r7
 80004f0:	468a      	mov	sl, r1
 80004f2:	4368      	muls	r0, r5
 80004f4:	4641      	mov	r1, r8
 80004f6:	4450      	add	r0, sl
 80004f8:	4681      	mov	r9, r0
 80004fa:	0c08      	lsrs	r0, r1, #16
 80004fc:	4448      	add	r0, r9
 80004fe:	436f      	muls	r7, r5
 8000500:	4582      	cmp	sl, r0
 8000502:	d903      	bls.n	800050c <__aeabi_dmul+0x278>
 8000504:	2180      	movs	r1, #128	; 0x80
 8000506:	0249      	lsls	r1, r1, #9
 8000508:	4689      	mov	r9, r1
 800050a:	444f      	add	r7, r9
 800050c:	0c01      	lsrs	r1, r0, #16
 800050e:	4689      	mov	r9, r1
 8000510:	0039      	movs	r1, r7
 8000512:	4449      	add	r1, r9
 8000514:	9102      	str	r1, [sp, #8]
 8000516:	4641      	mov	r1, r8
 8000518:	040f      	lsls	r7, r1, #16
 800051a:	9904      	ldr	r1, [sp, #16]
 800051c:	0c3f      	lsrs	r7, r7, #16
 800051e:	4688      	mov	r8, r1
 8000520:	0400      	lsls	r0, r0, #16
 8000522:	19c0      	adds	r0, r0, r7
 8000524:	4480      	add	r8, r0
 8000526:	4641      	mov	r1, r8
 8000528:	9104      	str	r1, [sp, #16]
 800052a:	4659      	mov	r1, fp
 800052c:	0c0f      	lsrs	r7, r1, #16
 800052e:	0409      	lsls	r1, r1, #16
 8000530:	0c09      	lsrs	r1, r1, #16
 8000532:	4688      	mov	r8, r1
 8000534:	4359      	muls	r1, r3
 8000536:	468a      	mov	sl, r1
 8000538:	0039      	movs	r1, r7
 800053a:	4351      	muls	r1, r2
 800053c:	4689      	mov	r9, r1
 800053e:	4641      	mov	r1, r8
 8000540:	434a      	muls	r2, r1
 8000542:	4651      	mov	r1, sl
 8000544:	0c09      	lsrs	r1, r1, #16
 8000546:	468b      	mov	fp, r1
 8000548:	437b      	muls	r3, r7
 800054a:	18d2      	adds	r2, r2, r3
 800054c:	445a      	add	r2, fp
 800054e:	4293      	cmp	r3, r2
 8000550:	d903      	bls.n	800055a <__aeabi_dmul+0x2c6>
 8000552:	2380      	movs	r3, #128	; 0x80
 8000554:	025b      	lsls	r3, r3, #9
 8000556:	469b      	mov	fp, r3
 8000558:	44d9      	add	r9, fp
 800055a:	4651      	mov	r1, sl
 800055c:	0409      	lsls	r1, r1, #16
 800055e:	0c09      	lsrs	r1, r1, #16
 8000560:	468a      	mov	sl, r1
 8000562:	4641      	mov	r1, r8
 8000564:	4361      	muls	r1, r4
 8000566:	437c      	muls	r4, r7
 8000568:	0c13      	lsrs	r3, r2, #16
 800056a:	0412      	lsls	r2, r2, #16
 800056c:	444b      	add	r3, r9
 800056e:	4452      	add	r2, sl
 8000570:	46a1      	mov	r9, r4
 8000572:	468a      	mov	sl, r1
 8000574:	003c      	movs	r4, r7
 8000576:	4641      	mov	r1, r8
 8000578:	436c      	muls	r4, r5
 800057a:	434d      	muls	r5, r1
 800057c:	4651      	mov	r1, sl
 800057e:	444d      	add	r5, r9
 8000580:	0c0f      	lsrs	r7, r1, #16
 8000582:	197d      	adds	r5, r7, r5
 8000584:	45a9      	cmp	r9, r5
 8000586:	d903      	bls.n	8000590 <__aeabi_dmul+0x2fc>
 8000588:	2180      	movs	r1, #128	; 0x80
 800058a:	0249      	lsls	r1, r1, #9
 800058c:	4688      	mov	r8, r1
 800058e:	4444      	add	r4, r8
 8000590:	9f04      	ldr	r7, [sp, #16]
 8000592:	9903      	ldr	r1, [sp, #12]
 8000594:	46b8      	mov	r8, r7
 8000596:	4441      	add	r1, r8
 8000598:	468b      	mov	fp, r1
 800059a:	4583      	cmp	fp, r0
 800059c:	4180      	sbcs	r0, r0
 800059e:	4241      	negs	r1, r0
 80005a0:	4688      	mov	r8, r1
 80005a2:	4651      	mov	r1, sl
 80005a4:	0408      	lsls	r0, r1, #16
 80005a6:	042f      	lsls	r7, r5, #16
 80005a8:	0c00      	lsrs	r0, r0, #16
 80005aa:	183f      	adds	r7, r7, r0
 80005ac:	4658      	mov	r0, fp
 80005ae:	9902      	ldr	r1, [sp, #8]
 80005b0:	1810      	adds	r0, r2, r0
 80005b2:	4689      	mov	r9, r1
 80005b4:	4290      	cmp	r0, r2
 80005b6:	4192      	sbcs	r2, r2
 80005b8:	444f      	add	r7, r9
 80005ba:	46ba      	mov	sl, r7
 80005bc:	4252      	negs	r2, r2
 80005be:	4699      	mov	r9, r3
 80005c0:	4693      	mov	fp, r2
 80005c2:	44c2      	add	sl, r8
 80005c4:	44d1      	add	r9, sl
 80005c6:	44cb      	add	fp, r9
 80005c8:	428f      	cmp	r7, r1
 80005ca:	41bf      	sbcs	r7, r7
 80005cc:	45c2      	cmp	sl, r8
 80005ce:	4189      	sbcs	r1, r1
 80005d0:	4599      	cmp	r9, r3
 80005d2:	419b      	sbcs	r3, r3
 80005d4:	4593      	cmp	fp, r2
 80005d6:	4192      	sbcs	r2, r2
 80005d8:	427f      	negs	r7, r7
 80005da:	4249      	negs	r1, r1
 80005dc:	0c2d      	lsrs	r5, r5, #16
 80005de:	4252      	negs	r2, r2
 80005e0:	430f      	orrs	r7, r1
 80005e2:	425b      	negs	r3, r3
 80005e4:	4313      	orrs	r3, r2
 80005e6:	197f      	adds	r7, r7, r5
 80005e8:	18ff      	adds	r7, r7, r3
 80005ea:	465b      	mov	r3, fp
 80005ec:	193c      	adds	r4, r7, r4
 80005ee:	0ddb      	lsrs	r3, r3, #23
 80005f0:	9a05      	ldr	r2, [sp, #20]
 80005f2:	0264      	lsls	r4, r4, #9
 80005f4:	431c      	orrs	r4, r3
 80005f6:	0243      	lsls	r3, r0, #9
 80005f8:	4313      	orrs	r3, r2
 80005fa:	1e5d      	subs	r5, r3, #1
 80005fc:	41ab      	sbcs	r3, r5
 80005fe:	465a      	mov	r2, fp
 8000600:	0dc0      	lsrs	r0, r0, #23
 8000602:	4303      	orrs	r3, r0
 8000604:	0252      	lsls	r2, r2, #9
 8000606:	4313      	orrs	r3, r2
 8000608:	01e2      	lsls	r2, r4, #7
 800060a:	d556      	bpl.n	80006ba <__aeabi_dmul+0x426>
 800060c:	2001      	movs	r0, #1
 800060e:	085a      	lsrs	r2, r3, #1
 8000610:	4003      	ands	r3, r0
 8000612:	4313      	orrs	r3, r2
 8000614:	07e2      	lsls	r2, r4, #31
 8000616:	4313      	orrs	r3, r2
 8000618:	0864      	lsrs	r4, r4, #1
 800061a:	485a      	ldr	r0, [pc, #360]	; (8000784 <__aeabi_dmul+0x4f0>)
 800061c:	4460      	add	r0, ip
 800061e:	2800      	cmp	r0, #0
 8000620:	dd4d      	ble.n	80006be <__aeabi_dmul+0x42a>
 8000622:	075a      	lsls	r2, r3, #29
 8000624:	d009      	beq.n	800063a <__aeabi_dmul+0x3a6>
 8000626:	220f      	movs	r2, #15
 8000628:	401a      	ands	r2, r3
 800062a:	2a04      	cmp	r2, #4
 800062c:	d005      	beq.n	800063a <__aeabi_dmul+0x3a6>
 800062e:	1d1a      	adds	r2, r3, #4
 8000630:	429a      	cmp	r2, r3
 8000632:	419b      	sbcs	r3, r3
 8000634:	425b      	negs	r3, r3
 8000636:	18e4      	adds	r4, r4, r3
 8000638:	0013      	movs	r3, r2
 800063a:	01e2      	lsls	r2, r4, #7
 800063c:	d504      	bpl.n	8000648 <__aeabi_dmul+0x3b4>
 800063e:	2080      	movs	r0, #128	; 0x80
 8000640:	4a51      	ldr	r2, [pc, #324]	; (8000788 <__aeabi_dmul+0x4f4>)
 8000642:	00c0      	lsls	r0, r0, #3
 8000644:	4014      	ands	r4, r2
 8000646:	4460      	add	r0, ip
 8000648:	4a50      	ldr	r2, [pc, #320]	; (800078c <__aeabi_dmul+0x4f8>)
 800064a:	4290      	cmp	r0, r2
 800064c:	dd00      	ble.n	8000650 <__aeabi_dmul+0x3bc>
 800064e:	e6e3      	b.n	8000418 <__aeabi_dmul+0x184>
 8000650:	2501      	movs	r5, #1
 8000652:	08db      	lsrs	r3, r3, #3
 8000654:	0762      	lsls	r2, r4, #29
 8000656:	431a      	orrs	r2, r3
 8000658:	0264      	lsls	r4, r4, #9
 800065a:	9b01      	ldr	r3, [sp, #4]
 800065c:	4691      	mov	r9, r2
 800065e:	0b22      	lsrs	r2, r4, #12
 8000660:	0544      	lsls	r4, r0, #21
 8000662:	0d64      	lsrs	r4, r4, #21
 8000664:	401d      	ands	r5, r3
 8000666:	e67c      	b.n	8000362 <__aeabi_dmul+0xce>
 8000668:	2280      	movs	r2, #128	; 0x80
 800066a:	4659      	mov	r1, fp
 800066c:	0312      	lsls	r2, r2, #12
 800066e:	4211      	tst	r1, r2
 8000670:	d008      	beq.n	8000684 <__aeabi_dmul+0x3f0>
 8000672:	4214      	tst	r4, r2
 8000674:	d106      	bne.n	8000684 <__aeabi_dmul+0x3f0>
 8000676:	4322      	orrs	r2, r4
 8000678:	0312      	lsls	r2, r2, #12
 800067a:	0b12      	lsrs	r2, r2, #12
 800067c:	4645      	mov	r5, r8
 800067e:	4699      	mov	r9, r3
 8000680:	4c43      	ldr	r4, [pc, #268]	; (8000790 <__aeabi_dmul+0x4fc>)
 8000682:	e66e      	b.n	8000362 <__aeabi_dmul+0xce>
 8000684:	465b      	mov	r3, fp
 8000686:	431a      	orrs	r2, r3
 8000688:	0312      	lsls	r2, r2, #12
 800068a:	0b12      	lsrs	r2, r2, #12
 800068c:	4c40      	ldr	r4, [pc, #256]	; (8000790 <__aeabi_dmul+0x4fc>)
 800068e:	e668      	b.n	8000362 <__aeabi_dmul+0xce>
 8000690:	0003      	movs	r3, r0
 8000692:	4654      	mov	r4, sl
 8000694:	3b28      	subs	r3, #40	; 0x28
 8000696:	409c      	lsls	r4, r3
 8000698:	2300      	movs	r3, #0
 800069a:	e6b9      	b.n	8000410 <__aeabi_dmul+0x17c>
 800069c:	f000 fc3a 	bl	8000f14 <__clzsi2>
 80006a0:	3020      	adds	r0, #32
 80006a2:	e6a6      	b.n	80003f2 <__aeabi_dmul+0x15e>
 80006a4:	0003      	movs	r3, r0
 80006a6:	3b28      	subs	r3, #40	; 0x28
 80006a8:	409f      	lsls	r7, r3
 80006aa:	2300      	movs	r3, #0
 80006ac:	46bb      	mov	fp, r7
 80006ae:	4699      	mov	r9, r3
 80006b0:	e68a      	b.n	80003c8 <__aeabi_dmul+0x134>
 80006b2:	f000 fc2f 	bl	8000f14 <__clzsi2>
 80006b6:	3020      	adds	r0, #32
 80006b8:	e674      	b.n	80003a4 <__aeabi_dmul+0x110>
 80006ba:	46b4      	mov	ip, r6
 80006bc:	e7ad      	b.n	800061a <__aeabi_dmul+0x386>
 80006be:	2501      	movs	r5, #1
 80006c0:	1a2a      	subs	r2, r5, r0
 80006c2:	2a38      	cmp	r2, #56	; 0x38
 80006c4:	dd06      	ble.n	80006d4 <__aeabi_dmul+0x440>
 80006c6:	9b01      	ldr	r3, [sp, #4]
 80006c8:	2400      	movs	r4, #0
 80006ca:	401d      	ands	r5, r3
 80006cc:	2300      	movs	r3, #0
 80006ce:	2200      	movs	r2, #0
 80006d0:	4699      	mov	r9, r3
 80006d2:	e646      	b.n	8000362 <__aeabi_dmul+0xce>
 80006d4:	2a1f      	cmp	r2, #31
 80006d6:	dc21      	bgt.n	800071c <__aeabi_dmul+0x488>
 80006d8:	2520      	movs	r5, #32
 80006da:	0020      	movs	r0, r4
 80006dc:	1aad      	subs	r5, r5, r2
 80006de:	001e      	movs	r6, r3
 80006e0:	40ab      	lsls	r3, r5
 80006e2:	40a8      	lsls	r0, r5
 80006e4:	40d6      	lsrs	r6, r2
 80006e6:	1e5d      	subs	r5, r3, #1
 80006e8:	41ab      	sbcs	r3, r5
 80006ea:	4330      	orrs	r0, r6
 80006ec:	4318      	orrs	r0, r3
 80006ee:	40d4      	lsrs	r4, r2
 80006f0:	0743      	lsls	r3, r0, #29
 80006f2:	d009      	beq.n	8000708 <__aeabi_dmul+0x474>
 80006f4:	230f      	movs	r3, #15
 80006f6:	4003      	ands	r3, r0
 80006f8:	2b04      	cmp	r3, #4
 80006fa:	d005      	beq.n	8000708 <__aeabi_dmul+0x474>
 80006fc:	0003      	movs	r3, r0
 80006fe:	1d18      	adds	r0, r3, #4
 8000700:	4298      	cmp	r0, r3
 8000702:	419b      	sbcs	r3, r3
 8000704:	425b      	negs	r3, r3
 8000706:	18e4      	adds	r4, r4, r3
 8000708:	0223      	lsls	r3, r4, #8
 800070a:	d521      	bpl.n	8000750 <__aeabi_dmul+0x4bc>
 800070c:	2501      	movs	r5, #1
 800070e:	9b01      	ldr	r3, [sp, #4]
 8000710:	2401      	movs	r4, #1
 8000712:	401d      	ands	r5, r3
 8000714:	2300      	movs	r3, #0
 8000716:	2200      	movs	r2, #0
 8000718:	4699      	mov	r9, r3
 800071a:	e622      	b.n	8000362 <__aeabi_dmul+0xce>
 800071c:	251f      	movs	r5, #31
 800071e:	0021      	movs	r1, r4
 8000720:	426d      	negs	r5, r5
 8000722:	1a28      	subs	r0, r5, r0
 8000724:	40c1      	lsrs	r1, r0
 8000726:	0008      	movs	r0, r1
 8000728:	2a20      	cmp	r2, #32
 800072a:	d01d      	beq.n	8000768 <__aeabi_dmul+0x4d4>
 800072c:	355f      	adds	r5, #95	; 0x5f
 800072e:	1aaa      	subs	r2, r5, r2
 8000730:	4094      	lsls	r4, r2
 8000732:	4323      	orrs	r3, r4
 8000734:	1e5c      	subs	r4, r3, #1
 8000736:	41a3      	sbcs	r3, r4
 8000738:	2507      	movs	r5, #7
 800073a:	4303      	orrs	r3, r0
 800073c:	401d      	ands	r5, r3
 800073e:	2200      	movs	r2, #0
 8000740:	2d00      	cmp	r5, #0
 8000742:	d009      	beq.n	8000758 <__aeabi_dmul+0x4c4>
 8000744:	220f      	movs	r2, #15
 8000746:	2400      	movs	r4, #0
 8000748:	401a      	ands	r2, r3
 800074a:	0018      	movs	r0, r3
 800074c:	2a04      	cmp	r2, #4
 800074e:	d1d6      	bne.n	80006fe <__aeabi_dmul+0x46a>
 8000750:	0003      	movs	r3, r0
 8000752:	0765      	lsls	r5, r4, #29
 8000754:	0264      	lsls	r4, r4, #9
 8000756:	0b22      	lsrs	r2, r4, #12
 8000758:	08db      	lsrs	r3, r3, #3
 800075a:	432b      	orrs	r3, r5
 800075c:	2501      	movs	r5, #1
 800075e:	4699      	mov	r9, r3
 8000760:	9b01      	ldr	r3, [sp, #4]
 8000762:	2400      	movs	r4, #0
 8000764:	401d      	ands	r5, r3
 8000766:	e5fc      	b.n	8000362 <__aeabi_dmul+0xce>
 8000768:	2400      	movs	r4, #0
 800076a:	e7e2      	b.n	8000732 <__aeabi_dmul+0x49e>
 800076c:	2280      	movs	r2, #128	; 0x80
 800076e:	2501      	movs	r5, #1
 8000770:	0312      	lsls	r2, r2, #12
 8000772:	4322      	orrs	r2, r4
 8000774:	9901      	ldr	r1, [sp, #4]
 8000776:	0312      	lsls	r2, r2, #12
 8000778:	0b12      	lsrs	r2, r2, #12
 800077a:	400d      	ands	r5, r1
 800077c:	4699      	mov	r9, r3
 800077e:	4c04      	ldr	r4, [pc, #16]	; (8000790 <__aeabi_dmul+0x4fc>)
 8000780:	e5ef      	b.n	8000362 <__aeabi_dmul+0xce>
 8000782:	46c0      	nop			; (mov r8, r8)
 8000784:	000003ff 	.word	0x000003ff
 8000788:	feffffff 	.word	0xfeffffff
 800078c:	000007fe 	.word	0x000007fe
 8000790:	000007ff 	.word	0x000007ff

08000794 <__aeabi_dsub>:
 8000794:	b5f0      	push	{r4, r5, r6, r7, lr}
 8000796:	4646      	mov	r6, r8
 8000798:	46d6      	mov	lr, sl
 800079a:	464f      	mov	r7, r9
 800079c:	030c      	lsls	r4, r1, #12
 800079e:	b5c0      	push	{r6, r7, lr}
 80007a0:	0fcd      	lsrs	r5, r1, #31
 80007a2:	004e      	lsls	r6, r1, #1
 80007a4:	0a61      	lsrs	r1, r4, #9
 80007a6:	0f44      	lsrs	r4, r0, #29
 80007a8:	430c      	orrs	r4, r1
 80007aa:	00c1      	lsls	r1, r0, #3
 80007ac:	0058      	lsls	r0, r3, #1
 80007ae:	0d40      	lsrs	r0, r0, #21
 80007b0:	4684      	mov	ip, r0
 80007b2:	468a      	mov	sl, r1
 80007b4:	000f      	movs	r7, r1
 80007b6:	0319      	lsls	r1, r3, #12
 80007b8:	0f50      	lsrs	r0, r2, #29
 80007ba:	0a49      	lsrs	r1, r1, #9
 80007bc:	4301      	orrs	r1, r0
 80007be:	48c6      	ldr	r0, [pc, #792]	; (8000ad8 <__aeabi_dsub+0x344>)
 80007c0:	0d76      	lsrs	r6, r6, #21
 80007c2:	46a8      	mov	r8, r5
 80007c4:	0fdb      	lsrs	r3, r3, #31
 80007c6:	00d2      	lsls	r2, r2, #3
 80007c8:	4584      	cmp	ip, r0
 80007ca:	d100      	bne.n	80007ce <__aeabi_dsub+0x3a>
 80007cc:	e0d8      	b.n	8000980 <__aeabi_dsub+0x1ec>
 80007ce:	2001      	movs	r0, #1
 80007d0:	4043      	eors	r3, r0
 80007d2:	42ab      	cmp	r3, r5
 80007d4:	d100      	bne.n	80007d8 <__aeabi_dsub+0x44>
 80007d6:	e0a6      	b.n	8000926 <__aeabi_dsub+0x192>
 80007d8:	4660      	mov	r0, ip
 80007da:	1a35      	subs	r5, r6, r0
 80007dc:	2d00      	cmp	r5, #0
 80007de:	dc00      	bgt.n	80007e2 <__aeabi_dsub+0x4e>
 80007e0:	e105      	b.n	80009ee <__aeabi_dsub+0x25a>
 80007e2:	2800      	cmp	r0, #0
 80007e4:	d110      	bne.n	8000808 <__aeabi_dsub+0x74>
 80007e6:	000b      	movs	r3, r1
 80007e8:	4313      	orrs	r3, r2
 80007ea:	d100      	bne.n	80007ee <__aeabi_dsub+0x5a>
 80007ec:	e0d7      	b.n	800099e <__aeabi_dsub+0x20a>
 80007ee:	1e6b      	subs	r3, r5, #1
 80007f0:	2b00      	cmp	r3, #0
 80007f2:	d000      	beq.n	80007f6 <__aeabi_dsub+0x62>
 80007f4:	e14b      	b.n	8000a8e <__aeabi_dsub+0x2fa>
 80007f6:	4653      	mov	r3, sl
 80007f8:	1a9f      	subs	r7, r3, r2
 80007fa:	45ba      	cmp	sl, r7
 80007fc:	4180      	sbcs	r0, r0
 80007fe:	1a64      	subs	r4, r4, r1
 8000800:	4240      	negs	r0, r0
 8000802:	1a24      	subs	r4, r4, r0
 8000804:	2601      	movs	r6, #1
 8000806:	e01e      	b.n	8000846 <__aeabi_dsub+0xb2>
 8000808:	4bb3      	ldr	r3, [pc, #716]	; (8000ad8 <__aeabi_dsub+0x344>)
 800080a:	429e      	cmp	r6, r3
 800080c:	d048      	beq.n	80008a0 <__aeabi_dsub+0x10c>
 800080e:	2380      	movs	r3, #128	; 0x80
 8000810:	041b      	lsls	r3, r3, #16
 8000812:	4319      	orrs	r1, r3
 8000814:	2d38      	cmp	r5, #56	; 0x38
 8000816:	dd00      	ble.n	800081a <__aeabi_dsub+0x86>
 8000818:	e119      	b.n	8000a4e <__aeabi_dsub+0x2ba>
 800081a:	2d1f      	cmp	r5, #31
 800081c:	dd00      	ble.n	8000820 <__aeabi_dsub+0x8c>
 800081e:	e14c      	b.n	8000aba <__aeabi_dsub+0x326>
 8000820:	2320      	movs	r3, #32
 8000822:	000f      	movs	r7, r1
 8000824:	1b5b      	subs	r3, r3, r5
 8000826:	0010      	movs	r0, r2
 8000828:	409a      	lsls	r2, r3
 800082a:	409f      	lsls	r7, r3
 800082c:	40e8      	lsrs	r0, r5
 800082e:	1e53      	subs	r3, r2, #1
 8000830:	419a      	sbcs	r2, r3
 8000832:	40e9      	lsrs	r1, r5
 8000834:	4307      	orrs	r7, r0
 8000836:	4317      	orrs	r7, r2
 8000838:	4653      	mov	r3, sl
 800083a:	1bdf      	subs	r7, r3, r7
 800083c:	1a61      	subs	r1, r4, r1
 800083e:	45ba      	cmp	sl, r7
 8000840:	41a4      	sbcs	r4, r4
 8000842:	4264      	negs	r4, r4
 8000844:	1b0c      	subs	r4, r1, r4
 8000846:	0223      	lsls	r3, r4, #8
 8000848:	d400      	bmi.n	800084c <__aeabi_dsub+0xb8>
 800084a:	e0c5      	b.n	80009d8 <__aeabi_dsub+0x244>
 800084c:	0264      	lsls	r4, r4, #9
 800084e:	0a65      	lsrs	r5, r4, #9
 8000850:	2d00      	cmp	r5, #0
 8000852:	d100      	bne.n	8000856 <__aeabi_dsub+0xc2>
 8000854:	e0f6      	b.n	8000a44 <__aeabi_dsub+0x2b0>
 8000856:	0028      	movs	r0, r5
 8000858:	f000 fb5c 	bl	8000f14 <__clzsi2>
 800085c:	0003      	movs	r3, r0
 800085e:	3b08      	subs	r3, #8
 8000860:	2b1f      	cmp	r3, #31
 8000862:	dd00      	ble.n	8000866 <__aeabi_dsub+0xd2>
 8000864:	e0e9      	b.n	8000a3a <__aeabi_dsub+0x2a6>
 8000866:	2220      	movs	r2, #32
 8000868:	003c      	movs	r4, r7
 800086a:	1ad2      	subs	r2, r2, r3
 800086c:	409d      	lsls	r5, r3
 800086e:	40d4      	lsrs	r4, r2
 8000870:	409f      	lsls	r7, r3
 8000872:	4325      	orrs	r5, r4
 8000874:	429e      	cmp	r6, r3
 8000876:	dd00      	ble.n	800087a <__aeabi_dsub+0xe6>
 8000878:	e0db      	b.n	8000a32 <__aeabi_dsub+0x29e>
 800087a:	1b9e      	subs	r6, r3, r6
 800087c:	1c73      	adds	r3, r6, #1
 800087e:	2b1f      	cmp	r3, #31
 8000880:	dd00      	ble.n	8000884 <__aeabi_dsub+0xf0>
 8000882:	e10a      	b.n	8000a9a <__aeabi_dsub+0x306>
 8000884:	2220      	movs	r2, #32
 8000886:	0038      	movs	r0, r7
 8000888:	1ad2      	subs	r2, r2, r3
 800088a:	0029      	movs	r1, r5
 800088c:	4097      	lsls	r7, r2
 800088e:	002c      	movs	r4, r5
 8000890:	4091      	lsls	r1, r2
 8000892:	40d8      	lsrs	r0, r3
 8000894:	1e7a      	subs	r2, r7, #1
 8000896:	4197      	sbcs	r7, r2
 8000898:	40dc      	lsrs	r4, r3
 800089a:	2600      	movs	r6, #0
 800089c:	4301      	orrs	r1, r0
 800089e:	430f      	orrs	r7, r1
 80008a0:	077b      	lsls	r3, r7, #29
 80008a2:	d009      	beq.n	80008b8 <__aeabi_dsub+0x124>
 80008a4:	230f      	movs	r3, #15
 80008a6:	403b      	ands	r3, r7
 80008a8:	2b04      	cmp	r3, #4
 80008aa:	d005      	beq.n	80008b8 <__aeabi_dsub+0x124>
 80008ac:	1d3b      	adds	r3, r7, #4
 80008ae:	42bb      	cmp	r3, r7
 80008b0:	41bf      	sbcs	r7, r7
 80008b2:	427f      	negs	r7, r7
 80008b4:	19e4      	adds	r4, r4, r7
 80008b6:	001f      	movs	r7, r3
 80008b8:	0223      	lsls	r3, r4, #8
 80008ba:	d525      	bpl.n	8000908 <__aeabi_dsub+0x174>
 80008bc:	4b86      	ldr	r3, [pc, #536]	; (8000ad8 <__aeabi_dsub+0x344>)
 80008be:	3601      	adds	r6, #1
 80008c0:	429e      	cmp	r6, r3
 80008c2:	d100      	bne.n	80008c6 <__aeabi_dsub+0x132>
 80008c4:	e0af      	b.n	8000a26 <__aeabi_dsub+0x292>
 80008c6:	4b85      	ldr	r3, [pc, #532]	; (8000adc <__aeabi_dsub+0x348>)
 80008c8:	2501      	movs	r5, #1
 80008ca:	401c      	ands	r4, r3
 80008cc:	4643      	mov	r3, r8
 80008ce:	0762      	lsls	r2, r4, #29
 80008d0:	08ff      	lsrs	r7, r7, #3
 80008d2:	0264      	lsls	r4, r4, #9
 80008d4:	0576      	lsls	r6, r6, #21
 80008d6:	4317      	orrs	r7, r2
 80008d8:	0b24      	lsrs	r4, r4, #12
 80008da:	0d76      	lsrs	r6, r6, #21
 80008dc:	401d      	ands	r5, r3
 80008de:	2100      	movs	r1, #0
 80008e0:	0324      	lsls	r4, r4, #12
 80008e2:	0b23      	lsrs	r3, r4, #12
 80008e4:	0d0c      	lsrs	r4, r1, #20
 80008e6:	4a7e      	ldr	r2, [pc, #504]	; (8000ae0 <__aeabi_dsub+0x34c>)
 80008e8:	0524      	lsls	r4, r4, #20
 80008ea:	431c      	orrs	r4, r3
 80008ec:	4014      	ands	r4, r2
 80008ee:	0533      	lsls	r3, r6, #20
 80008f0:	4323      	orrs	r3, r4
 80008f2:	005b      	lsls	r3, r3, #1
 80008f4:	07ed      	lsls	r5, r5, #31
 80008f6:	085b      	lsrs	r3, r3, #1
 80008f8:	432b      	orrs	r3, r5
 80008fa:	0038      	movs	r0, r7
 80008fc:	0019      	movs	r1, r3
 80008fe:	bc1c      	pop	{r2, r3, r4}
 8000900:	4690      	mov	r8, r2
 8000902:	4699      	mov	r9, r3
 8000904:	46a2      	mov	sl, r4
 8000906:	bdf0      	pop	{r4, r5, r6, r7, pc}
 8000908:	2501      	movs	r5, #1
 800090a:	4643      	mov	r3, r8
 800090c:	0762      	lsls	r2, r4, #29
 800090e:	08ff      	lsrs	r7, r7, #3
 8000910:	4317      	orrs	r7, r2
 8000912:	08e4      	lsrs	r4, r4, #3
 8000914:	401d      	ands	r5, r3
 8000916:	4b70      	ldr	r3, [pc, #448]	; (8000ad8 <__aeabi_dsub+0x344>)
 8000918:	429e      	cmp	r6, r3
 800091a:	d036      	beq.n	800098a <__aeabi_dsub+0x1f6>
 800091c:	0324      	lsls	r4, r4, #12
 800091e:	0576      	lsls	r6, r6, #21
 8000920:	0b24      	lsrs	r4, r4, #12
 8000922:	0d76      	lsrs	r6, r6, #21
 8000924:	e7db      	b.n	80008de <__aeabi_dsub+0x14a>
 8000926:	4663      	mov	r3, ip
 8000928:	1af3      	subs	r3, r6, r3
 800092a:	2b00      	cmp	r3, #0
 800092c:	dc00      	bgt.n	8000930 <__aeabi_dsub+0x19c>
 800092e:	e094      	b.n	8000a5a <__aeabi_dsub+0x2c6>
 8000930:	4660      	mov	r0, ip
 8000932:	2800      	cmp	r0, #0
 8000934:	d035      	beq.n	80009a2 <__aeabi_dsub+0x20e>
 8000936:	4868      	ldr	r0, [pc, #416]	; (8000ad8 <__aeabi_dsub+0x344>)
 8000938:	4286      	cmp	r6, r0
 800093a:	d0b1      	beq.n	80008a0 <__aeabi_dsub+0x10c>
 800093c:	2780      	movs	r7, #128	; 0x80
 800093e:	043f      	lsls	r7, r7, #16
 8000940:	4339      	orrs	r1, r7
 8000942:	2b38      	cmp	r3, #56	; 0x38
 8000944:	dc00      	bgt.n	8000948 <__aeabi_dsub+0x1b4>
 8000946:	e0fd      	b.n	8000b44 <__aeabi_dsub+0x3b0>
 8000948:	430a      	orrs	r2, r1
 800094a:	0017      	movs	r7, r2
 800094c:	2100      	movs	r1, #0
 800094e:	1e7a      	subs	r2, r7, #1
 8000950:	4197      	sbcs	r7, r2
 8000952:	4457      	add	r7, sl
 8000954:	4557      	cmp	r7, sl
 8000956:	4180      	sbcs	r0, r0
 8000958:	1909      	adds	r1, r1, r4
 800095a:	4244      	negs	r4, r0
 800095c:	190c      	adds	r4, r1, r4
 800095e:	0223      	lsls	r3, r4, #8
 8000960:	d53a      	bpl.n	80009d8 <__aeabi_dsub+0x244>
 8000962:	4b5d      	ldr	r3, [pc, #372]	; (8000ad8 <__aeabi_dsub+0x344>)
 8000964:	3601      	adds	r6, #1
 8000966:	429e      	cmp	r6, r3
 8000968:	d100      	bne.n	800096c <__aeabi_dsub+0x1d8>
 800096a:	e14b      	b.n	8000c04 <__aeabi_dsub+0x470>
 800096c:	2201      	movs	r2, #1
 800096e:	4b5b      	ldr	r3, [pc, #364]	; (8000adc <__aeabi_dsub+0x348>)
 8000970:	401c      	ands	r4, r3
 8000972:	087b      	lsrs	r3, r7, #1
 8000974:	4017      	ands	r7, r2
 8000976:	431f      	orrs	r7, r3
 8000978:	07e2      	lsls	r2, r4, #31
 800097a:	4317      	orrs	r7, r2
 800097c:	0864      	lsrs	r4, r4, #1
 800097e:	e78f      	b.n	80008a0 <__aeabi_dsub+0x10c>
 8000980:	0008      	movs	r0, r1
 8000982:	4310      	orrs	r0, r2
 8000984:	d000      	beq.n	8000988 <__aeabi_dsub+0x1f4>
 8000986:	e724      	b.n	80007d2 <__aeabi_dsub+0x3e>
 8000988:	e721      	b.n	80007ce <__aeabi_dsub+0x3a>
 800098a:	0023      	movs	r3, r4
 800098c:	433b      	orrs	r3, r7
 800098e:	d100      	bne.n	8000992 <__aeabi_dsub+0x1fe>
 8000990:	e1b9      	b.n	8000d06 <__aeabi_dsub+0x572>
 8000992:	2280      	movs	r2, #128	; 0x80
 8000994:	0312      	lsls	r2, r2, #12
 8000996:	4314      	orrs	r4, r2
 8000998:	0324      	lsls	r4, r4, #12
 800099a:	0b24      	lsrs	r4, r4, #12
 800099c:	e79f      	b.n	80008de <__aeabi_dsub+0x14a>
 800099e:	002e      	movs	r6, r5
 80009a0:	e77e      	b.n	80008a0 <__aeabi_dsub+0x10c>
 80009a2:	0008      	movs	r0, r1
 80009a4:	4310      	orrs	r0, r2
 80009a6:	d100      	bne.n	80009aa <__aeabi_dsub+0x216>
 80009a8:	e0ca      	b.n	8000b40 <__aeabi_dsub+0x3ac>
 80009aa:	1e58      	subs	r0, r3, #1
 80009ac:	4684      	mov	ip, r0
 80009ae:	2800      	cmp	r0, #0
 80009b0:	d000      	beq.n	80009b4 <__aeabi_dsub+0x220>
 80009b2:	e0e7      	b.n	8000b84 <__aeabi_dsub+0x3f0>
 80009b4:	4452      	add	r2, sl
 80009b6:	4552      	cmp	r2, sl
 80009b8:	4180      	sbcs	r0, r0
 80009ba:	1864      	adds	r4, r4, r1
 80009bc:	4240      	negs	r0, r0
 80009be:	1824      	adds	r4, r4, r0
 80009c0:	0017      	movs	r7, r2
 80009c2:	2601      	movs	r6, #1
 80009c4:	0223      	lsls	r3, r4, #8
 80009c6:	d507      	bpl.n	80009d8 <__aeabi_dsub+0x244>
 80009c8:	2602      	movs	r6, #2
 80009ca:	e7cf      	b.n	800096c <__aeabi_dsub+0x1d8>
 80009cc:	4664      	mov	r4, ip
 80009ce:	432c      	orrs	r4, r5
 80009d0:	d100      	bne.n	80009d4 <__aeabi_dsub+0x240>
 80009d2:	e1b3      	b.n	8000d3c <__aeabi_dsub+0x5a8>
 80009d4:	002c      	movs	r4, r5
 80009d6:	4667      	mov	r7, ip
 80009d8:	077b      	lsls	r3, r7, #29
 80009da:	d000      	beq.n	80009de <__aeabi_dsub+0x24a>
 80009dc:	e762      	b.n	80008a4 <__aeabi_dsub+0x110>
 80009de:	0763      	lsls	r3, r4, #29
 80009e0:	08ff      	lsrs	r7, r7, #3
 80009e2:	431f      	orrs	r7, r3
 80009e4:	2501      	movs	r5, #1
 80009e6:	4643      	mov	r3, r8
 80009e8:	08e4      	lsrs	r4, r4, #3
 80009ea:	401d      	ands	r5, r3
 80009ec:	e793      	b.n	8000916 <__aeabi_dsub+0x182>
 80009ee:	2d00      	cmp	r5, #0
 80009f0:	d178      	bne.n	8000ae4 <__aeabi_dsub+0x350>
 80009f2:	1c75      	adds	r5, r6, #1
 80009f4:	056d      	lsls	r5, r5, #21
 80009f6:	0d6d      	lsrs	r5, r5, #21
 80009f8:	2d01      	cmp	r5, #1
 80009fa:	dc00      	bgt.n	80009fe <__aeabi_dsub+0x26a>
 80009fc:	e0f2      	b.n	8000be4 <__aeabi_dsub+0x450>
 80009fe:	4650      	mov	r0, sl
 8000a00:	1a80      	subs	r0, r0, r2
 8000a02:	4582      	cmp	sl, r0
 8000a04:	41bf      	sbcs	r7, r7
 8000a06:	1a65      	subs	r5, r4, r1
 8000a08:	427f      	negs	r7, r7
 8000a0a:	1bed      	subs	r5, r5, r7
 8000a0c:	4684      	mov	ip, r0
 8000a0e:	0228      	lsls	r0, r5, #8
 8000a10:	d400      	bmi.n	8000a14 <__aeabi_dsub+0x280>
 8000a12:	e08c      	b.n	8000b2e <__aeabi_dsub+0x39a>
 8000a14:	4650      	mov	r0, sl
 8000a16:	1a17      	subs	r7, r2, r0
 8000a18:	42ba      	cmp	r2, r7
 8000a1a:	4192      	sbcs	r2, r2
 8000a1c:	1b0c      	subs	r4, r1, r4
 8000a1e:	4255      	negs	r5, r2
 8000a20:	1b65      	subs	r5, r4, r5
 8000a22:	4698      	mov	r8, r3
 8000a24:	e714      	b.n	8000850 <__aeabi_dsub+0xbc>
 8000a26:	2501      	movs	r5, #1
 8000a28:	4643      	mov	r3, r8
 8000a2a:	2400      	movs	r4, #0
 8000a2c:	401d      	ands	r5, r3
 8000a2e:	2700      	movs	r7, #0
 8000a30:	e755      	b.n	80008de <__aeabi_dsub+0x14a>
 8000a32:	4c2a      	ldr	r4, [pc, #168]	; (8000adc <__aeabi_dsub+0x348>)
 8000a34:	1af6      	subs	r6, r6, r3
 8000a36:	402c      	ands	r4, r5
 8000a38:	e732      	b.n	80008a0 <__aeabi_dsub+0x10c>
 8000a3a:	003d      	movs	r5, r7
 8000a3c:	3828      	subs	r0, #40	; 0x28
 8000a3e:	4085      	lsls	r5, r0
 8000a40:	2700      	movs	r7, #0
 8000a42:	e717      	b.n	8000874 <__aeabi_dsub+0xe0>
 8000a44:	0038      	movs	r0, r7
 8000a46:	f000 fa65 	bl	8000f14 <__clzsi2>
 8000a4a:	3020      	adds	r0, #32
 8000a4c:	e706      	b.n	800085c <__aeabi_dsub+0xc8>
 8000a4e:	430a      	orrs	r2, r1
 8000a50:	0017      	movs	r7, r2
 8000a52:	2100      	movs	r1, #0
 8000a54:	1e7a      	subs	r2, r7, #1
 8000a56:	4197      	sbcs	r7, r2
 8000a58:	e6ee      	b.n	8000838 <__aeabi_dsub+0xa4>
 8000a5a:	2b00      	cmp	r3, #0
 8000a5c:	d000      	beq.n	8000a60 <__aeabi_dsub+0x2cc>
 8000a5e:	e0e5      	b.n	8000c2c <__aeabi_dsub+0x498>
 8000a60:	1c73      	adds	r3, r6, #1
 8000a62:	469c      	mov	ip, r3
 8000a64:	055b      	lsls	r3, r3, #21
 8000a66:	0d5b      	lsrs	r3, r3, #21
 8000a68:	2b01      	cmp	r3, #1
 8000a6a:	dc00      	bgt.n	8000a6e <__aeabi_dsub+0x2da>
 8000a6c:	e09f      	b.n	8000bae <__aeabi_dsub+0x41a>
 8000a6e:	4b1a      	ldr	r3, [pc, #104]	; (8000ad8 <__aeabi_dsub+0x344>)
 8000a70:	459c      	cmp	ip, r3
 8000a72:	d100      	bne.n	8000a76 <__aeabi_dsub+0x2e2>
 8000a74:	e0c5      	b.n	8000c02 <__aeabi_dsub+0x46e>
 8000a76:	4452      	add	r2, sl
 8000a78:	4552      	cmp	r2, sl
 8000a7a:	4180      	sbcs	r0, r0
 8000a7c:	1864      	adds	r4, r4, r1
 8000a7e:	4240      	negs	r0, r0
 8000a80:	1824      	adds	r4, r4, r0
 8000a82:	07e7      	lsls	r7, r4, #31
 8000a84:	0852      	lsrs	r2, r2, #1
 8000a86:	4317      	orrs	r7, r2
 8000a88:	0864      	lsrs	r4, r4, #1
 8000a8a:	4666      	mov	r6, ip
 8000a8c:	e708      	b.n	80008a0 <__aeabi_dsub+0x10c>
 8000a8e:	4812      	ldr	r0, [pc, #72]	; (8000ad8 <__aeabi_dsub+0x344>)
 8000a90:	4285      	cmp	r5, r0
 8000a92:	d100      	bne.n	8000a96 <__aeabi_dsub+0x302>
 8000a94:	e085      	b.n	8000ba2 <__aeabi_dsub+0x40e>
 8000a96:	001d      	movs	r5, r3
 8000a98:	e6bc      	b.n	8000814 <__aeabi_dsub+0x80>
 8000a9a:	0029      	movs	r1, r5
 8000a9c:	3e1f      	subs	r6, #31
 8000a9e:	40f1      	lsrs	r1, r6
 8000aa0:	2b20      	cmp	r3, #32
 8000aa2:	d100      	bne.n	8000aa6 <__aeabi_dsub+0x312>
 8000aa4:	e07f      	b.n	8000ba6 <__aeabi_dsub+0x412>
 8000aa6:	2240      	movs	r2, #64	; 0x40
 8000aa8:	1ad3      	subs	r3, r2, r3
 8000aaa:	409d      	lsls	r5, r3
 8000aac:	432f      	orrs	r7, r5
 8000aae:	1e7d      	subs	r5, r7, #1
 8000ab0:	41af      	sbcs	r7, r5
 8000ab2:	2400      	movs	r4, #0
 8000ab4:	430f      	orrs	r7, r1
 8000ab6:	2600      	movs	r6, #0
 8000ab8:	e78e      	b.n	80009d8 <__aeabi_dsub+0x244>
 8000aba:	002b      	movs	r3, r5
 8000abc:	000f      	movs	r7, r1
 8000abe:	3b20      	subs	r3, #32
 8000ac0:	40df      	lsrs	r7, r3
 8000ac2:	2d20      	cmp	r5, #32
 8000ac4:	d071      	beq.n	8000baa <__aeabi_dsub+0x416>
 8000ac6:	2340      	movs	r3, #64	; 0x40
 8000ac8:	1b5d      	subs	r5, r3, r5
 8000aca:	40a9      	lsls	r1, r5
 8000acc:	430a      	orrs	r2, r1
 8000ace:	1e51      	subs	r1, r2, #1
 8000ad0:	418a      	sbcs	r2, r1
 8000ad2:	2100      	movs	r1, #0
 8000ad4:	4317      	orrs	r7, r2
 8000ad6:	e6af      	b.n	8000838 <__aeabi_dsub+0xa4>
 8000ad8:	000007ff 	.word	0x000007ff
 8000adc:	ff7fffff 	.word	0xff7fffff
 8000ae0:	800fffff 	.word	0x800fffff
 8000ae4:	2e00      	cmp	r6, #0
 8000ae6:	d03e      	beq.n	8000b66 <__aeabi_dsub+0x3d2>
 8000ae8:	4eb3      	ldr	r6, [pc, #716]	; (8000db8 <__aeabi_dsub+0x624>)
 8000aea:	45b4      	cmp	ip, r6
 8000aec:	d045      	beq.n	8000b7a <__aeabi_dsub+0x3e6>
 8000aee:	2680      	movs	r6, #128	; 0x80
 8000af0:	0436      	lsls	r6, r6, #16
 8000af2:	426d      	negs	r5, r5
 8000af4:	4334      	orrs	r4, r6
 8000af6:	2d38      	cmp	r5, #56	; 0x38
 8000af8:	dd00      	ble.n	8000afc <__aeabi_dsub+0x368>
 8000afa:	e0a8      	b.n	8000c4e <__aeabi_dsub+0x4ba>
 8000afc:	2d1f      	cmp	r5, #31
 8000afe:	dd00      	ble.n	8000b02 <__aeabi_dsub+0x36e>
 8000b00:	e11f      	b.n	8000d42 <__aeabi_dsub+0x5ae>
 8000b02:	2620      	movs	r6, #32
 8000b04:	0027      	movs	r7, r4
 8000b06:	4650      	mov	r0, sl
 8000b08:	1b76      	subs	r6, r6, r5
 8000b0a:	40b7      	lsls	r7, r6
 8000b0c:	40e8      	lsrs	r0, r5
 8000b0e:	4307      	orrs	r7, r0
 8000b10:	4650      	mov	r0, sl
 8000b12:	40b0      	lsls	r0, r6
 8000b14:	1e46      	subs	r6, r0, #1
 8000b16:	41b0      	sbcs	r0, r6
 8000b18:	40ec      	lsrs	r4, r5
 8000b1a:	4338      	orrs	r0, r7
 8000b1c:	1a17      	subs	r7, r2, r0
 8000b1e:	42ba      	cmp	r2, r7
 8000b20:	4192      	sbcs	r2, r2
 8000b22:	1b0c      	subs	r4, r1, r4
 8000b24:	4252      	negs	r2, r2
 8000b26:	1aa4      	subs	r4, r4, r2
 8000b28:	4666      	mov	r6, ip
 8000b2a:	4698      	mov	r8, r3
 8000b2c:	e68b      	b.n	8000846 <__aeabi_dsub+0xb2>
 8000b2e:	4664      	mov	r4, ip
 8000b30:	4667      	mov	r7, ip
 8000b32:	432c      	orrs	r4, r5
 8000b34:	d000      	beq.n	8000b38 <__aeabi_dsub+0x3a4>
 8000b36:	e68b      	b.n	8000850 <__aeabi_dsub+0xbc>
 8000b38:	2500      	movs	r5, #0
 8000b3a:	2600      	movs	r6, #0
 8000b3c:	2700      	movs	r7, #0
 8000b3e:	e6ea      	b.n	8000916 <__aeabi_dsub+0x182>
 8000b40:	001e      	movs	r6, r3
 8000b42:	e6ad      	b.n	80008a0 <__aeabi_dsub+0x10c>
 8000b44:	2b1f      	cmp	r3, #31
 8000b46:	dc60      	bgt.n	8000c0a <__aeabi_dsub+0x476>
 8000b48:	2720      	movs	r7, #32
 8000b4a:	1af8      	subs	r0, r7, r3
 8000b4c:	000f      	movs	r7, r1
 8000b4e:	4684      	mov	ip, r0
 8000b50:	4087      	lsls	r7, r0
 8000b52:	0010      	movs	r0, r2
 8000b54:	40d8      	lsrs	r0, r3
 8000b56:	4307      	orrs	r7, r0
 8000b58:	4660      	mov	r0, ip
 8000b5a:	4082      	lsls	r2, r0
 8000b5c:	1e50      	subs	r0, r2, #1
 8000b5e:	4182      	sbcs	r2, r0
 8000b60:	40d9      	lsrs	r1, r3
 8000b62:	4317      	orrs	r7, r2
 8000b64:	e6f5      	b.n	8000952 <__aeabi_dsub+0x1be>
 8000b66:	0026      	movs	r6, r4
 8000b68:	4650      	mov	r0, sl
 8000b6a:	4306      	orrs	r6, r0
 8000b6c:	d005      	beq.n	8000b7a <__aeabi_dsub+0x3e6>
 8000b6e:	43ed      	mvns	r5, r5
 8000b70:	2d00      	cmp	r5, #0
 8000b72:	d0d3      	beq.n	8000b1c <__aeabi_dsub+0x388>
 8000b74:	4e90      	ldr	r6, [pc, #576]	; (8000db8 <__aeabi_dsub+0x624>)
 8000b76:	45b4      	cmp	ip, r6
 8000b78:	d1bd      	bne.n	8000af6 <__aeabi_dsub+0x362>
 8000b7a:	000c      	movs	r4, r1
 8000b7c:	0017      	movs	r7, r2
 8000b7e:	4666      	mov	r6, ip
 8000b80:	4698      	mov	r8, r3
 8000b82:	e68d      	b.n	80008a0 <__aeabi_dsub+0x10c>
 8000b84:	488c      	ldr	r0, [pc, #560]	; (8000db8 <__aeabi_dsub+0x624>)
 8000b86:	4283      	cmp	r3, r0
 8000b88:	d00b      	beq.n	8000ba2 <__aeabi_dsub+0x40e>
 8000b8a:	4663      	mov	r3, ip
 8000b8c:	e6d9      	b.n	8000942 <__aeabi_dsub+0x1ae>
 8000b8e:	2d00      	cmp	r5, #0
 8000b90:	d000      	beq.n	8000b94 <__aeabi_dsub+0x400>
 8000b92:	e096      	b.n	8000cc2 <__aeabi_dsub+0x52e>
 8000b94:	0008      	movs	r0, r1
 8000b96:	4310      	orrs	r0, r2
 8000b98:	d100      	bne.n	8000b9c <__aeabi_dsub+0x408>
 8000b9a:	e0e2      	b.n	8000d62 <__aeabi_dsub+0x5ce>
 8000b9c:	000c      	movs	r4, r1
 8000b9e:	0017      	movs	r7, r2
 8000ba0:	4698      	mov	r8, r3
 8000ba2:	4e85      	ldr	r6, [pc, #532]	; (8000db8 <__aeabi_dsub+0x624>)
 8000ba4:	e67c      	b.n	80008a0 <__aeabi_dsub+0x10c>
 8000ba6:	2500      	movs	r5, #0
 8000ba8:	e780      	b.n	8000aac <__aeabi_dsub+0x318>
 8000baa:	2100      	movs	r1, #0
 8000bac:	e78e      	b.n	8000acc <__aeabi_dsub+0x338>
 8000bae:	0023      	movs	r3, r4
 8000bb0:	4650      	mov	r0, sl
 8000bb2:	4303      	orrs	r3, r0
 8000bb4:	2e00      	cmp	r6, #0
 8000bb6:	d000      	beq.n	8000bba <__aeabi_dsub+0x426>
 8000bb8:	e0a8      	b.n	8000d0c <__aeabi_dsub+0x578>
 8000bba:	2b00      	cmp	r3, #0
 8000bbc:	d100      	bne.n	8000bc0 <__aeabi_dsub+0x42c>
 8000bbe:	e0de      	b.n	8000d7e <__aeabi_dsub+0x5ea>
 8000bc0:	000b      	movs	r3, r1
 8000bc2:	4313      	orrs	r3, r2
 8000bc4:	d100      	bne.n	8000bc8 <__aeabi_dsub+0x434>
 8000bc6:	e66b      	b.n	80008a0 <__aeabi_dsub+0x10c>
 8000bc8:	4452      	add	r2, sl
 8000bca:	4552      	cmp	r2, sl
 8000bcc:	4180      	sbcs	r0, r0
 8000bce:	1864      	adds	r4, r4, r1
 8000bd0:	4240      	negs	r0, r0
 8000bd2:	1824      	adds	r4, r4, r0
 8000bd4:	0017      	movs	r7, r2
 8000bd6:	0223      	lsls	r3, r4, #8
 8000bd8:	d400      	bmi.n	8000bdc <__aeabi_dsub+0x448>
 8000bda:	e6fd      	b.n	80009d8 <__aeabi_dsub+0x244>
 8000bdc:	4b77      	ldr	r3, [pc, #476]	; (8000dbc <__aeabi_dsub+0x628>)
 8000bde:	4666      	mov	r6, ip
 8000be0:	401c      	ands	r4, r3
 8000be2:	e65d      	b.n	80008a0 <__aeabi_dsub+0x10c>
 8000be4:	0025      	movs	r5, r4
 8000be6:	4650      	mov	r0, sl
 8000be8:	4305      	orrs	r5, r0
 8000bea:	2e00      	cmp	r6, #0
 8000bec:	d1cf      	bne.n	8000b8e <__aeabi_dsub+0x3fa>
 8000bee:	2d00      	cmp	r5, #0
 8000bf0:	d14f      	bne.n	8000c92 <__aeabi_dsub+0x4fe>
 8000bf2:	000c      	movs	r4, r1
 8000bf4:	4314      	orrs	r4, r2
 8000bf6:	d100      	bne.n	8000bfa <__aeabi_dsub+0x466>
 8000bf8:	e0a0      	b.n	8000d3c <__aeabi_dsub+0x5a8>
 8000bfa:	000c      	movs	r4, r1
 8000bfc:	0017      	movs	r7, r2
 8000bfe:	4698      	mov	r8, r3
 8000c00:	e64e      	b.n	80008a0 <__aeabi_dsub+0x10c>
 8000c02:	4666      	mov	r6, ip
 8000c04:	2400      	movs	r4, #0
 8000c06:	2700      	movs	r7, #0
 8000c08:	e685      	b.n	8000916 <__aeabi_dsub+0x182>
 8000c0a:	001f      	movs	r7, r3
 8000c0c:	0008      	movs	r0, r1
 8000c0e:	3f20      	subs	r7, #32
 8000c10:	40f8      	lsrs	r0, r7
 8000c12:	0007      	movs	r7, r0
 8000c14:	2b20      	cmp	r3, #32
 8000c16:	d100      	bne.n	8000c1a <__aeabi_dsub+0x486>
 8000c18:	e08e      	b.n	8000d38 <__aeabi_dsub+0x5a4>
 8000c1a:	2040      	movs	r0, #64	; 0x40
 8000c1c:	1ac3      	subs	r3, r0, r3
 8000c1e:	4099      	lsls	r1, r3
 8000c20:	430a      	orrs	r2, r1
 8000c22:	1e51      	subs	r1, r2, #1
 8000c24:	418a      	sbcs	r2, r1
 8000c26:	2100      	movs	r1, #0
 8000c28:	4317      	orrs	r7, r2
 8000c2a:	e692      	b.n	8000952 <__aeabi_dsub+0x1be>
 8000c2c:	2e00      	cmp	r6, #0
 8000c2e:	d114      	bne.n	8000c5a <__aeabi_dsub+0x4c6>
 8000c30:	0026      	movs	r6, r4
 8000c32:	4650      	mov	r0, sl
 8000c34:	4306      	orrs	r6, r0
 8000c36:	d062      	beq.n	8000cfe <__aeabi_dsub+0x56a>
 8000c38:	43db      	mvns	r3, r3
 8000c3a:	2b00      	cmp	r3, #0
 8000c3c:	d15c      	bne.n	8000cf8 <__aeabi_dsub+0x564>
 8000c3e:	1887      	adds	r7, r0, r2
 8000c40:	4297      	cmp	r7, r2
 8000c42:	4192      	sbcs	r2, r2
 8000c44:	1864      	adds	r4, r4, r1
 8000c46:	4252      	negs	r2, r2
 8000c48:	18a4      	adds	r4, r4, r2
 8000c4a:	4666      	mov	r6, ip
 8000c4c:	e687      	b.n	800095e <__aeabi_dsub+0x1ca>
 8000c4e:	4650      	mov	r0, sl
 8000c50:	4320      	orrs	r0, r4
 8000c52:	1e44      	subs	r4, r0, #1
 8000c54:	41a0      	sbcs	r0, r4
 8000c56:	2400      	movs	r4, #0
 8000c58:	e760      	b.n	8000b1c <__aeabi_dsub+0x388>
 8000c5a:	4e57      	ldr	r6, [pc, #348]	; (8000db8 <__aeabi_dsub+0x624>)
 8000c5c:	45b4      	cmp	ip, r6
 8000c5e:	d04e      	beq.n	8000cfe <__aeabi_dsub+0x56a>
 8000c60:	2680      	movs	r6, #128	; 0x80
 8000c62:	0436      	lsls	r6, r6, #16
 8000c64:	425b      	negs	r3, r3
 8000c66:	4334      	orrs	r4, r6
 8000c68:	2b38      	cmp	r3, #56	; 0x38
 8000c6a:	dd00      	ble.n	8000c6e <__aeabi_dsub+0x4da>
 8000c6c:	e07f      	b.n	8000d6e <__aeabi_dsub+0x5da>
 8000c6e:	2b1f      	cmp	r3, #31
 8000c70:	dd00      	ble.n	8000c74 <__aeabi_dsub+0x4e0>
 8000c72:	e08b      	b.n	8000d8c <__aeabi_dsub+0x5f8>
 8000c74:	2620      	movs	r6, #32
 8000c76:	0027      	movs	r7, r4
 8000c78:	4650      	mov	r0, sl
 8000c7a:	1af6      	subs	r6, r6, r3
 8000c7c:	40b7      	lsls	r7, r6
 8000c7e:	40d8      	lsrs	r0, r3
 8000c80:	4307      	orrs	r7, r0
 8000c82:	4650      	mov	r0, sl
 8000c84:	40b0      	lsls	r0, r6
 8000c86:	1e46      	subs	r6, r0, #1
 8000c88:	41b0      	sbcs	r0, r6
 8000c8a:	4307      	orrs	r7, r0
 8000c8c:	40dc      	lsrs	r4, r3
 8000c8e:	18bf      	adds	r7, r7, r2
 8000c90:	e7d6      	b.n	8000c40 <__aeabi_dsub+0x4ac>
 8000c92:	000d      	movs	r5, r1
 8000c94:	4315      	orrs	r5, r2
 8000c96:	d100      	bne.n	8000c9a <__aeabi_dsub+0x506>
 8000c98:	e602      	b.n	80008a0 <__aeabi_dsub+0x10c>
 8000c9a:	4650      	mov	r0, sl
 8000c9c:	1a80      	subs	r0, r0, r2
 8000c9e:	4582      	cmp	sl, r0
 8000ca0:	41bf      	sbcs	r7, r7
 8000ca2:	1a65      	subs	r5, r4, r1
 8000ca4:	427f      	negs	r7, r7
 8000ca6:	1bed      	subs	r5, r5, r7
 8000ca8:	4684      	mov	ip, r0
 8000caa:	0228      	lsls	r0, r5, #8
 8000cac:	d400      	bmi.n	8000cb0 <__aeabi_dsub+0x51c>
 8000cae:	e68d      	b.n	80009cc <__aeabi_dsub+0x238>
 8000cb0:	4650      	mov	r0, sl
 8000cb2:	1a17      	subs	r7, r2, r0
 8000cb4:	42ba      	cmp	r2, r7
 8000cb6:	4192      	sbcs	r2, r2
 8000cb8:	1b0c      	subs	r4, r1, r4
 8000cba:	4252      	negs	r2, r2
 8000cbc:	1aa4      	subs	r4, r4, r2
 8000cbe:	4698      	mov	r8, r3
 8000cc0:	e5ee      	b.n	80008a0 <__aeabi_dsub+0x10c>
 8000cc2:	000d      	movs	r5, r1
 8000cc4:	4315      	orrs	r5, r2
 8000cc6:	d100      	bne.n	8000cca <__aeabi_dsub+0x536>
 8000cc8:	e76b      	b.n	8000ba2 <__aeabi_dsub+0x40e>
 8000cca:	4650      	mov	r0, sl
 8000ccc:	0767      	lsls	r7, r4, #29
 8000cce:	08c0      	lsrs	r0, r0, #3
 8000cd0:	4307      	orrs	r7, r0
 8000cd2:	2080      	movs	r0, #128	; 0x80
 8000cd4:	08e4      	lsrs	r4, r4, #3
 8000cd6:	0300      	lsls	r0, r0, #12
 8000cd8:	4204      	tst	r4, r0
 8000cda:	d007      	beq.n	8000cec <__aeabi_dsub+0x558>
 8000cdc:	08cd      	lsrs	r5, r1, #3
 8000cde:	4205      	tst	r5, r0
 8000ce0:	d104      	bne.n	8000cec <__aeabi_dsub+0x558>
 8000ce2:	002c      	movs	r4, r5
 8000ce4:	4698      	mov	r8, r3
 8000ce6:	08d7      	lsrs	r7, r2, #3
 8000ce8:	0749      	lsls	r1, r1, #29
 8000cea:	430f      	orrs	r7, r1
 8000cec:	0f7b      	lsrs	r3, r7, #29
 8000cee:	00e4      	lsls	r4, r4, #3
 8000cf0:	431c      	orrs	r4, r3
 8000cf2:	00ff      	lsls	r7, r7, #3
 8000cf4:	4e30      	ldr	r6, [pc, #192]	; (8000db8 <__aeabi_dsub+0x624>)
 8000cf6:	e5d3      	b.n	80008a0 <__aeabi_dsub+0x10c>
 8000cf8:	4e2f      	ldr	r6, [pc, #188]	; (8000db8 <__aeabi_dsub+0x624>)
 8000cfa:	45b4      	cmp	ip, r6
 8000cfc:	d1b4      	bne.n	8000c68 <__aeabi_dsub+0x4d4>
 8000cfe:	000c      	movs	r4, r1
 8000d00:	0017      	movs	r7, r2
 8000d02:	4666      	mov	r6, ip
 8000d04:	e5cc      	b.n	80008a0 <__aeabi_dsub+0x10c>
 8000d06:	2700      	movs	r7, #0
 8000d08:	2400      	movs	r4, #0
 8000d0a:	e5e8      	b.n	80008de <__aeabi_dsub+0x14a>
 8000d0c:	2b00      	cmp	r3, #0
 8000d0e:	d039      	beq.n	8000d84 <__aeabi_dsub+0x5f0>
 8000d10:	000b      	movs	r3, r1
 8000d12:	4313      	orrs	r3, r2
 8000d14:	d100      	bne.n	8000d18 <__aeabi_dsub+0x584>
 8000d16:	e744      	b.n	8000ba2 <__aeabi_dsub+0x40e>
 8000d18:	08c0      	lsrs	r0, r0, #3
 8000d1a:	0767      	lsls	r7, r4, #29
 8000d1c:	4307      	orrs	r7, r0
 8000d1e:	2080      	movs	r0, #128	; 0x80
 8000d20:	08e4      	lsrs	r4, r4, #3
 8000d22:	0300      	lsls	r0, r0, #12
 8000d24:	4204      	tst	r4, r0
 8000d26:	d0e1      	beq.n	8000cec <__aeabi_dsub+0x558>
 8000d28:	08cb      	lsrs	r3, r1, #3
 8000d2a:	4203      	tst	r3, r0
 8000d2c:	d1de      	bne.n	8000cec <__aeabi_dsub+0x558>
 8000d2e:	08d7      	lsrs	r7, r2, #3
 8000d30:	0749      	lsls	r1, r1, #29
 8000d32:	430f      	orrs	r7, r1
 8000d34:	001c      	movs	r4, r3
 8000d36:	e7d9      	b.n	8000cec <__aeabi_dsub+0x558>
 8000d38:	2100      	movs	r1, #0
 8000d3a:	e771      	b.n	8000c20 <__aeabi_dsub+0x48c>
 8000d3c:	2500      	movs	r5, #0
 8000d3e:	2700      	movs	r7, #0
 8000d40:	e5e9      	b.n	8000916 <__aeabi_dsub+0x182>
 8000d42:	002e      	movs	r6, r5
 8000d44:	0027      	movs	r7, r4
 8000d46:	3e20      	subs	r6, #32
 8000d48:	40f7      	lsrs	r7, r6
 8000d4a:	2d20      	cmp	r5, #32
 8000d4c:	d02f      	beq.n	8000dae <__aeabi_dsub+0x61a>
 8000d4e:	2640      	movs	r6, #64	; 0x40
 8000d50:	1b75      	subs	r5, r6, r5
 8000d52:	40ac      	lsls	r4, r5
 8000d54:	4650      	mov	r0, sl
 8000d56:	4320      	orrs	r0, r4
 8000d58:	1e44      	subs	r4, r0, #1
 8000d5a:	41a0      	sbcs	r0, r4
 8000d5c:	2400      	movs	r4, #0
 8000d5e:	4338      	orrs	r0, r7
 8000d60:	e6dc      	b.n	8000b1c <__aeabi_dsub+0x388>
 8000d62:	2480      	movs	r4, #128	; 0x80
 8000d64:	2500      	movs	r5, #0
 8000d66:	0324      	lsls	r4, r4, #12
 8000d68:	4e13      	ldr	r6, [pc, #76]	; (8000db8 <__aeabi_dsub+0x624>)
 8000d6a:	2700      	movs	r7, #0
 8000d6c:	e5d3      	b.n	8000916 <__aeabi_dsub+0x182>
 8000d6e:	4650      	mov	r0, sl
 8000d70:	4320      	orrs	r0, r4
 8000d72:	0007      	movs	r7, r0
 8000d74:	1e78      	subs	r0, r7, #1
 8000d76:	4187      	sbcs	r7, r0
 8000d78:	2400      	movs	r4, #0
 8000d7a:	18bf      	adds	r7, r7, r2
 8000d7c:	e760      	b.n	8000c40 <__aeabi_dsub+0x4ac>
 8000d7e:	000c      	movs	r4, r1
 8000d80:	0017      	movs	r7, r2
 8000d82:	e58d      	b.n	80008a0 <__aeabi_dsub+0x10c>
 8000d84:	000c      	movs	r4, r1
 8000d86:	0017      	movs	r7, r2
 8000d88:	4e0b      	ldr	r6, [pc, #44]	; (8000db8 <__aeabi_dsub+0x624>)
 8000d8a:	e589      	b.n	80008a0 <__aeabi_dsub+0x10c>
 8000d8c:	001e      	movs	r6, r3
 8000d8e:	0027      	movs	r7, r4
 8000d90:	3e20      	subs	r6, #32
 8000d92:	40f7      	lsrs	r7, r6
 8000d94:	2b20      	cmp	r3, #32
 8000d96:	d00c      	beq.n	8000db2 <__aeabi_dsub+0x61e>
 8000d98:	2640      	movs	r6, #64	; 0x40
 8000d9a:	1af3      	subs	r3, r6, r3
 8000d9c:	409c      	lsls	r4, r3
 8000d9e:	4650      	mov	r0, sl
 8000da0:	4320      	orrs	r0, r4
 8000da2:	1e44      	subs	r4, r0, #1
 8000da4:	41a0      	sbcs	r0, r4
 8000da6:	4307      	orrs	r7, r0
 8000da8:	2400      	movs	r4, #0
 8000daa:	18bf      	adds	r7, r7, r2
 8000dac:	e748      	b.n	8000c40 <__aeabi_dsub+0x4ac>
 8000dae:	2400      	movs	r4, #0
 8000db0:	e7d0      	b.n	8000d54 <__aeabi_dsub+0x5c0>
 8000db2:	2400      	movs	r4, #0
 8000db4:	e7f3      	b.n	8000d9e <__aeabi_dsub+0x60a>
 8000db6:	46c0      	nop			; (mov r8, r8)
 8000db8:	000007ff 	.word	0x000007ff
 8000dbc:	ff7fffff 	.word	0xff7fffff

08000dc0 <__aeabi_d2iz>:
 8000dc0:	b530      	push	{r4, r5, lr}
 8000dc2:	4d13      	ldr	r5, [pc, #76]	; (8000e10 <__aeabi_d2iz+0x50>)
 8000dc4:	030a      	lsls	r2, r1, #12
 8000dc6:	004b      	lsls	r3, r1, #1
 8000dc8:	0b12      	lsrs	r2, r2, #12
 8000dca:	0d5b      	lsrs	r3, r3, #21
 8000dcc:	0fc9      	lsrs	r1, r1, #31
 8000dce:	2400      	movs	r4, #0
 8000dd0:	42ab      	cmp	r3, r5
 8000dd2:	dd10      	ble.n	8000df6 <__aeabi_d2iz+0x36>
 8000dd4:	4c0f      	ldr	r4, [pc, #60]	; (8000e14 <__aeabi_d2iz+0x54>)
 8000dd6:	42a3      	cmp	r3, r4
 8000dd8:	dc0f      	bgt.n	8000dfa <__aeabi_d2iz+0x3a>
 8000dda:	2480      	movs	r4, #128	; 0x80
 8000ddc:	4d0e      	ldr	r5, [pc, #56]	; (8000e18 <__aeabi_d2iz+0x58>)
 8000dde:	0364      	lsls	r4, r4, #13
 8000de0:	4322      	orrs	r2, r4
 8000de2:	1aed      	subs	r5, r5, r3
 8000de4:	2d1f      	cmp	r5, #31
 8000de6:	dd0b      	ble.n	8000e00 <__aeabi_d2iz+0x40>
 8000de8:	480c      	ldr	r0, [pc, #48]	; (8000e1c <__aeabi_d2iz+0x5c>)
 8000dea:	1ac3      	subs	r3, r0, r3
 8000dec:	40da      	lsrs	r2, r3
 8000dee:	4254      	negs	r4, r2
 8000df0:	2900      	cmp	r1, #0
 8000df2:	d100      	bne.n	8000df6 <__aeabi_d2iz+0x36>
 8000df4:	0014      	movs	r4, r2
 8000df6:	0020      	movs	r0, r4
 8000df8:	bd30      	pop	{r4, r5, pc}
 8000dfa:	4b09      	ldr	r3, [pc, #36]	; (8000e20 <__aeabi_d2iz+0x60>)
 8000dfc:	18cc      	adds	r4, r1, r3
 8000dfe:	e7fa      	b.n	8000df6 <__aeabi_d2iz+0x36>
 8000e00:	4c08      	ldr	r4, [pc, #32]	; (8000e24 <__aeabi_d2iz+0x64>)
 8000e02:	40e8      	lsrs	r0, r5
 8000e04:	46a4      	mov	ip, r4
 8000e06:	4463      	add	r3, ip
 8000e08:	409a      	lsls	r2, r3
 8000e0a:	4302      	orrs	r2, r0
 8000e0c:	e7ef      	b.n	8000dee <__aeabi_d2iz+0x2e>
 8000e0e:	46c0      	nop			; (mov r8, r8)
 8000e10:	000003fe 	.word	0x000003fe
 8000e14:	0000041d 	.word	0x0000041d
 8000e18:	00000433 	.word	0x00000433
 8000e1c:	00000413 	.word	0x00000413
 8000e20:	7fffffff 	.word	0x7fffffff
 8000e24:	fffffbed 	.word	0xfffffbed

08000e28 <__aeabi_ui2d>:
 8000e28:	b510      	push	{r4, lr}
 8000e2a:	1e04      	subs	r4, r0, #0
 8000e2c:	d028      	beq.n	8000e80 <__aeabi_ui2d+0x58>
 8000e2e:	f000 f871 	bl	8000f14 <__clzsi2>
 8000e32:	4b15      	ldr	r3, [pc, #84]	; (8000e88 <__aeabi_ui2d+0x60>)
 8000e34:	4a15      	ldr	r2, [pc, #84]	; (8000e8c <__aeabi_ui2d+0x64>)
 8000e36:	1a1b      	subs	r3, r3, r0
 8000e38:	1ad2      	subs	r2, r2, r3
 8000e3a:	2a1f      	cmp	r2, #31
 8000e3c:	dd15      	ble.n	8000e6a <__aeabi_ui2d+0x42>
 8000e3e:	4a14      	ldr	r2, [pc, #80]	; (8000e90 <__aeabi_ui2d+0x68>)
 8000e40:	1ad2      	subs	r2, r2, r3
 8000e42:	4094      	lsls	r4, r2
 8000e44:	2200      	movs	r2, #0
 8000e46:	0324      	lsls	r4, r4, #12
 8000e48:	055b      	lsls	r3, r3, #21
 8000e4a:	0b24      	lsrs	r4, r4, #12
 8000e4c:	0d5b      	lsrs	r3, r3, #21
 8000e4e:	2100      	movs	r1, #0
 8000e50:	0010      	movs	r0, r2
 8000e52:	0324      	lsls	r4, r4, #12
 8000e54:	0d0a      	lsrs	r2, r1, #20
 8000e56:	0b24      	lsrs	r4, r4, #12
 8000e58:	0512      	lsls	r2, r2, #20
 8000e5a:	4322      	orrs	r2, r4
 8000e5c:	4c0d      	ldr	r4, [pc, #52]	; (8000e94 <__aeabi_ui2d+0x6c>)
 8000e5e:	051b      	lsls	r3, r3, #20
 8000e60:	4022      	ands	r2, r4
 8000e62:	4313      	orrs	r3, r2
 8000e64:	005b      	lsls	r3, r3, #1
 8000e66:	0859      	lsrs	r1, r3, #1
 8000e68:	bd10      	pop	{r4, pc}
 8000e6a:	0021      	movs	r1, r4
 8000e6c:	4091      	lsls	r1, r2
 8000e6e:	000a      	movs	r2, r1
 8000e70:	210b      	movs	r1, #11
 8000e72:	1a08      	subs	r0, r1, r0
 8000e74:	40c4      	lsrs	r4, r0
 8000e76:	055b      	lsls	r3, r3, #21
 8000e78:	0324      	lsls	r4, r4, #12
 8000e7a:	0b24      	lsrs	r4, r4, #12
 8000e7c:	0d5b      	lsrs	r3, r3, #21
 8000e7e:	e7e6      	b.n	8000e4e <__aeabi_ui2d+0x26>
 8000e80:	2300      	movs	r3, #0
 8000e82:	2400      	movs	r4, #0
 8000e84:	2200      	movs	r2, #0
 8000e86:	e7e2      	b.n	8000e4e <__aeabi_ui2d+0x26>
 8000e88:	0000041e 	.word	0x0000041e
 8000e8c:	00000433 	.word	0x00000433
 8000e90:	00000413 	.word	0x00000413
 8000e94:	800fffff 	.word	0x800fffff

08000e98 <__aeabi_cdrcmple>:
 8000e98:	4684      	mov	ip, r0
 8000e9a:	1c10      	adds	r0, r2, #0
 8000e9c:	4662      	mov	r2, ip
 8000e9e:	468c      	mov	ip, r1
 8000ea0:	1c19      	adds	r1, r3, #0
 8000ea2:	4663      	mov	r3, ip
 8000ea4:	e000      	b.n	8000ea8 <__aeabi_cdcmpeq>
 8000ea6:	46c0      	nop			; (mov r8, r8)

08000ea8 <__aeabi_cdcmpeq>:
 8000ea8:	b51f      	push	{r0, r1, r2, r3, r4, lr}
 8000eaa:	f000 f8ef 	bl	800108c <__ledf2>
 8000eae:	2800      	cmp	r0, #0
 8000eb0:	d401      	bmi.n	8000eb6 <__aeabi_cdcmpeq+0xe>
 8000eb2:	2100      	movs	r1, #0
 8000eb4:	42c8      	cmn	r0, r1
 8000eb6:	bd1f      	pop	{r0, r1, r2, r3, r4, pc}

08000eb8 <__aeabi_dcmpeq>:
 8000eb8:	b510      	push	{r4, lr}
 8000eba:	f000 f849 	bl	8000f50 <__eqdf2>
 8000ebe:	4240      	negs	r0, r0
 8000ec0:	3001      	adds	r0, #1
 8000ec2:	bd10      	pop	{r4, pc}

08000ec4 <__aeabi_dcmplt>:
 8000ec4:	b510      	push	{r4, lr}
 8000ec6:	f000 f8e1 	bl	800108c <__ledf2>
 8000eca:	2800      	cmp	r0, #0
 8000ecc:	db01      	blt.n	8000ed2 <__aeabi_dcmplt+0xe>
 8000ece:	2000      	movs	r0, #0
 8000ed0:	bd10      	pop	{r4, pc}
 8000ed2:	2001      	movs	r0, #1
 8000ed4:	bd10      	pop	{r4, pc}
 8000ed6:	46c0      	nop			; (mov r8, r8)

08000ed8 <__aeabi_dcmple>:
 8000ed8:	b510      	push	{r4, lr}
 8000eda:	f000 f8d7 	bl	800108c <__ledf2>
 8000ede:	2800      	cmp	r0, #0
 8000ee0:	dd01      	ble.n	8000ee6 <__aeabi_dcmple+0xe>
 8000ee2:	2000      	movs	r0, #0
 8000ee4:	bd10      	pop	{r4, pc}
 8000ee6:	2001      	movs	r0, #1
 8000ee8:	bd10      	pop	{r4, pc}
 8000eea:	46c0      	nop			; (mov r8, r8)

08000eec <__aeabi_dcmpgt>:
 8000eec:	b510      	push	{r4, lr}
 8000eee:	f000 f869 	bl	8000fc4 <__gedf2>
 8000ef2:	2800      	cmp	r0, #0
 8000ef4:	dc01      	bgt.n	8000efa <__aeabi_dcmpgt+0xe>
 8000ef6:	2000      	movs	r0, #0
 8000ef8:	bd10      	pop	{r4, pc}
 8000efa:	2001      	movs	r0, #1
 8000efc:	bd10      	pop	{r4, pc}
 8000efe:	46c0      	nop			; (mov r8, r8)

08000f00 <__aeabi_dcmpge>:
 8000f00:	b510      	push	{r4, lr}
 8000f02:	f000 f85f 	bl	8000fc4 <__gedf2>
 8000f06:	2800      	cmp	r0, #0
 8000f08:	da01      	bge.n	8000f0e <__aeabi_dcmpge+0xe>
 8000f0a:	2000      	movs	r0, #0
 8000f0c:	bd10      	pop	{r4, pc}
 8000f0e:	2001      	movs	r0, #1
 8000f10:	bd10      	pop	{r4, pc}
 8000f12:	46c0      	nop			; (mov r8, r8)

08000f14 <__clzsi2>:
 8000f14:	211c      	movs	r1, #28
 8000f16:	2301      	movs	r3, #1
 8000f18:	041b      	lsls	r3, r3, #16
 8000f1a:	4298      	cmp	r0, r3
 8000f1c:	d301      	bcc.n	8000f22 <__clzsi2+0xe>
 8000f1e:	0c00      	lsrs	r0, r0, #16
 8000f20:	3910      	subs	r1, #16
 8000f22:	0a1b      	lsrs	r3, r3, #8
 8000f24:	4298      	cmp	r0, r3
 8000f26:	d301      	bcc.n	8000f2c <__clzsi2+0x18>
 8000f28:	0a00      	lsrs	r0, r0, #8
 8000f2a:	3908      	subs	r1, #8
 8000f2c:	091b      	lsrs	r3, r3, #4
 8000f2e:	4298      	cmp	r0, r3
 8000f30:	d301      	bcc.n	8000f36 <__clzsi2+0x22>
 8000f32:	0900      	lsrs	r0, r0, #4
 8000f34:	3904      	subs	r1, #4
 8000f36:	a202      	add	r2, pc, #8	; (adr r2, 8000f40 <__clzsi2+0x2c>)
 8000f38:	5c10      	ldrb	r0, [r2, r0]
 8000f3a:	1840      	adds	r0, r0, r1
 8000f3c:	4770      	bx	lr
 8000f3e:	46c0      	nop			; (mov r8, r8)
 8000f40:	02020304 	.word	0x02020304
 8000f44:	01010101 	.word	0x01010101
	...

08000f50 <__eqdf2>:
 8000f50:	b5f0      	push	{r4, r5, r6, r7, lr}
 8000f52:	464f      	mov	r7, r9
 8000f54:	4646      	mov	r6, r8
 8000f56:	46d6      	mov	lr, sl
 8000f58:	005c      	lsls	r4, r3, #1
 8000f5a:	b5c0      	push	{r6, r7, lr}
 8000f5c:	031f      	lsls	r7, r3, #12
 8000f5e:	0fdb      	lsrs	r3, r3, #31
 8000f60:	469a      	mov	sl, r3
 8000f62:	4b17      	ldr	r3, [pc, #92]	; (8000fc0 <__eqdf2+0x70>)
 8000f64:	030e      	lsls	r6, r1, #12
 8000f66:	004d      	lsls	r5, r1, #1
 8000f68:	4684      	mov	ip, r0
 8000f6a:	4680      	mov	r8, r0
 8000f6c:	0b36      	lsrs	r6, r6, #12
 8000f6e:	0d6d      	lsrs	r5, r5, #21
 8000f70:	0fc9      	lsrs	r1, r1, #31
 8000f72:	4691      	mov	r9, r2
 8000f74:	0b3f      	lsrs	r7, r7, #12
 8000f76:	0d64      	lsrs	r4, r4, #21
 8000f78:	2001      	movs	r0, #1
 8000f7a:	429d      	cmp	r5, r3
 8000f7c:	d008      	beq.n	8000f90 <__eqdf2+0x40>
 8000f7e:	429c      	cmp	r4, r3
 8000f80:	d001      	beq.n	8000f86 <__eqdf2+0x36>
 8000f82:	42a5      	cmp	r5, r4
 8000f84:	d00b      	beq.n	8000f9e <__eqdf2+0x4e>
 8000f86:	bc1c      	pop	{r2, r3, r4}
 8000f88:	4690      	mov	r8, r2
 8000f8a:	4699      	mov	r9, r3
 8000f8c:	46a2      	mov	sl, r4
 8000f8e:	bdf0      	pop	{r4, r5, r6, r7, pc}
 8000f90:	4663      	mov	r3, ip
 8000f92:	4333      	orrs	r3, r6
 8000f94:	d1f7      	bne.n	8000f86 <__eqdf2+0x36>
 8000f96:	42ac      	cmp	r4, r5
 8000f98:	d1f5      	bne.n	8000f86 <__eqdf2+0x36>
 8000f9a:	433a      	orrs	r2, r7
 8000f9c:	d1f3      	bne.n	8000f86 <__eqdf2+0x36>
 8000f9e:	2001      	movs	r0, #1
 8000fa0:	42be      	cmp	r6, r7
 8000fa2:	d1f0      	bne.n	8000f86 <__eqdf2+0x36>
 8000fa4:	45c8      	cmp	r8, r9
 8000fa6:	d1ee      	bne.n	8000f86 <__eqdf2+0x36>
 8000fa8:	4551      	cmp	r1, sl
 8000faa:	d007      	beq.n	8000fbc <__eqdf2+0x6c>
 8000fac:	2d00      	cmp	r5, #0
 8000fae:	d1ea      	bne.n	8000f86 <__eqdf2+0x36>
 8000fb0:	4663      	mov	r3, ip
 8000fb2:	431e      	orrs	r6, r3
 8000fb4:	0030      	movs	r0, r6
 8000fb6:	1e46      	subs	r6, r0, #1
 8000fb8:	41b0      	sbcs	r0, r6
 8000fba:	e7e4      	b.n	8000f86 <__eqdf2+0x36>
 8000fbc:	2000      	movs	r0, #0
 8000fbe:	e7e2      	b.n	8000f86 <__eqdf2+0x36>
 8000fc0:	000007ff 	.word	0x000007ff

08000fc4 <__gedf2>:
 8000fc4:	b5f0      	push	{r4, r5, r6, r7, lr}
 8000fc6:	4645      	mov	r5, r8
 8000fc8:	46de      	mov	lr, fp
 8000fca:	4657      	mov	r7, sl
 8000fcc:	464e      	mov	r6, r9
 8000fce:	b5e0      	push	{r5, r6, r7, lr}
 8000fd0:	031f      	lsls	r7, r3, #12
 8000fd2:	0b3d      	lsrs	r5, r7, #12
 8000fd4:	4f2c      	ldr	r7, [pc, #176]	; (8001088 <__gedf2+0xc4>)
 8000fd6:	030e      	lsls	r6, r1, #12
 8000fd8:	004c      	lsls	r4, r1, #1
 8000fda:	46ab      	mov	fp, r5
 8000fdc:	005d      	lsls	r5, r3, #1
 8000fde:	4684      	mov	ip, r0
 8000fe0:	0b36      	lsrs	r6, r6, #12
 8000fe2:	0d64      	lsrs	r4, r4, #21
 8000fe4:	0fc9      	lsrs	r1, r1, #31
 8000fe6:	4690      	mov	r8, r2
 8000fe8:	0d6d      	lsrs	r5, r5, #21
 8000fea:	0fdb      	lsrs	r3, r3, #31
 8000fec:	42bc      	cmp	r4, r7
 8000fee:	d02a      	beq.n	8001046 <__gedf2+0x82>
 8000ff0:	4f25      	ldr	r7, [pc, #148]	; (8001088 <__gedf2+0xc4>)
 8000ff2:	42bd      	cmp	r5, r7
 8000ff4:	d02d      	beq.n	8001052 <__gedf2+0x8e>
 8000ff6:	2c00      	cmp	r4, #0
 8000ff8:	d10f      	bne.n	800101a <__gedf2+0x56>
 8000ffa:	4330      	orrs	r0, r6
 8000ffc:	0007      	movs	r7, r0
 8000ffe:	4681      	mov	r9, r0
 8001000:	4278      	negs	r0, r7
 8001002:	4178      	adcs	r0, r7
 8001004:	b2c0      	uxtb	r0, r0
 8001006:	2d00      	cmp	r5, #0
 8001008:	d117      	bne.n	800103a <__gedf2+0x76>
 800100a:	465f      	mov	r7, fp
 800100c:	433a      	orrs	r2, r7
 800100e:	d114      	bne.n	800103a <__gedf2+0x76>
 8001010:	464b      	mov	r3, r9
 8001012:	2000      	movs	r0, #0
 8001014:	2b00      	cmp	r3, #0
 8001016:	d00a      	beq.n	800102e <__gedf2+0x6a>
 8001018:	e006      	b.n	8001028 <__gedf2+0x64>
 800101a:	2d00      	cmp	r5, #0
 800101c:	d102      	bne.n	8001024 <__gedf2+0x60>
 800101e:	4658      	mov	r0, fp
 8001020:	4302      	orrs	r2, r0
 8001022:	d001      	beq.n	8001028 <__gedf2+0x64>
 8001024:	4299      	cmp	r1, r3
 8001026:	d018      	beq.n	800105a <__gedf2+0x96>
 8001028:	4248      	negs	r0, r1
 800102a:	2101      	movs	r1, #1
 800102c:	4308      	orrs	r0, r1
 800102e:	bc3c      	pop	{r2, r3, r4, r5}
 8001030:	4690      	mov	r8, r2
 8001032:	4699      	mov	r9, r3
 8001034:	46a2      	mov	sl, r4
 8001036:	46ab      	mov	fp, r5
 8001038:	bdf0      	pop	{r4, r5, r6, r7, pc}
 800103a:	2800      	cmp	r0, #0
 800103c:	d0f2      	beq.n	8001024 <__gedf2+0x60>
 800103e:	2001      	movs	r0, #1
 8001040:	3b01      	subs	r3, #1
 8001042:	4318      	orrs	r0, r3
 8001044:	e7f3      	b.n	800102e <__gedf2+0x6a>
 8001046:	0037      	movs	r7, r6
 8001048:	4307      	orrs	r7, r0
 800104a:	d0d1      	beq.n	8000ff0 <__gedf2+0x2c>
 800104c:	2002      	movs	r0, #2
 800104e:	4240      	negs	r0, r0
 8001050:	e7ed      	b.n	800102e <__gedf2+0x6a>
 8001052:	465f      	mov	r7, fp
 8001054:	4317      	orrs	r7, r2
 8001056:	d0ce      	beq.n	8000ff6 <__gedf2+0x32>
 8001058:	e7f8      	b.n	800104c <__gedf2+0x88>
 800105a:	42ac      	cmp	r4, r5
 800105c:	dce4      	bgt.n	8001028 <__gedf2+0x64>
 800105e:	da03      	bge.n	8001068 <__gedf2+0xa4>
 8001060:	1e48      	subs	r0, r1, #1
 8001062:	2101      	movs	r1, #1
 8001064:	4308      	orrs	r0, r1
 8001066:	e7e2      	b.n	800102e <__gedf2+0x6a>
 8001068:	455e      	cmp	r6, fp
 800106a:	d8dd      	bhi.n	8001028 <__gedf2+0x64>
 800106c:	d006      	beq.n	800107c <__gedf2+0xb8>
 800106e:	2000      	movs	r0, #0
 8001070:	455e      	cmp	r6, fp
 8001072:	d2dc      	bcs.n	800102e <__gedf2+0x6a>
 8001074:	2301      	movs	r3, #1
 8001076:	1e48      	subs	r0, r1, #1
 8001078:	4318      	orrs	r0, r3
 800107a:	e7d8      	b.n	800102e <__gedf2+0x6a>
 800107c:	45c4      	cmp	ip, r8
 800107e:	d8d3      	bhi.n	8001028 <__gedf2+0x64>
 8001080:	2000      	movs	r0, #0
 8001082:	45c4      	cmp	ip, r8
 8001084:	d3f6      	bcc.n	8001074 <__gedf2+0xb0>
 8001086:	e7d2      	b.n	800102e <__gedf2+0x6a>
 8001088:	000007ff 	.word	0x000007ff

0800108c <__ledf2>:
 800108c:	b5f0      	push	{r4, r5, r6, r7, lr}
 800108e:	464e      	mov	r6, r9
 8001090:	4645      	mov	r5, r8
 8001092:	46de      	mov	lr, fp
 8001094:	4657      	mov	r7, sl
 8001096:	005c      	lsls	r4, r3, #1
 8001098:	b5e0      	push	{r5, r6, r7, lr}
 800109a:	031f      	lsls	r7, r3, #12
 800109c:	0fdb      	lsrs	r3, r3, #31
 800109e:	4699      	mov	r9, r3
 80010a0:	4b2a      	ldr	r3, [pc, #168]	; (800114c <__ledf2+0xc0>)
 80010a2:	030e      	lsls	r6, r1, #12
 80010a4:	004d      	lsls	r5, r1, #1
 80010a6:	0fc9      	lsrs	r1, r1, #31
 80010a8:	4684      	mov	ip, r0
 80010aa:	0b36      	lsrs	r6, r6, #12
 80010ac:	0d6d      	lsrs	r5, r5, #21
 80010ae:	468b      	mov	fp, r1
 80010b0:	4690      	mov	r8, r2
 80010b2:	0b3f      	lsrs	r7, r7, #12
 80010b4:	0d64      	lsrs	r4, r4, #21
 80010b6:	429d      	cmp	r5, r3
 80010b8:	d020      	beq.n	80010fc <__ledf2+0x70>
 80010ba:	4b24      	ldr	r3, [pc, #144]	; (800114c <__ledf2+0xc0>)
 80010bc:	429c      	cmp	r4, r3
 80010be:	d022      	beq.n	8001106 <__ledf2+0x7a>
 80010c0:	2d00      	cmp	r5, #0
 80010c2:	d112      	bne.n	80010ea <__ledf2+0x5e>
 80010c4:	4330      	orrs	r0, r6
 80010c6:	4243      	negs	r3, r0
 80010c8:	4143      	adcs	r3, r0
 80010ca:	b2db      	uxtb	r3, r3
 80010cc:	2c00      	cmp	r4, #0
 80010ce:	d01f      	beq.n	8001110 <__ledf2+0x84>
 80010d0:	2b00      	cmp	r3, #0
 80010d2:	d00c      	beq.n	80010ee <__ledf2+0x62>
 80010d4:	464b      	mov	r3, r9
 80010d6:	2001      	movs	r0, #1
 80010d8:	3b01      	subs	r3, #1
 80010da:	4303      	orrs	r3, r0
 80010dc:	0018      	movs	r0, r3
 80010de:	bc3c      	pop	{r2, r3, r4, r5}
 80010e0:	4690      	mov	r8, r2
 80010e2:	4699      	mov	r9, r3
 80010e4:	46a2      	mov	sl, r4
 80010e6:	46ab      	mov	fp, r5
 80010e8:	bdf0      	pop	{r4, r5, r6, r7, pc}
 80010ea:	2c00      	cmp	r4, #0
 80010ec:	d016      	beq.n	800111c <__ledf2+0x90>
 80010ee:	45cb      	cmp	fp, r9
 80010f0:	d017      	beq.n	8001122 <__ledf2+0x96>
 80010f2:	465b      	mov	r3, fp
 80010f4:	4259      	negs	r1, r3
 80010f6:	2301      	movs	r3, #1
 80010f8:	430b      	orrs	r3, r1
 80010fa:	e7ef      	b.n	80010dc <__ledf2+0x50>
 80010fc:	0031      	movs	r1, r6
 80010fe:	2302      	movs	r3, #2
 8001100:	4301      	orrs	r1, r0
 8001102:	d1eb      	bne.n	80010dc <__ledf2+0x50>
 8001104:	e7d9      	b.n	80010ba <__ledf2+0x2e>
 8001106:	0039      	movs	r1, r7
 8001108:	2302      	movs	r3, #2
 800110a:	4311      	orrs	r1, r2
 800110c:	d1e6      	bne.n	80010dc <__ledf2+0x50>
 800110e:	e7d7      	b.n	80010c0 <__ledf2+0x34>
 8001110:	433a      	orrs	r2, r7
 8001112:	d1dd      	bne.n	80010d0 <__ledf2+0x44>
 8001114:	2300      	movs	r3, #0
 8001116:	2800      	cmp	r0, #0
 8001118:	d0e0      	beq.n	80010dc <__ledf2+0x50>
 800111a:	e7ea      	b.n	80010f2 <__ledf2+0x66>
 800111c:	433a      	orrs	r2, r7
 800111e:	d1e6      	bne.n	80010ee <__ledf2+0x62>
 8001120:	e7e7      	b.n	80010f2 <__ledf2+0x66>
 8001122:	42a5      	cmp	r5, r4
 8001124:	dce5      	bgt.n	80010f2 <__ledf2+0x66>
 8001126:	db05      	blt.n	8001134 <__ledf2+0xa8>
 8001128:	42be      	cmp	r6, r7
 800112a:	d8e2      	bhi.n	80010f2 <__ledf2+0x66>
 800112c:	d007      	beq.n	800113e <__ledf2+0xb2>
 800112e:	2300      	movs	r3, #0
 8001130:	42be      	cmp	r6, r7
 8001132:	d2d3      	bcs.n	80010dc <__ledf2+0x50>
 8001134:	4659      	mov	r1, fp
 8001136:	2301      	movs	r3, #1
 8001138:	3901      	subs	r1, #1
 800113a:	430b      	orrs	r3, r1
 800113c:	e7ce      	b.n	80010dc <__ledf2+0x50>
 800113e:	45c4      	cmp	ip, r8
 8001140:	d8d7      	bhi.n	80010f2 <__ledf2+0x66>
 8001142:	2300      	movs	r3, #0
 8001144:	45c4      	cmp	ip, r8
 8001146:	d3f5      	bcc.n	8001134 <__ledf2+0xa8>
 8001148:	e7c8      	b.n	80010dc <__ledf2+0x50>
 800114a:	46c0      	nop			; (mov r8, r8)
 800114c:	000007ff 	.word	0x000007ff

08001150 <HAL_InitTick>:
  *       implementation  in user file.
  * @param TickPriority Tick interrupt priority.
  * @retval HAL status
  */
__weak HAL_StatusTypeDef HAL_InitTick(uint32_t TickPriority)
{
 8001150:	b570      	push	{r4, r5, r6, lr}
 8001152:	0005      	movs	r5, r0
  /*Configure the SysTick to have interrupt in 1ms time basis*/
  if (HAL_SYSTICK_Config(SystemCoreClock / (1000U / uwTickFreq)) > 0U)
 8001154:	20fa      	movs	r0, #250	; 0xfa
 8001156:	4b0d      	ldr	r3, [pc, #52]	; (800118c <HAL_InitTick+0x3c>)
 8001158:	0080      	lsls	r0, r0, #2
 800115a:	7819      	ldrb	r1, [r3, #0]
 800115c:	f7fe fff0 	bl	8000140 <__udivsi3>
 8001160:	4b0b      	ldr	r3, [pc, #44]	; (8001190 <HAL_InitTick+0x40>)
 8001162:	0001      	movs	r1, r0
 8001164:	6818      	ldr	r0, [r3, #0]
 8001166:	f7fe ffeb 	bl	8000140 <__udivsi3>
 800116a:	f000 fae3 	bl	8001734 <HAL_SYSTICK_Config>
 800116e:	0004      	movs	r4, r0
  {
    return HAL_ERROR;
 8001170:	2001      	movs	r0, #1
  if (HAL_SYSTICK_Config(SystemCoreClock / (1000U / uwTickFreq)) > 0U)
 8001172:	2c00      	cmp	r4, #0
 8001174:	d109      	bne.n	800118a <HAL_InitTick+0x3a>
  }

  /* Configure the SysTick IRQ priority */
  if (TickPriority < (1UL << __NVIC_PRIO_BITS))
 8001176:	2d03      	cmp	r5, #3
 8001178:	d807      	bhi.n	800118a <HAL_InitTick+0x3a>
  {
    HAL_NVIC_SetPriority(SysTick_IRQn, TickPriority, 0U);
 800117a:	3802      	subs	r0, #2
 800117c:	0022      	movs	r2, r4
 800117e:	0029      	movs	r1, r5
 8001180:	f000 fa9c 	bl	80016bc <HAL_NVIC_SetPriority>
    uwTickPrio = TickPriority;
 8001184:	0020      	movs	r0, r4
 8001186:	4b03      	ldr	r3, [pc, #12]	; (8001194 <HAL_InitTick+0x44>)
 8001188:	601d      	str	r5, [r3, #0]
    return HAL_ERROR;
  }

   /* Return function status */
  return HAL_OK;
}
 800118a:	bd70      	pop	{r4, r5, r6, pc}
 800118c:	20000000 	.word	0x20000000
 8001190:	2000000c 	.word	0x2000000c
 8001194:	20000004 	.word	0x20000004

08001198 <HAL_Init>:
  __HAL_FLASH_PREFETCH_BUFFER_ENABLE();
 8001198:	2310      	movs	r3, #16
 800119a:	4a06      	ldr	r2, [pc, #24]	; (80011b4 <HAL_Init+0x1c>)
{
 800119c:	b510      	push	{r4, lr}
  __HAL_FLASH_PREFETCH_BUFFER_ENABLE();
 800119e:	6811      	ldr	r1, [r2, #0]
  HAL_InitTick(TICK_INT_PRIORITY);
 80011a0:	2000      	movs	r0, #0
  __HAL_FLASH_PREFETCH_BUFFER_ENABLE();
 80011a2:	430b      	orrs	r3, r1
 80011a4:	6013      	str	r3, [r2, #0]
  HAL_InitTick(TICK_INT_PRIORITY);
 80011a6:	f7ff ffd3 	bl	8001150 <HAL_InitTick>
  HAL_MspInit();
 80011aa:	f004 fc6d 	bl	8005a88 <HAL_MspInit>
}
 80011ae:	2000      	movs	r0, #0
 80011b0:	bd10      	pop	{r4, pc}
 80011b2:	46c0      	nop			; (mov r8, r8)
 80011b4:	40022000 	.word	0x40022000

080011b8 <HAL_IncTick>:
  *       implementations in user file.
  * @retval None
  */
__weak void HAL_IncTick(void)
{
  uwTick += uwTickFreq;
 80011b8:	4a03      	ldr	r2, [pc, #12]	; (80011c8 <HAL_IncTick+0x10>)
 80011ba:	4b04      	ldr	r3, [pc, #16]	; (80011cc <HAL_IncTick+0x14>)
 80011bc:	6811      	ldr	r1, [r2, #0]
 80011be:	781b      	ldrb	r3, [r3, #0]
 80011c0:	185b      	adds	r3, r3, r1
 80011c2:	6013      	str	r3, [r2, #0]
}
 80011c4:	4770      	bx	lr
 80011c6:	46c0      	nop			; (mov r8, r8)
 80011c8:	200002ec 	.word	0x200002ec
 80011cc:	20000000 	.word	0x20000000

080011d0 <HAL_GetTick>:
  *       implementations in user file.
  * @retval tick value
  */
__weak uint32_t HAL_GetTick(void)
{
  return uwTick;
 80011d0:	4b01      	ldr	r3, [pc, #4]	; (80011d8 <HAL_GetTick+0x8>)
 80011d2:	6818      	ldr	r0, [r3, #0]
}
 80011d4:	4770      	bx	lr
 80011d6:	46c0      	nop			; (mov r8, r8)
 80011d8:	200002ec 	.word	0x200002ec

080011dc <HAL_Delay>:
  *       implementations in user file.
  * @param Delay specifies the delay time length, in milliseconds.
  * @retval None
  */
__weak void HAL_Delay(uint32_t Delay)
{
 80011dc:	b570      	push	{r4, r5, r6, lr}
 80011de:	0004      	movs	r4, r0
  uint32_t tickstart = HAL_GetTick();
 80011e0:	f7ff fff6 	bl	80011d0 <HAL_GetTick>
 80011e4:	0005      	movs	r5, r0
  uint32_t wait = Delay;
  
  /* Add a freq to guarantee minimum wait */
  if (wait < HAL_MAX_DELAY)
 80011e6:	1c63      	adds	r3, r4, #1
 80011e8:	d002      	beq.n	80011f0 <HAL_Delay+0x14>
  {
    wait += (uint32_t)(uwTickFreq);
 80011ea:	4b04      	ldr	r3, [pc, #16]	; (80011fc <HAL_Delay+0x20>)
 80011ec:	781b      	ldrb	r3, [r3, #0]
 80011ee:	18e4      	adds	r4, r4, r3
  }
  
  while((HAL_GetTick() - tickstart) < wait)
 80011f0:	f7ff ffee 	bl	80011d0 <HAL_GetTick>
 80011f4:	1b40      	subs	r0, r0, r5
 80011f6:	4284      	cmp	r4, r0
 80011f8:	d8fa      	bhi.n	80011f0 <HAL_Delay+0x14>
  {
  }
}
 80011fa:	bd70      	pop	{r4, r5, r6, pc}
 80011fc:	20000000 	.word	0x20000000

08001200 <ADC_Enable>:
  * @retval HAL status.
  */
static HAL_StatusTypeDef ADC_Enable(ADC_HandleTypeDef* hadc)
{
  uint32_t tickstart = 0U;
  __IO uint32_t wait_loop_index = 0U;
 8001200:	2300      	movs	r3, #0
{
 8001202:	b573      	push	{r0, r1, r4, r5, r6, lr}
  
  /* ADC enable and wait for ADC ready (in case of ADC is disabled or         */
  /* enabling phase not yet completed: flag ADC ready not yet set).           */
  /* Timeout implemented to not be stuck if ADC cannot be enabled (possible   */
  /* causes: ADC clock not running, ...).                                     */
  if (ADC_IS_ENABLE(hadc) == RESET)
 8001204:	2103      	movs	r1, #3
  __IO uint32_t wait_loop_index = 0U;
 8001206:	9301      	str	r3, [sp, #4]
  if (ADC_IS_ENABLE(hadc) == RESET)
 8001208:	6803      	ldr	r3, [r0, #0]
{
 800120a:	0004      	movs	r4, r0
  if (ADC_IS_ENABLE(hadc) == RESET)
 800120c:	689a      	ldr	r2, [r3, #8]
 800120e:	400a      	ands	r2, r1
 8001210:	2a01      	cmp	r2, #1
 8001212:	d107      	bne.n	8001224 <ADC_Enable+0x24>
 8001214:	6819      	ldr	r1, [r3, #0]
 8001216:	4211      	tst	r1, r2
 8001218:	d001      	beq.n	800121e <ADC_Enable+0x1e>
    }   
    
  }
   
  /* Return HAL status */
  return HAL_OK;
 800121a:	2000      	movs	r0, #0
}
 800121c:	bd76      	pop	{r1, r2, r4, r5, r6, pc}
  if (ADC_IS_ENABLE(hadc) == RESET)
 800121e:	68da      	ldr	r2, [r3, #12]
 8001220:	0412      	lsls	r2, r2, #16
 8001222:	d4fa      	bmi.n	800121a <ADC_Enable+0x1a>
    if (ADC_ENABLING_CONDITIONS(hadc) == RESET)
 8001224:	6899      	ldr	r1, [r3, #8]
 8001226:	4a19      	ldr	r2, [pc, #100]	; (800128c <ADC_Enable+0x8c>)
 8001228:	4211      	tst	r1, r2
 800122a:	d008      	beq.n	800123e <ADC_Enable+0x3e>
      SET_BIT(hadc->State, HAL_ADC_STATE_ERROR_INTERNAL);
 800122c:	2310      	movs	r3, #16
      SET_BIT(hadc->ErrorCode, HAL_ADC_ERROR_INTERNAL);
 800122e:	2001      	movs	r0, #1
      SET_BIT(hadc->State, HAL_ADC_STATE_ERROR_INTERNAL);
 8001230:	6ba2      	ldr	r2, [r4, #56]	; 0x38
 8001232:	4313      	orrs	r3, r2
 8001234:	63a3      	str	r3, [r4, #56]	; 0x38
      SET_BIT(hadc->ErrorCode, HAL_ADC_ERROR_INTERNAL);
 8001236:	6be3      	ldr	r3, [r4, #60]	; 0x3c
 8001238:	4303      	orrs	r3, r0
 800123a:	63e3      	str	r3, [r4, #60]	; 0x3c
      return HAL_ERROR;
 800123c:	e7ee      	b.n	800121c <ADC_Enable+0x1c>
    __HAL_ADC_ENABLE(hadc);
 800123e:	2201      	movs	r2, #1
 8001240:	6899      	ldr	r1, [r3, #8]
 8001242:	430a      	orrs	r2, r1
 8001244:	609a      	str	r2, [r3, #8]
    wait_loop_index = (ADC_STAB_DELAY_US * (SystemCoreClock / 1000000U));
 8001246:	4b12      	ldr	r3, [pc, #72]	; (8001290 <ADC_Enable+0x90>)
 8001248:	4912      	ldr	r1, [pc, #72]	; (8001294 <ADC_Enable+0x94>)
 800124a:	6818      	ldr	r0, [r3, #0]
 800124c:	f7fe ff78 	bl	8000140 <__udivsi3>
 8001250:	9001      	str	r0, [sp, #4]
    while(wait_loop_index != 0U)
 8001252:	9b01      	ldr	r3, [sp, #4]
 8001254:	2b00      	cmp	r3, #0
 8001256:	d115      	bne.n	8001284 <ADC_Enable+0x84>
    tickstart = HAL_GetTick();
 8001258:	f7ff ffba 	bl	80011d0 <HAL_GetTick>
    while(__HAL_ADC_GET_FLAG(hadc, ADC_FLAG_RDY) == RESET)
 800125c:	2501      	movs	r5, #1
    tickstart = HAL_GetTick();
 800125e:	0006      	movs	r6, r0
    while(__HAL_ADC_GET_FLAG(hadc, ADC_FLAG_RDY) == RESET)
 8001260:	6823      	ldr	r3, [r4, #0]
 8001262:	681b      	ldr	r3, [r3, #0]
 8001264:	422b      	tst	r3, r5
 8001266:	d1d8      	bne.n	800121a <ADC_Enable+0x1a>
      if((HAL_GetTick() - tickstart) > ADC_ENABLE_TIMEOUT)
 8001268:	f7ff ffb2 	bl	80011d0 <HAL_GetTick>
 800126c:	1b80      	subs	r0, r0, r6
 800126e:	2802      	cmp	r0, #2
 8001270:	d9f6      	bls.n	8001260 <ADC_Enable+0x60>
        SET_BIT(hadc->State, HAL_ADC_STATE_ERROR_INTERNAL);
 8001272:	2310      	movs	r3, #16
 8001274:	6ba2      	ldr	r2, [r4, #56]	; 0x38
        return HAL_ERROR;
 8001276:	2001      	movs	r0, #1
        SET_BIT(hadc->State, HAL_ADC_STATE_ERROR_INTERNAL);
 8001278:	4313      	orrs	r3, r2
 800127a:	63a3      	str	r3, [r4, #56]	; 0x38
        SET_BIT(hadc->ErrorCode, HAL_ADC_ERROR_INTERNAL);
 800127c:	6be3      	ldr	r3, [r4, #60]	; 0x3c
 800127e:	432b      	orrs	r3, r5
 8001280:	63e3      	str	r3, [r4, #60]	; 0x3c
        return HAL_ERROR;
 8001282:	e7cb      	b.n	800121c <ADC_Enable+0x1c>
      wait_loop_index--;
 8001284:	9b01      	ldr	r3, [sp, #4]
 8001286:	3b01      	subs	r3, #1
 8001288:	9301      	str	r3, [sp, #4]
 800128a:	e7e2      	b.n	8001252 <ADC_Enable+0x52>
 800128c:	80000017 	.word	0x80000017
 8001290:	2000000c 	.word	0x2000000c
 8001294:	000f4240 	.word	0x000f4240

08001298 <HAL_ADC_Init>:
{
 8001298:	b5f8      	push	{r3, r4, r5, r6, r7, lr}
 800129a:	0004      	movs	r4, r0
    return HAL_ERROR;
 800129c:	2001      	movs	r0, #1
  if(hadc == NULL)
 800129e:	2c00      	cmp	r4, #0
 80012a0:	d073      	beq.n	800138a <HAL_ADC_Init+0xf2>
  if (hadc->State == HAL_ADC_STATE_RESET)
 80012a2:	6ba3      	ldr	r3, [r4, #56]	; 0x38
 80012a4:	2b00      	cmp	r3, #0
 80012a6:	d106      	bne.n	80012b6 <HAL_ADC_Init+0x1e>
    hadc->Lock = HAL_UNLOCKED;
 80012a8:	0022      	movs	r2, r4
 80012aa:	3234      	adds	r2, #52	; 0x34
    ADC_CLEAR_ERRORCODE(hadc);
 80012ac:	63e3      	str	r3, [r4, #60]	; 0x3c
    HAL_ADC_MspInit(hadc);
 80012ae:	0020      	movs	r0, r4
    hadc->Lock = HAL_UNLOCKED;
 80012b0:	7013      	strb	r3, [r2, #0]
    HAL_ADC_MspInit(hadc);
 80012b2:	f004 fc01 	bl	8005ab8 <HAL_ADC_MspInit>
  if (HAL_IS_BIT_CLR(hadc->State, HAL_ADC_STATE_ERROR_INTERNAL) &&
 80012b6:	6ba3      	ldr	r3, [r4, #56]	; 0x38
 80012b8:	06db      	lsls	r3, r3, #27
 80012ba:	d500      	bpl.n	80012be <HAL_ADC_Init+0x26>
 80012bc:	e07a      	b.n	80013b4 <HAL_ADC_Init+0x11c>
      (ADC_IS_CONVERSION_ONGOING_REGULAR(hadc) == RESET)          )
 80012be:	2204      	movs	r2, #4
 80012c0:	6823      	ldr	r3, [r4, #0]
 80012c2:	6898      	ldr	r0, [r3, #8]
 80012c4:	4010      	ands	r0, r2
      (tmp_hal_status == HAL_OK)                                &&
 80012c6:	d000      	beq.n	80012ca <HAL_ADC_Init+0x32>
 80012c8:	e074      	b.n	80013b4 <HAL_ADC_Init+0x11c>
    ADC_STATE_CLR_SET(hadc->State,
 80012ca:	6ba2      	ldr	r2, [r4, #56]	; 0x38
 80012cc:	4943      	ldr	r1, [pc, #268]	; (80013dc <HAL_ADC_Init+0x144>)
 80012ce:	4011      	ands	r1, r2
 80012d0:	2202      	movs	r2, #2
 80012d2:	430a      	orrs	r2, r1
    if (ADC_IS_ENABLE(hadc) == RESET)
 80012d4:	2103      	movs	r1, #3
    ADC_STATE_CLR_SET(hadc->State,
 80012d6:	63a2      	str	r2, [r4, #56]	; 0x38
    if (ADC_IS_ENABLE(hadc) == RESET)
 80012d8:	689a      	ldr	r2, [r3, #8]
 80012da:	400a      	ands	r2, r1
 80012dc:	2a01      	cmp	r2, #1
 80012de:	d000      	beq.n	80012e2 <HAL_ADC_Init+0x4a>
 80012e0:	e06e      	b.n	80013c0 <HAL_ADC_Init+0x128>
 80012e2:	6819      	ldr	r1, [r3, #0]
 80012e4:	4211      	tst	r1, r2
 80012e6:	d102      	bne.n	80012ee <HAL_ADC_Init+0x56>
 80012e8:	68da      	ldr	r2, [r3, #12]
 80012ea:	0412      	lsls	r2, r2, #16
 80012ec:	d568      	bpl.n	80013c0 <HAL_ADC_Init+0x128>
    hadc->Instance->CFGR1 &= ~( ADC_CFGR1_DISCEN  |
 80012ee:	68da      	ldr	r2, [r3, #12]
 80012f0:	493b      	ldr	r1, [pc, #236]	; (80013e0 <HAL_ADC_Init+0x148>)
 80012f2:	400a      	ands	r2, r1
 80012f4:	60da      	str	r2, [r3, #12]
    tmpCFGR1 |= (ADC_CFGR1_AUTOWAIT((uint32_t)hadc->Init.LowPowerAutoWait)        |
 80012f6:	7e25      	ldrb	r5, [r4, #24]
                 ADC_CFGR1_AUTOOFF((uint32_t)hadc->Init.LowPowerAutoPowerOff)     |
 80012f8:	7e62      	ldrb	r2, [r4, #25]
    tmpCFGR1 |= (ADC_CFGR1_AUTOWAIT((uint32_t)hadc->Init.LowPowerAutoWait)        |
 80012fa:	03ad      	lsls	r5, r5, #14
                 ADC_CFGR1_AUTOOFF((uint32_t)hadc->Init.LowPowerAutoPowerOff)     |
 80012fc:	03d2      	lsls	r2, r2, #15
    tmpCFGR1 |= (ADC_CFGR1_AUTOWAIT((uint32_t)hadc->Init.LowPowerAutoWait)        |
 80012fe:	4315      	orrs	r5, r2
                 ADC_CFGR1_OVERRUN(hadc->Init.Overrun)                            |
 8001300:	6aa2      	ldr	r2, [r4, #40]	; 0x28
                 ADC_CFGR1_CONTINUOUS((uint32_t)hadc->Init.ContinuousConvMode)    |
 8001302:	7ea1      	ldrb	r1, [r4, #26]
                 ADC_CFGR1_OVERRUN(hadc->Init.Overrun)                            |
 8001304:	3a01      	subs	r2, #1
 8001306:	1e56      	subs	r6, r2, #1
 8001308:	41b2      	sbcs	r2, r6
 800130a:	0316      	lsls	r6, r2, #12
 800130c:	68e2      	ldr	r2, [r4, #12]
                 ADC_CFGR1_CONTINUOUS((uint32_t)hadc->Init.ContinuousConvMode)    |
 800130e:	034f      	lsls	r7, r1, #13
 8001310:	4315      	orrs	r5, r2
                 ADC_SCANDIR(hadc->Init.ScanConvMode)                             |
 8001312:	6922      	ldr	r2, [r4, #16]
 8001314:	432f      	orrs	r7, r5
 8001316:	2a02      	cmp	r2, #2
 8001318:	d100      	bne.n	800131c <HAL_ADC_Init+0x84>
 800131a:	2004      	movs	r0, #4
                 ADC_CFGR1_DMACONTREQ((uint32_t)hadc->Init.DMAContinuousRequests)  );
 800131c:	1d62      	adds	r2, r4, #5
 800131e:	7fd2      	ldrb	r2, [r2, #31]
 8001320:	0052      	lsls	r2, r2, #1
                 ADC_SCANDIR(hadc->Init.ScanConvMode)                             |
 8001322:	433a      	orrs	r2, r7
 8001324:	4332      	orrs	r2, r6
 8001326:	4302      	orrs	r2, r0
    if (hadc->Init.DiscontinuousConvMode == ENABLE)
 8001328:	7ee0      	ldrb	r0, [r4, #27]
 800132a:	2801      	cmp	r0, #1
 800132c:	d104      	bne.n	8001338 <HAL_ADC_Init+0xa0>
      if (hadc->Init.ContinuousConvMode == DISABLE)
 800132e:	2900      	cmp	r1, #0
 8001330:	d12c      	bne.n	800138c <HAL_ADC_Init+0xf4>
        tmpCFGR1 |= ADC_CFGR1_DISCEN;
 8001332:	2180      	movs	r1, #128	; 0x80
 8001334:	0249      	lsls	r1, r1, #9
 8001336:	430a      	orrs	r2, r1
    if (hadc->Init.ExternalTrigConv != ADC_SOFTWARE_START)
 8001338:	20c2      	movs	r0, #194	; 0xc2
 800133a:	69e1      	ldr	r1, [r4, #28]
 800133c:	30ff      	adds	r0, #255	; 0xff
 800133e:	4281      	cmp	r1, r0
 8001340:	d002      	beq.n	8001348 <HAL_ADC_Init+0xb0>
      tmpCFGR1 |= ( hadc->Init.ExternalTrigConv    |
 8001342:	6a20      	ldr	r0, [r4, #32]
 8001344:	4301      	orrs	r1, r0
 8001346:	430a      	orrs	r2, r1
    if (IS_ADC_SAMPLE_TIME(hadc->Init.SamplingTimeCommon))
 8001348:	2080      	movs	r0, #128	; 0x80
    hadc->Instance->CFGR1 |= tmpCFGR1;
 800134a:	68d9      	ldr	r1, [r3, #12]
    if (IS_ADC_SAMPLE_TIME(hadc->Init.SamplingTimeCommon))
 800134c:	0540      	lsls	r0, r0, #21
    hadc->Instance->CFGR1 |= tmpCFGR1;
 800134e:	4311      	orrs	r1, r2
 8001350:	60d9      	str	r1, [r3, #12]
    if (IS_ADC_SAMPLE_TIME(hadc->Init.SamplingTimeCommon))
 8001352:	6ae1      	ldr	r1, [r4, #44]	; 0x2c
 8001354:	4281      	cmp	r1, r0
 8001356:	d002      	beq.n	800135e <HAL_ADC_Init+0xc6>
 8001358:	1e48      	subs	r0, r1, #1
 800135a:	2806      	cmp	r0, #6
 800135c:	d807      	bhi.n	800136e <HAL_ADC_Init+0xd6>
      hadc->Instance->SMPR &= ~(ADC_SMPR_SMP);
 800135e:	2507      	movs	r5, #7
 8001360:	6958      	ldr	r0, [r3, #20]
      hadc->Instance->SMPR |= ADC_SMPR_SET(hadc->Init.SamplingTimeCommon);
 8001362:	4029      	ands	r1, r5
      hadc->Instance->SMPR &= ~(ADC_SMPR_SMP);
 8001364:	43a8      	bics	r0, r5
 8001366:	6158      	str	r0, [r3, #20]
      hadc->Instance->SMPR |= ADC_SMPR_SET(hadc->Init.SamplingTimeCommon);
 8001368:	6958      	ldr	r0, [r3, #20]
 800136a:	4301      	orrs	r1, r0
 800136c:	6159      	str	r1, [r3, #20]
    if ((hadc->Instance->CFGR1 & ~(ADC_CFGR1_AWDCH | ADC_CFGR1_AWDEN | ADC_CFGR1_AWDSGL | ADC_CFGR1_RES))
 800136e:	68db      	ldr	r3, [r3, #12]
 8001370:	491c      	ldr	r1, [pc, #112]	; (80013e4 <HAL_ADC_Init+0x14c>)
 8001372:	400b      	ands	r3, r1
 8001374:	429a      	cmp	r2, r3
 8001376:	d111      	bne.n	800139c <HAL_ADC_Init+0x104>
      ADC_CLEAR_ERRORCODE(hadc);
 8001378:	2000      	movs	r0, #0
      ADC_STATE_CLR_SET(hadc->State,
 800137a:	2203      	movs	r2, #3
      ADC_CLEAR_ERRORCODE(hadc);
 800137c:	63e0      	str	r0, [r4, #60]	; 0x3c
      ADC_STATE_CLR_SET(hadc->State,
 800137e:	6ba3      	ldr	r3, [r4, #56]	; 0x38
 8001380:	4393      	bics	r3, r2
 8001382:	001a      	movs	r2, r3
 8001384:	2301      	movs	r3, #1
 8001386:	4313      	orrs	r3, r2
 8001388:	63a3      	str	r3, [r4, #56]	; 0x38
}
 800138a:	bdf8      	pop	{r3, r4, r5, r6, r7, pc}
        SET_BIT(hadc->State, HAL_ADC_STATE_ERROR_CONFIG);
 800138c:	2120      	movs	r1, #32
 800138e:	6ba5      	ldr	r5, [r4, #56]	; 0x38
 8001390:	4329      	orrs	r1, r5
 8001392:	63a1      	str	r1, [r4, #56]	; 0x38
        SET_BIT(hadc->ErrorCode, HAL_ADC_ERROR_INTERNAL);
 8001394:	6be1      	ldr	r1, [r4, #60]	; 0x3c
 8001396:	4308      	orrs	r0, r1
 8001398:	63e0      	str	r0, [r4, #60]	; 0x3c
 800139a:	e7cd      	b.n	8001338 <HAL_ADC_Init+0xa0>
      ADC_STATE_CLR_SET(hadc->State,
 800139c:	2212      	movs	r2, #18
 800139e:	6ba3      	ldr	r3, [r4, #56]	; 0x38
      SET_BIT(hadc->ErrorCode, HAL_ADC_ERROR_INTERNAL);
 80013a0:	2001      	movs	r0, #1
      ADC_STATE_CLR_SET(hadc->State,
 80013a2:	4393      	bics	r3, r2
 80013a4:	001a      	movs	r2, r3
 80013a6:	2310      	movs	r3, #16
 80013a8:	4313      	orrs	r3, r2
 80013aa:	63a3      	str	r3, [r4, #56]	; 0x38
      SET_BIT(hadc->ErrorCode, HAL_ADC_ERROR_INTERNAL);
 80013ac:	6be3      	ldr	r3, [r4, #60]	; 0x3c
 80013ae:	4303      	orrs	r3, r0
 80013b0:	63e3      	str	r3, [r4, #60]	; 0x3c
 80013b2:	e7ea      	b.n	800138a <HAL_ADC_Init+0xf2>
    SET_BIT(hadc->State, HAL_ADC_STATE_ERROR_INTERNAL);
 80013b4:	2310      	movs	r3, #16
 80013b6:	6ba2      	ldr	r2, [r4, #56]	; 0x38
    tmp_hal_status = HAL_ERROR;
 80013b8:	2001      	movs	r0, #1
    SET_BIT(hadc->State, HAL_ADC_STATE_ERROR_INTERNAL);
 80013ba:	4313      	orrs	r3, r2
 80013bc:	63a3      	str	r3, [r4, #56]	; 0x38
 80013be:	e7e4      	b.n	800138a <HAL_ADC_Init+0xf2>
      MODIFY_REG(hadc->Instance->CFGR1,
 80013c0:	2118      	movs	r1, #24
 80013c2:	68da      	ldr	r2, [r3, #12]
 80013c4:	438a      	bics	r2, r1
 80013c6:	68a1      	ldr	r1, [r4, #8]
 80013c8:	430a      	orrs	r2, r1
 80013ca:	60da      	str	r2, [r3, #12]
      MODIFY_REG(hadc->Instance->CFGR2    ,
 80013cc:	6919      	ldr	r1, [r3, #16]
 80013ce:	6862      	ldr	r2, [r4, #4]
 80013d0:	0089      	lsls	r1, r1, #2
 80013d2:	0889      	lsrs	r1, r1, #2
 80013d4:	4311      	orrs	r1, r2
 80013d6:	6119      	str	r1, [r3, #16]
 80013d8:	e789      	b.n	80012ee <HAL_ADC_Init+0x56>
 80013da:	46c0      	nop			; (mov r8, r8)
 80013dc:	fffffefd 	.word	0xfffffefd
 80013e0:	fffe0219 	.word	0xfffe0219
 80013e4:	833fffe7 	.word	0x833fffe7

080013e8 <HAL_ADC_Start_DMA>:
{
 80013e8:	b5f7      	push	{r0, r1, r2, r4, r5, r6, r7, lr}
  if (ADC_IS_CONVERSION_ONGOING_REGULAR(hadc) == RESET)
 80013ea:	6803      	ldr	r3, [r0, #0]
{
 80013ec:	0004      	movs	r4, r0
  if (ADC_IS_CONVERSION_ONGOING_REGULAR(hadc) == RESET)
 80013ee:	689b      	ldr	r3, [r3, #8]
{
 80013f0:	000f      	movs	r7, r1
 80013f2:	9201      	str	r2, [sp, #4]
    tmp_hal_status = HAL_BUSY;
 80013f4:	2002      	movs	r0, #2
  if (ADC_IS_CONVERSION_ONGOING_REGULAR(hadc) == RESET)
 80013f6:	075b      	lsls	r3, r3, #29
 80013f8:	d430      	bmi.n	800145c <HAL_ADC_Start_DMA+0x74>
    __HAL_LOCK(hadc);
 80013fa:	0026      	movs	r6, r4
 80013fc:	3634      	adds	r6, #52	; 0x34
 80013fe:	7833      	ldrb	r3, [r6, #0]
 8001400:	2b01      	cmp	r3, #1
 8001402:	d02b      	beq.n	800145c <HAL_ADC_Start_DMA+0x74>
 8001404:	2301      	movs	r3, #1
 8001406:	7033      	strb	r3, [r6, #0]
    if (hadc->Init.LowPowerAutoPowerOff != ENABLE)
 8001408:	7e63      	ldrb	r3, [r4, #25]
 800140a:	2b01      	cmp	r3, #1
 800140c:	d127      	bne.n	800145e <HAL_ADC_Start_DMA+0x76>
      ADC_STATE_CLR_SET(hadc->State,
 800140e:	6ba3      	ldr	r3, [r4, #56]	; 0x38
 8001410:	4a16      	ldr	r2, [pc, #88]	; (800146c <HAL_ADC_Start_DMA+0x84>)
      ADC_CLEAR_ERRORCODE(hadc);
 8001412:	2500      	movs	r5, #0
      ADC_STATE_CLR_SET(hadc->State,
 8001414:	401a      	ands	r2, r3
 8001416:	2380      	movs	r3, #128	; 0x80
 8001418:	005b      	lsls	r3, r3, #1
 800141a:	4313      	orrs	r3, r2
 800141c:	63a3      	str	r3, [r4, #56]	; 0x38
      hadc->DMA_Handle->XferCpltCallback = ADC_DMAConvCplt;
 800141e:	6b20      	ldr	r0, [r4, #48]	; 0x30
 8001420:	4b13      	ldr	r3, [pc, #76]	; (8001470 <HAL_ADC_Start_DMA+0x88>)
      ADC_CLEAR_ERRORCODE(hadc);
 8001422:	63e5      	str	r5, [r4, #60]	; 0x3c
      __HAL_UNLOCK(hadc);
 8001424:	7035      	strb	r5, [r6, #0]
      hadc->DMA_Handle->XferCpltCallback = ADC_DMAConvCplt;
 8001426:	6283      	str	r3, [r0, #40]	; 0x28
      hadc->DMA_Handle->XferHalfCpltCallback = ADC_DMAHalfConvCplt;
 8001428:	4b12      	ldr	r3, [pc, #72]	; (8001474 <HAL_ADC_Start_DMA+0x8c>)
      __HAL_ADC_CLEAR_FLAG(hadc, (ADC_FLAG_EOC | ADC_FLAG_EOS | ADC_FLAG_OVR));
 800142a:	6821      	ldr	r1, [r4, #0]
      hadc->DMA_Handle->XferHalfCpltCallback = ADC_DMAHalfConvCplt;
 800142c:	62c3      	str	r3, [r0, #44]	; 0x2c
      hadc->DMA_Handle->XferErrorCallback = ADC_DMAError;
 800142e:	4b12      	ldr	r3, [pc, #72]	; (8001478 <HAL_ADC_Start_DMA+0x90>)
 8001430:	6303      	str	r3, [r0, #48]	; 0x30
      __HAL_ADC_CLEAR_FLAG(hadc, (ADC_FLAG_EOC | ADC_FLAG_EOS | ADC_FLAG_OVR));
 8001432:	231c      	movs	r3, #28
 8001434:	600b      	str	r3, [r1, #0]
      __HAL_ADC_ENABLE_IT(hadc, ADC_IT_OVR);
 8001436:	684a      	ldr	r2, [r1, #4]
 8001438:	3b0c      	subs	r3, #12
 800143a:	4313      	orrs	r3, r2
 800143c:	604b      	str	r3, [r1, #4]
      hadc->Instance->CFGR1 |= ADC_CFGR1_DMAEN;
 800143e:	2301      	movs	r3, #1
 8001440:	68ca      	ldr	r2, [r1, #12]
 8001442:	4313      	orrs	r3, r2
 8001444:	60cb      	str	r3, [r1, #12]
      HAL_DMA_Start_IT(hadc->DMA_Handle, (uint32_t)&hadc->Instance->DR, (uint32_t)pData, Length);
 8001446:	003a      	movs	r2, r7
 8001448:	3140      	adds	r1, #64	; 0x40
 800144a:	9b01      	ldr	r3, [sp, #4]
 800144c:	f000 f9be 	bl	80017cc <HAL_DMA_Start_IT>
      hadc->Instance->CR |= ADC_CR_ADSTART;
 8001450:	2304      	movs	r3, #4
 8001452:	0028      	movs	r0, r5
 8001454:	6822      	ldr	r2, [r4, #0]
 8001456:	6891      	ldr	r1, [r2, #8]
 8001458:	430b      	orrs	r3, r1
 800145a:	6093      	str	r3, [r2, #8]
}
 800145c:	bdfe      	pop	{r1, r2, r3, r4, r5, r6, r7, pc}
      tmp_hal_status = ADC_Enable(hadc);
 800145e:	0020      	movs	r0, r4
 8001460:	f7ff fece 	bl	8001200 <ADC_Enable>
    if (tmp_hal_status == HAL_OK)
 8001464:	2800      	cmp	r0, #0
 8001466:	d1f9      	bne.n	800145c <HAL_ADC_Start_DMA+0x74>
 8001468:	e7d1      	b.n	800140e <HAL_ADC_Start_DMA+0x26>
 800146a:	46c0      	nop			; (mov r8, r8)
 800146c:	fffff0fe 	.word	0xfffff0fe
 8001470:	0800147d 	.word	0x0800147d
 8001474:	080014ef 	.word	0x080014ef
 8001478:	080014fb 	.word	0x080014fb

0800147c <ADC_DMAConvCplt>:
{
  /* Retrieve ADC handle corresponding to current DMA handle */
  ADC_HandleTypeDef* hadc = ( ADC_HandleTypeDef* )((DMA_HandleTypeDef* )hdma)->Parent;
  
  /* Update state machine on conversion status if not in error state */
  if (HAL_IS_BIT_CLR(hadc->State, HAL_ADC_STATE_ERROR_INTERNAL | HAL_ADC_STATE_ERROR_DMA))
 800147c:	2250      	movs	r2, #80	; 0x50
  ADC_HandleTypeDef* hadc = ( ADC_HandleTypeDef* )((DMA_HandleTypeDef* )hdma)->Parent;
 800147e:	6a43      	ldr	r3, [r0, #36]	; 0x24
{
 8001480:	b510      	push	{r4, lr}
  if (HAL_IS_BIT_CLR(hadc->State, HAL_ADC_STATE_ERROR_INTERNAL | HAL_ADC_STATE_ERROR_DMA))
 8001482:	6b99      	ldr	r1, [r3, #56]	; 0x38
 8001484:	4211      	tst	r1, r2
 8001486:	d12a      	bne.n	80014de <ADC_DMAConvCplt+0x62>
  {
    /* Set ADC state */
    SET_BIT(hadc->State, HAL_ADC_STATE_REG_EOC); 
 8001488:	6b99      	ldr	r1, [r3, #56]	; 0x38
 800148a:	32b1      	adds	r2, #177	; 0xb1
 800148c:	32ff      	adds	r2, #255	; 0xff
 800148e:	430a      	orrs	r2, r1
    
    /* Determine whether any further conversion upcoming on group regular     */
    /* by external trigger, continuous mode or scan sequence on going.        */
    if(ADC_IS_SOFTWARE_START_REGULAR(hadc)        && 
 8001490:	21c0      	movs	r1, #192	; 0xc0
    SET_BIT(hadc->State, HAL_ADC_STATE_REG_EOC); 
 8001492:	639a      	str	r2, [r3, #56]	; 0x38
    if(ADC_IS_SOFTWARE_START_REGULAR(hadc)        && 
 8001494:	681a      	ldr	r2, [r3, #0]
 8001496:	0109      	lsls	r1, r1, #4
 8001498:	68d0      	ldr	r0, [r2, #12]
 800149a:	4208      	tst	r0, r1
 800149c:	d112      	bne.n	80014c4 <ADC_DMAConvCplt+0x48>
 800149e:	7e99      	ldrb	r1, [r3, #26]
 80014a0:	2900      	cmp	r1, #0
 80014a2:	d10f      	bne.n	80014c4 <ADC_DMAConvCplt+0x48>
       (hadc->Init.ContinuousConvMode == DISABLE)   )
    {
      /* If End of Sequence is reached, disable interrupts */
      if( __HAL_ADC_GET_FLAG(hadc, ADC_FLAG_EOS) )
 80014a4:	6811      	ldr	r1, [r2, #0]
 80014a6:	0709      	lsls	r1, r1, #28
 80014a8:	d50c      	bpl.n	80014c4 <ADC_DMAConvCplt+0x48>
      {
        /* Allowed to modify bits ADC_IT_EOC/ADC_IT_EOS only if bit           */
        /* ADSTART==0 (no conversion on going)                                */
        if (ADC_IS_CONVERSION_ONGOING_REGULAR(hadc) == RESET)
 80014aa:	6891      	ldr	r1, [r2, #8]
 80014ac:	0749      	lsls	r1, r1, #29
 80014ae:	d40d      	bmi.n	80014cc <ADC_DMAConvCplt+0x50>
        {
          /* Disable ADC end of single conversion interrupt on group regular */
          /* Note: Overrun interrupt was enabled with EOC interrupt in        */
          /* HAL_Start_IT(), but is not disabled here because can be used     */
          /* by overrun IRQ process below.                                    */
          __HAL_ADC_DISABLE_IT(hadc, ADC_IT_EOC | ADC_IT_EOS);
 80014b0:	200c      	movs	r0, #12
 80014b2:	6851      	ldr	r1, [r2, #4]
 80014b4:	4381      	bics	r1, r0
 80014b6:	6051      	str	r1, [r2, #4]
          
          /* Set ADC state */
          ADC_STATE_CLR_SET(hadc->State,
 80014b8:	6b9a      	ldr	r2, [r3, #56]	; 0x38
 80014ba:	490b      	ldr	r1, [pc, #44]	; (80014e8 <ADC_DMAConvCplt+0x6c>)
 80014bc:	4011      	ands	r1, r2
 80014be:	2201      	movs	r2, #1
 80014c0:	430a      	orrs	r2, r1
 80014c2:	639a      	str	r2, [r3, #56]	; 0x38

    /* Conversion complete callback */
#if (USE_HAL_ADC_REGISTER_CALLBACKS == 1)
    hadc->ConvCpltCallback(hadc);
#else
    HAL_ADC_ConvCpltCallback(hadc);
 80014c4:	0018      	movs	r0, r3
 80014c6:	f004 facb 	bl	8005a60 <HAL_ADC_ConvCpltCallback>
  {
    /* Call DMA error callback */
    hadc->DMA_Handle->XferErrorCallback(hdma);
  }

}
 80014ca:	bd10      	pop	{r4, pc}
          SET_BIT(hadc->State, HAL_ADC_STATE_ERROR_CONFIG);
 80014cc:	2220      	movs	r2, #32
 80014ce:	6b99      	ldr	r1, [r3, #56]	; 0x38
 80014d0:	430a      	orrs	r2, r1
 80014d2:	639a      	str	r2, [r3, #56]	; 0x38
          SET_BIT(hadc->ErrorCode, HAL_ADC_ERROR_INTERNAL);
 80014d4:	2201      	movs	r2, #1
 80014d6:	6bd9      	ldr	r1, [r3, #60]	; 0x3c
 80014d8:	430a      	orrs	r2, r1
 80014da:	63da      	str	r2, [r3, #60]	; 0x3c
 80014dc:	e7f2      	b.n	80014c4 <ADC_DMAConvCplt+0x48>
    hadc->DMA_Handle->XferErrorCallback(hdma);
 80014de:	6b1b      	ldr	r3, [r3, #48]	; 0x30
 80014e0:	6b1b      	ldr	r3, [r3, #48]	; 0x30
 80014e2:	4798      	blx	r3
}
 80014e4:	e7f1      	b.n	80014ca <ADC_DMAConvCplt+0x4e>
 80014e6:	46c0      	nop			; (mov r8, r8)
 80014e8:	fffffefe 	.word	0xfffffefe

080014ec <HAL_ADC_ConvHalfCpltCallback>:
 80014ec:	4770      	bx	lr

080014ee <ADC_DMAHalfConvCplt>:
  * @brief  DMA half transfer complete callback. 
  * @param  hdma pointer to DMA handle.
  * @retval None
  */
static void ADC_DMAHalfConvCplt(DMA_HandleTypeDef *hdma)   
{
 80014ee:	b510      	push	{r4, lr}
  
  /* Half conversion callback */
#if (USE_HAL_ADC_REGISTER_CALLBACKS == 1)
    hadc->ConvHalfCpltCallback(hadc);
#else
  HAL_ADC_ConvHalfCpltCallback(hadc); 
 80014f0:	6a40      	ldr	r0, [r0, #36]	; 0x24
 80014f2:	f7ff fffb 	bl	80014ec <HAL_ADC_ConvHalfCpltCallback>
#endif /* USE_HAL_ADC_REGISTER_CALLBACKS */
}
 80014f6:	bd10      	pop	{r4, pc}

080014f8 <HAL_ADC_ErrorCallback>:
}
 80014f8:	4770      	bx	lr

080014fa <ADC_DMAError>:
{
  /* Retrieve ADC handle corresponding to current DMA handle */
  ADC_HandleTypeDef* hadc = ( ADC_HandleTypeDef* )((DMA_HandleTypeDef* )hdma)->Parent;
  
  /* Set ADC state */
  SET_BIT(hadc->State, HAL_ADC_STATE_ERROR_DMA);
 80014fa:	2340      	movs	r3, #64	; 0x40
  ADC_HandleTypeDef* hadc = ( ADC_HandleTypeDef* )((DMA_HandleTypeDef* )hdma)->Parent;
 80014fc:	6a40      	ldr	r0, [r0, #36]	; 0x24
{
 80014fe:	b510      	push	{r4, lr}
  SET_BIT(hadc->State, HAL_ADC_STATE_ERROR_DMA);
 8001500:	6b82      	ldr	r2, [r0, #56]	; 0x38
 8001502:	4313      	orrs	r3, r2
 8001504:	6383      	str	r3, [r0, #56]	; 0x38
  
  /* Set ADC error code to DMA error */
  SET_BIT(hadc->ErrorCode, HAL_ADC_ERROR_DMA);
 8001506:	2304      	movs	r3, #4
 8001508:	6bc2      	ldr	r2, [r0, #60]	; 0x3c
 800150a:	4313      	orrs	r3, r2
 800150c:	63c3      	str	r3, [r0, #60]	; 0x3c
  
  /* Error callback */
#if (USE_HAL_ADC_REGISTER_CALLBACKS == 1)
  hadc->ErrorCallback(hadc);
#else
  HAL_ADC_ErrorCallback(hadc); 
 800150e:	f7ff fff3 	bl	80014f8 <HAL_ADC_ErrorCallback>
#endif /* USE_HAL_ADC_REGISTER_CALLBACKS */
}
 8001512:	bd10      	pop	{r4, pc}

08001514 <HAL_ADC_ConfigChannel>:
{
 8001514:	b5f7      	push	{r0, r1, r2, r4, r5, r6, r7, lr}
  __IO uint32_t wait_loop_index = 0U;
 8001516:	2300      	movs	r3, #0
  __HAL_LOCK(hadc);
 8001518:	0004      	movs	r4, r0
  __IO uint32_t wait_loop_index = 0U;
 800151a:	9301      	str	r3, [sp, #4]
  __HAL_LOCK(hadc);
 800151c:	3434      	adds	r4, #52	; 0x34
 800151e:	7823      	ldrb	r3, [r4, #0]
{
 8001520:	0005      	movs	r5, r0
  __HAL_LOCK(hadc);
 8001522:	2002      	movs	r0, #2
 8001524:	2b01      	cmp	r3, #1
 8001526:	d02b      	beq.n	8001580 <HAL_ADC_ConfigChannel+0x6c>
 8001528:	2301      	movs	r3, #1
  if (ADC_IS_CONVERSION_ONGOING_REGULAR(hadc) == RESET)
 800152a:	682a      	ldr	r2, [r5, #0]
  if (! IS_ADC_SAMPLE_TIME(hadc->Init.SamplingTimeCommon))
 800152c:	6aee      	ldr	r6, [r5, #44]	; 0x2c
  if (ADC_IS_CONVERSION_ONGOING_REGULAR(hadc) == RESET)
 800152e:	6890      	ldr	r0, [r2, #8]
  __HAL_LOCK(hadc);
 8001530:	7023      	strb	r3, [r4, #0]
  if (ADC_IS_CONVERSION_ONGOING_REGULAR(hadc) == RESET)
 8001532:	0740      	lsls	r0, r0, #29
 8001534:	d45a      	bmi.n	80015ec <HAL_ADC_ConfigChannel+0xd8>
    if (sConfig->Rank != ADC_RANK_NONE)
 8001536:	4830      	ldr	r0, [pc, #192]	; (80015f8 <HAL_ADC_ConfigChannel+0xe4>)
 8001538:	684f      	ldr	r7, [r1, #4]
 800153a:	680d      	ldr	r5, [r1, #0]
 800153c:	4287      	cmp	r7, r0
 800153e:	d03f      	beq.n	80015c0 <HAL_ADC_ConfigChannel+0xac>
      hadc->Instance->CHSELR |= ADC_CHSELR_CHANNEL(sConfig->Channel);
 8001540:	40ab      	lsls	r3, r5
 8001542:	0018      	movs	r0, r3
      if (! IS_ADC_SAMPLE_TIME(hadc->Init.SamplingTimeCommon))
 8001544:	2380      	movs	r3, #128	; 0x80
      hadc->Instance->CHSELR |= ADC_CHSELR_CHANNEL(sConfig->Channel);
 8001546:	6a97      	ldr	r7, [r2, #40]	; 0x28
      if (! IS_ADC_SAMPLE_TIME(hadc->Init.SamplingTimeCommon))
 8001548:	055b      	lsls	r3, r3, #21
      hadc->Instance->CHSELR |= ADC_CHSELR_CHANNEL(sConfig->Channel);
 800154a:	4338      	orrs	r0, r7
 800154c:	6290      	str	r0, [r2, #40]	; 0x28
      if (! IS_ADC_SAMPLE_TIME(hadc->Init.SamplingTimeCommon))
 800154e:	429e      	cmp	r6, r3
 8001550:	d00f      	beq.n	8001572 <HAL_ADC_ConfigChannel+0x5e>
 8001552:	3e01      	subs	r6, #1
 8001554:	2e06      	cmp	r6, #6
 8001556:	d90c      	bls.n	8001572 <HAL_ADC_ConfigChannel+0x5e>
        if (sConfig->SamplingTime != ADC_GET_SAMPLINGTIME(hadc))
 8001558:	688b      	ldr	r3, [r1, #8]
 800155a:	2107      	movs	r1, #7
 800155c:	6950      	ldr	r0, [r2, #20]
 800155e:	4008      	ands	r0, r1
 8001560:	4283      	cmp	r3, r0
 8001562:	d006      	beq.n	8001572 <HAL_ADC_ConfigChannel+0x5e>
          hadc->Instance->SMPR &= ~(ADC_SMPR_SMP);
 8001564:	6950      	ldr	r0, [r2, #20]
          hadc->Instance->SMPR |= ADC_SMPR_SET(sConfig->SamplingTime);
 8001566:	400b      	ands	r3, r1
          hadc->Instance->SMPR &= ~(ADC_SMPR_SMP);
 8001568:	4388      	bics	r0, r1
 800156a:	6150      	str	r0, [r2, #20]
          hadc->Instance->SMPR |= ADC_SMPR_SET(sConfig->SamplingTime);
 800156c:	6950      	ldr	r0, [r2, #20]
 800156e:	4303      	orrs	r3, r0
 8001570:	6153      	str	r3, [r2, #20]
      if(ADC_IS_CHANNEL_INTERNAL(sConfig->Channel))
 8001572:	002b      	movs	r3, r5
 8001574:	3b10      	subs	r3, #16
 8001576:	2b02      	cmp	r3, #2
 8001578:	d903      	bls.n	8001582 <HAL_ADC_ConfigChannel+0x6e>
  HAL_StatusTypeDef tmp_hal_status = HAL_OK;
 800157a:	2000      	movs	r0, #0
  __HAL_UNLOCK(hadc);
 800157c:	2300      	movs	r3, #0
 800157e:	7023      	strb	r3, [r4, #0]
}
 8001580:	bdfe      	pop	{r1, r2, r3, r4, r5, r6, r7, pc}
        ADC->CCR |= ADC_CHANNEL_INTERNAL_PATH(sConfig->Channel);
 8001582:	4a1e      	ldr	r2, [pc, #120]	; (80015fc <HAL_ADC_ConfigChannel+0xe8>)
 8001584:	2380      	movs	r3, #128	; 0x80
 8001586:	6811      	ldr	r1, [r2, #0]
 8001588:	2d10      	cmp	r5, #16
 800158a:	d015      	beq.n	80015b8 <HAL_ADC_ConfigChannel+0xa4>
 800158c:	2d11      	cmp	r5, #17
 800158e:	d015      	beq.n	80015bc <HAL_ADC_ConfigChannel+0xa8>
 8001590:	045b      	lsls	r3, r3, #17
 8001592:	430b      	orrs	r3, r1
 8001594:	6013      	str	r3, [r2, #0]
        if (sConfig->Channel == ADC_CHANNEL_TEMPSENSOR)
 8001596:	2d10      	cmp	r5, #16
 8001598:	d1ef      	bne.n	800157a <HAL_ADC_ConfigChannel+0x66>
          wait_loop_index = (ADC_TEMPSENSOR_DELAY_US * (SystemCoreClock / 1000000U));
 800159a:	4b19      	ldr	r3, [pc, #100]	; (8001600 <HAL_ADC_ConfigChannel+0xec>)
 800159c:	4919      	ldr	r1, [pc, #100]	; (8001604 <HAL_ADC_ConfigChannel+0xf0>)
 800159e:	6818      	ldr	r0, [r3, #0]
 80015a0:	f7fe fdce 	bl	8000140 <__udivsi3>
 80015a4:	230a      	movs	r3, #10
 80015a6:	4358      	muls	r0, r3
 80015a8:	9001      	str	r0, [sp, #4]
          while(wait_loop_index != 0U)
 80015aa:	9b01      	ldr	r3, [sp, #4]
 80015ac:	2b00      	cmp	r3, #0
 80015ae:	d0e4      	beq.n	800157a <HAL_ADC_ConfigChannel+0x66>
            wait_loop_index--;
 80015b0:	9b01      	ldr	r3, [sp, #4]
 80015b2:	3b01      	subs	r3, #1
 80015b4:	9301      	str	r3, [sp, #4]
 80015b6:	e7f8      	b.n	80015aa <HAL_ADC_ConfigChannel+0x96>
        ADC->CCR |= ADC_CHANNEL_INTERNAL_PATH(sConfig->Channel);
 80015b8:	041b      	lsls	r3, r3, #16
 80015ba:	e7ea      	b.n	8001592 <HAL_ADC_ConfigChannel+0x7e>
 80015bc:	03db      	lsls	r3, r3, #15
 80015be:	e7e8      	b.n	8001592 <HAL_ADC_ConfigChannel+0x7e>
      hadc->Instance->CHSELR &= ~ADC_CHSELR_CHANNEL(sConfig->Channel);
 80015c0:	40ab      	lsls	r3, r5
 80015c2:	6a91      	ldr	r1, [r2, #40]	; 0x28
 80015c4:	4399      	bics	r1, r3
      if(ADC_IS_CHANNEL_INTERNAL(sConfig->Channel))
 80015c6:	002b      	movs	r3, r5
 80015c8:	3b10      	subs	r3, #16
      hadc->Instance->CHSELR &= ~ADC_CHSELR_CHANNEL(sConfig->Channel);
 80015ca:	6291      	str	r1, [r2, #40]	; 0x28
      if(ADC_IS_CHANNEL_INTERNAL(sConfig->Channel))
 80015cc:	2b02      	cmp	r3, #2
 80015ce:	d8d4      	bhi.n	800157a <HAL_ADC_ConfigChannel+0x66>
        ADC->CCR &= ~ADC_CHANNEL_INTERNAL_PATH(sConfig->Channel);
 80015d0:	4b0a      	ldr	r3, [pc, #40]	; (80015fc <HAL_ADC_ConfigChannel+0xe8>)
 80015d2:	681a      	ldr	r2, [r3, #0]
 80015d4:	2d10      	cmp	r5, #16
 80015d6:	d005      	beq.n	80015e4 <HAL_ADC_ConfigChannel+0xd0>
 80015d8:	2d11      	cmp	r5, #17
 80015da:	d005      	beq.n	80015e8 <HAL_ADC_ConfigChannel+0xd4>
 80015dc:	490a      	ldr	r1, [pc, #40]	; (8001608 <HAL_ADC_ConfigChannel+0xf4>)
 80015de:	400a      	ands	r2, r1
 80015e0:	601a      	str	r2, [r3, #0]
 80015e2:	e7ca      	b.n	800157a <HAL_ADC_ConfigChannel+0x66>
 80015e4:	4909      	ldr	r1, [pc, #36]	; (800160c <HAL_ADC_ConfigChannel+0xf8>)
 80015e6:	e7fa      	b.n	80015de <HAL_ADC_ConfigChannel+0xca>
 80015e8:	4909      	ldr	r1, [pc, #36]	; (8001610 <HAL_ADC_ConfigChannel+0xfc>)
 80015ea:	e7f8      	b.n	80015de <HAL_ADC_ConfigChannel+0xca>
    SET_BIT(hadc->State, HAL_ADC_STATE_ERROR_CONFIG);
 80015ec:	2220      	movs	r2, #32
 80015ee:	6ba9      	ldr	r1, [r5, #56]	; 0x38
    tmp_hal_status = HAL_ERROR;
 80015f0:	0018      	movs	r0, r3
    SET_BIT(hadc->State, HAL_ADC_STATE_ERROR_CONFIG);
 80015f2:	430a      	orrs	r2, r1
 80015f4:	63aa      	str	r2, [r5, #56]	; 0x38
 80015f6:	e7c1      	b.n	800157c <HAL_ADC_ConfigChannel+0x68>
 80015f8:	00001001 	.word	0x00001001
 80015fc:	40012708 	.word	0x40012708
 8001600:	2000000c 	.word	0x2000000c
 8001604:	000f4240 	.word	0x000f4240
 8001608:	feffffff 	.word	0xfeffffff
 800160c:	ff7fffff 	.word	0xff7fffff
 8001610:	ffbfffff 	.word	0xffbfffff

08001614 <HAL_ADCEx_Calibration_Start>:
  *         HAL_ADC_GetValue() (value on 7 bits: from DR[6;0]).
  * @param  hadc ADC handle
  * @retval HAL status
  */
HAL_StatusTypeDef HAL_ADCEx_Calibration_Start(ADC_HandleTypeDef* hadc)
{
 8001614:	b5f8      	push	{r3, r4, r5, r6, r7, lr}
  
  /* Check the parameters */
  assert_param(IS_ADC_ALL_INSTANCE(hadc->Instance));

  /* Process locked */
  __HAL_LOCK(hadc);
 8001616:	0006      	movs	r6, r0
 8001618:	3634      	adds	r6, #52	; 0x34
 800161a:	7833      	ldrb	r3, [r6, #0]
{
 800161c:	0004      	movs	r4, r0
  __HAL_LOCK(hadc);
 800161e:	2002      	movs	r0, #2
 8001620:	2b01      	cmp	r3, #1
 8001622:	d042      	beq.n	80016aa <HAL_ADCEx_Calibration_Start+0x96>
 8001624:	2301      	movs	r3, #1
  
  /* Calibration prerequisite: ADC must be disabled. */
  if (ADC_IS_ENABLE(hadc) == RESET)
 8001626:	2103      	movs	r1, #3
  __HAL_LOCK(hadc);
 8001628:	7033      	strb	r3, [r6, #0]
  if (ADC_IS_ENABLE(hadc) == RESET)
 800162a:	6823      	ldr	r3, [r4, #0]
 800162c:	689a      	ldr	r2, [r3, #8]
 800162e:	400a      	ands	r2, r1
 8001630:	2a01      	cmp	r2, #1
 8001632:	d105      	bne.n	8001640 <HAL_ADCEx_Calibration_Start+0x2c>
 8001634:	6819      	ldr	r1, [r3, #0]
 8001636:	4211      	tst	r1, r2
 8001638:	d138      	bne.n	80016ac <HAL_ADCEx_Calibration_Start+0x98>
 800163a:	68da      	ldr	r2, [r3, #12]
 800163c:	0412      	lsls	r2, r2, #16
 800163e:	d435      	bmi.n	80016ac <HAL_ADCEx_Calibration_Start+0x98>
  {
    /* Set ADC state */
    ADC_STATE_CLR_SET(hadc->State, 
 8001640:	6ba2      	ldr	r2, [r4, #56]	; 0x38
 8001642:	491d      	ldr	r1, [pc, #116]	; (80016b8 <HAL_ADCEx_Calibration_Start+0xa4>)
 8001644:	4011      	ands	r1, r2
 8001646:	2202      	movs	r2, #2
 8001648:	430a      	orrs	r2, r1
    /*       available in data register and also transfered by DMA.           */
    /*       To not insert ADC calibration factor among ADC conversion data   */
    /*       in array variable, DMA transfer must be disabled during          */
    /*       calibration.                                                     */
    backup_setting_adc_dma_transfer = READ_BIT(hadc->Instance->CFGR1, ADC_CFGR1_DMAEN | ADC_CFGR1_DMACFG);
    CLEAR_BIT(hadc->Instance->CFGR1, ADC_CFGR1_DMAEN | ADC_CFGR1_DMACFG);
 800164a:	2103      	movs	r1, #3
    ADC_STATE_CLR_SET(hadc->State, 
 800164c:	63a2      	str	r2, [r4, #56]	; 0x38
    backup_setting_adc_dma_transfer = READ_BIT(hadc->Instance->CFGR1, ADC_CFGR1_DMAEN | ADC_CFGR1_DMACFG);
 800164e:	68dd      	ldr	r5, [r3, #12]
    CLEAR_BIT(hadc->Instance->CFGR1, ADC_CFGR1_DMAEN | ADC_CFGR1_DMACFG);
 8001650:	68da      	ldr	r2, [r3, #12]
 8001652:	438a      	bics	r2, r1
 8001654:	60da      	str	r2, [r3, #12]

    /* Start ADC calibration */
    hadc->Instance->CR |= ADC_CR_ADCAL;
 8001656:	2280      	movs	r2, #128	; 0x80
 8001658:	6899      	ldr	r1, [r3, #8]
 800165a:	0612      	lsls	r2, r2, #24
 800165c:	430a      	orrs	r2, r1
 800165e:	609a      	str	r2, [r3, #8]

    tickstart = HAL_GetTick();  
 8001660:	f7ff fdb6 	bl	80011d0 <HAL_GetTick>
 8001664:	0007      	movs	r7, r0

    /* Wait for calibration completion */
    while(HAL_IS_BIT_SET(hadc->Instance->CR, ADC_CR_ADCAL))
 8001666:	6823      	ldr	r3, [r4, #0]
 8001668:	689a      	ldr	r2, [r3, #8]
 800166a:	2a00      	cmp	r2, #0
 800166c:	db0e      	blt.n	800168c <HAL_ADCEx_Calibration_Start+0x78>
    backup_setting_adc_dma_transfer = READ_BIT(hadc->Instance->CFGR1, ADC_CFGR1_DMAEN | ADC_CFGR1_DMACFG);
 800166e:	2203      	movs	r2, #3
        return HAL_ERROR;
      }
    }
    
    /* Restore ADC DMA transfer request after calibration */
    SET_BIT(hadc->Instance->CFGR1, backup_setting_adc_dma_transfer);
 8001670:	68d9      	ldr	r1, [r3, #12]
    backup_setting_adc_dma_transfer = READ_BIT(hadc->Instance->CFGR1, ADC_CFGR1_DMAEN | ADC_CFGR1_DMACFG);
 8001672:	4015      	ands	r5, r2
    SET_BIT(hadc->Instance->CFGR1, backup_setting_adc_dma_transfer);
 8001674:	430d      	orrs	r5, r1
 8001676:	60dd      	str	r5, [r3, #12]

    /* Set ADC state */
    ADC_STATE_CLR_SET(hadc->State,
 8001678:	6ba3      	ldr	r3, [r4, #56]	; 0x38
  HAL_StatusTypeDef tmp_hal_status = HAL_OK;
 800167a:	2000      	movs	r0, #0
    ADC_STATE_CLR_SET(hadc->State,
 800167c:	4393      	bics	r3, r2
 800167e:	001a      	movs	r2, r3
 8001680:	2301      	movs	r3, #1
 8001682:	4313      	orrs	r3, r2
 8001684:	63a3      	str	r3, [r4, #56]	; 0x38
    
    tmp_hal_status = HAL_ERROR;
  }
  
  /* Process unlocked */
  __HAL_UNLOCK(hadc);
 8001686:	2300      	movs	r3, #0
 8001688:	7033      	strb	r3, [r6, #0]
  
  /* Return function status */
  return tmp_hal_status;
 800168a:	e00e      	b.n	80016aa <HAL_ADCEx_Calibration_Start+0x96>
      if((HAL_GetTick() - tickstart) > ADC_CALIBRATION_TIMEOUT)
 800168c:	f7ff fda0 	bl	80011d0 <HAL_GetTick>
 8001690:	1bc0      	subs	r0, r0, r7
 8001692:	2802      	cmp	r0, #2
 8001694:	d9e7      	bls.n	8001666 <HAL_ADCEx_Calibration_Start+0x52>
        ADC_STATE_CLR_SET(hadc->State,
 8001696:	2212      	movs	r2, #18
 8001698:	6ba3      	ldr	r3, [r4, #56]	; 0x38
        return HAL_ERROR;
 800169a:	2001      	movs	r0, #1
        ADC_STATE_CLR_SET(hadc->State,
 800169c:	4393      	bics	r3, r2
 800169e:	001a      	movs	r2, r3
 80016a0:	2310      	movs	r3, #16
 80016a2:	4313      	orrs	r3, r2
 80016a4:	63a3      	str	r3, [r4, #56]	; 0x38
        __HAL_UNLOCK(hadc);
 80016a6:	2300      	movs	r3, #0
 80016a8:	7033      	strb	r3, [r6, #0]
}
 80016aa:	bdf8      	pop	{r3, r4, r5, r6, r7, pc}
    SET_BIT(hadc->State, HAL_ADC_STATE_ERROR_CONFIG);
 80016ac:	2320      	movs	r3, #32
 80016ae:	6ba2      	ldr	r2, [r4, #56]	; 0x38
    tmp_hal_status = HAL_ERROR;
 80016b0:	2001      	movs	r0, #1
    SET_BIT(hadc->State, HAL_ADC_STATE_ERROR_CONFIG);
 80016b2:	4313      	orrs	r3, r2
 80016b4:	63a3      	str	r3, [r4, #56]	; 0x38
 80016b6:	e7e6      	b.n	8001686 <HAL_ADCEx_Calibration_Start+0x72>
 80016b8:	fffffefd 	.word	0xfffffefd

080016bc <HAL_NVIC_SetPriority>:
  *         with stm32f0xx devices, this parameter is a dummy value and it is ignored, because 
  *         no subpriority supported in Cortex M0 based products.   
  * @retval None
  */
void HAL_NVIC_SetPriority(IRQn_Type IRQn, uint32_t PreemptPriority, uint32_t SubPriority)
{ 
 80016bc:	b570      	push	{r4, r5, r6, lr}
 80016be:	0189      	lsls	r1, r1, #6
  \param [in]  priority  Priority to set.
  \note    The priority cannot be set for every processor exception.
 */
__STATIC_INLINE void __NVIC_SetPriority(IRQn_Type IRQn, uint32_t priority)
{
  if ((int32_t)(IRQn) >= 0)
 80016c0:	2800      	cmp	r0, #0
 80016c2:	db12      	blt.n	80016ea <HAL_NVIC_SetPriority+0x2e>
  {
    NVIC->IP[_IP_IDX(IRQn)]  = ((uint32_t)(NVIC->IP[_IP_IDX(IRQn)]  & ~(0xFFUL << _BIT_SHIFT(IRQn))) |
 80016c4:	0883      	lsrs	r3, r0, #2
 80016c6:	4a13      	ldr	r2, [pc, #76]	; (8001714 <HAL_NVIC_SetPriority+0x58>)
 80016c8:	2403      	movs	r4, #3
 80016ca:	009b      	lsls	r3, r3, #2
 80016cc:	189b      	adds	r3, r3, r2
 80016ce:	22ff      	movs	r2, #255	; 0xff
 80016d0:	4020      	ands	r0, r4
 80016d2:	40a0      	lsls	r0, r4
 80016d4:	0014      	movs	r4, r2
 80016d6:	25c0      	movs	r5, #192	; 0xc0
 80016d8:	4084      	lsls	r4, r0
       (((priority << (8U - __NVIC_PRIO_BITS)) & (uint32_t)0xFFUL) << _BIT_SHIFT(IRQn)));
 80016da:	4011      	ands	r1, r2
 80016dc:	4081      	lsls	r1, r0
    NVIC->IP[_IP_IDX(IRQn)]  = ((uint32_t)(NVIC->IP[_IP_IDX(IRQn)]  & ~(0xFFUL << _BIT_SHIFT(IRQn))) |
 80016de:	00ad      	lsls	r5, r5, #2
 80016e0:	595e      	ldr	r6, [r3, r5]
 80016e2:	43a6      	bics	r6, r4
 80016e4:	4331      	orrs	r1, r6
 80016e6:	5159      	str	r1, [r3, r5]
  /* Check the parameters */
  assert_param(IS_NVIC_PREEMPTION_PRIORITY(PreemptPriority));
  NVIC_SetPriority(IRQn,PreemptPriority);
}
 80016e8:	bd70      	pop	{r4, r5, r6, pc}
  }
  else
  {
    SCB->SHP[_SHP_IDX(IRQn)] = ((uint32_t)(SCB->SHP[_SHP_IDX(IRQn)] & ~(0xFFUL << _BIT_SHIFT(IRQn))) |
 80016ea:	2403      	movs	r4, #3
 80016ec:	230f      	movs	r3, #15
 80016ee:	b2c0      	uxtb	r0, r0
 80016f0:	4003      	ands	r3, r0
 80016f2:	4020      	ands	r0, r4
 80016f4:	40a0      	lsls	r0, r4
 80016f6:	34fc      	adds	r4, #252	; 0xfc
 80016f8:	0025      	movs	r5, r4
       (((priority << (8U - __NVIC_PRIO_BITS)) & (uint32_t)0xFFUL) << _BIT_SHIFT(IRQn)));
 80016fa:	4021      	ands	r1, r4
    SCB->SHP[_SHP_IDX(IRQn)] = ((uint32_t)(SCB->SHP[_SHP_IDX(IRQn)] & ~(0xFFUL << _BIT_SHIFT(IRQn))) |
 80016fc:	4085      	lsls	r5, r0
       (((priority << (8U - __NVIC_PRIO_BITS)) & (uint32_t)0xFFUL) << _BIT_SHIFT(IRQn)));
 80016fe:	4081      	lsls	r1, r0
    SCB->SHP[_SHP_IDX(IRQn)] = ((uint32_t)(SCB->SHP[_SHP_IDX(IRQn)] & ~(0xFFUL << _BIT_SHIFT(IRQn))) |
 8001700:	3b08      	subs	r3, #8
 8001702:	4a05      	ldr	r2, [pc, #20]	; (8001718 <HAL_NVIC_SetPriority+0x5c>)
 8001704:	089b      	lsrs	r3, r3, #2
 8001706:	009b      	lsls	r3, r3, #2
 8001708:	189b      	adds	r3, r3, r2
 800170a:	69da      	ldr	r2, [r3, #28]
 800170c:	43aa      	bics	r2, r5
 800170e:	4311      	orrs	r1, r2
 8001710:	61d9      	str	r1, [r3, #28]
 8001712:	e7e9      	b.n	80016e8 <HAL_NVIC_SetPriority+0x2c>
 8001714:	e000e100 	.word	0xe000e100
 8001718:	e000ed00 	.word	0xe000ed00

0800171c <HAL_NVIC_EnableIRQ>:
  if ((int32_t)(IRQn) >= 0)
 800171c:	2800      	cmp	r0, #0
 800171e:	db05      	blt.n	800172c <HAL_NVIC_EnableIRQ+0x10>
    NVIC->ISER[0U] = (uint32_t)(1UL << (((uint32_t)IRQn) & 0x1FUL));
 8001720:	231f      	movs	r3, #31
 8001722:	4018      	ands	r0, r3
 8001724:	3b1e      	subs	r3, #30
 8001726:	4083      	lsls	r3, r0
 8001728:	4a01      	ldr	r2, [pc, #4]	; (8001730 <HAL_NVIC_EnableIRQ+0x14>)
 800172a:	6013      	str	r3, [r2, #0]
  /* Check the parameters */
  assert_param(IS_NVIC_DEVICE_IRQ(IRQn));
  
  /* Enable interrupt */
  NVIC_EnableIRQ(IRQn);
}
 800172c:	4770      	bx	lr
 800172e:	46c0      	nop			; (mov r8, r8)
 8001730:	e000e100 	.word	0xe000e100

08001734 <HAL_SYSTICK_Config>:
           function <b>SysTick_Config</b> is not included. In this case, the file <b><i>device</i>.h</b>
           must contain a vendor-specific implementation of this function.
 */
__STATIC_INLINE uint32_t SysTick_Config(uint32_t ticks)
{
  if ((ticks - 1UL) > SysTick_LOAD_RELOAD_Msk)
 8001734:	4a09      	ldr	r2, [pc, #36]	; (800175c <HAL_SYSTICK_Config+0x28>)
 8001736:	1e43      	subs	r3, r0, #1
  {
    return (1UL);                                                   /* Reload value impossible */
 8001738:	2001      	movs	r0, #1
  if ((ticks - 1UL) > SysTick_LOAD_RELOAD_Msk)
 800173a:	4293      	cmp	r3, r2
 800173c:	d80d      	bhi.n	800175a <HAL_SYSTICK_Config+0x26>
    SCB->SHP[_SHP_IDX(IRQn)] = ((uint32_t)(SCB->SHP[_SHP_IDX(IRQn)] & ~(0xFFUL << _BIT_SHIFT(IRQn))) |
 800173e:	21c0      	movs	r1, #192	; 0xc0
  }

  SysTick->LOAD  = (uint32_t)(ticks - 1UL);                         /* set reload register */
 8001740:	4a07      	ldr	r2, [pc, #28]	; (8001760 <HAL_SYSTICK_Config+0x2c>)
    SCB->SHP[_SHP_IDX(IRQn)] = ((uint32_t)(SCB->SHP[_SHP_IDX(IRQn)] & ~(0xFFUL << _BIT_SHIFT(IRQn))) |
 8001742:	4808      	ldr	r0, [pc, #32]	; (8001764 <HAL_SYSTICK_Config+0x30>)
  SysTick->LOAD  = (uint32_t)(ticks - 1UL);                         /* set reload register */
 8001744:	6053      	str	r3, [r2, #4]
    SCB->SHP[_SHP_IDX(IRQn)] = ((uint32_t)(SCB->SHP[_SHP_IDX(IRQn)] & ~(0xFFUL << _BIT_SHIFT(IRQn))) |
 8001746:	6a03      	ldr	r3, [r0, #32]
 8001748:	0609      	lsls	r1, r1, #24
 800174a:	021b      	lsls	r3, r3, #8
 800174c:	0a1b      	lsrs	r3, r3, #8
 800174e:	430b      	orrs	r3, r1
 8001750:	6203      	str	r3, [r0, #32]
  NVIC_SetPriority (SysTick_IRQn, (1UL << __NVIC_PRIO_BITS) - 1UL); /* set Priority for Systick Interrupt */
  SysTick->VAL   = 0UL;                                             /* Load the SysTick Counter Value */
 8001752:	2000      	movs	r0, #0
  SysTick->CTRL  = SysTick_CTRL_CLKSOURCE_Msk |
 8001754:	2307      	movs	r3, #7
  SysTick->VAL   = 0UL;                                             /* Load the SysTick Counter Value */
 8001756:	6090      	str	r0, [r2, #8]
  SysTick->CTRL  = SysTick_CTRL_CLKSOURCE_Msk |
 8001758:	6013      	str	r3, [r2, #0]
  *                  - 1  Function failed.
  */
uint32_t HAL_SYSTICK_Config(uint32_t TicksNumb)
{
   return SysTick_Config(TicksNumb);
}
 800175a:	4770      	bx	lr
 800175c:	00ffffff 	.word	0x00ffffff
 8001760:	e000e010 	.word	0xe000e010
 8001764:	e000ed00 	.word	0xe000ed00

08001768 <HAL_DMA_Init>:
  * @param  hdma Pointer to a DMA_HandleTypeDef structure that contains
  *               the configuration information for the specified DMA Channel.  
  * @retval HAL status
  */
HAL_StatusTypeDef HAL_DMA_Init(DMA_HandleTypeDef *hdma)
{ 
 8001768:	b570      	push	{r4, r5, r6, lr}
 800176a:	0004      	movs	r4, r0
  uint32_t tmp = 0U;
  
  /* Check the DMA handle allocation */
  if(NULL == hdma)
  {
    return HAL_ERROR;
 800176c:	2001      	movs	r0, #1
  if(NULL == hdma)
 800176e:	2c00      	cmp	r4, #0
 8001770:	d024      	beq.n	80017bc <HAL_DMA_Init+0x54>
  assert_param(IS_DMA_MEMORY_DATA_SIZE(hdma->Init.MemDataAlignment));
  assert_param(IS_DMA_MODE(hdma->Init.Mode));
  assert_param(IS_DMA_PRIORITY(hdma->Init.Priority));
  
  /* Change DMA peripheral state */
  hdma->State = HAL_DMA_STATE_BUSY;
 8001772:	2302      	movs	r3, #2

  /* Get the CR register value */
  tmp = hdma->Instance->CCR;
 8001774:	6820      	ldr	r0, [r4, #0]
  hdma->State = HAL_DMA_STATE_BUSY;
 8001776:	1ca5      	adds	r5, r4, #2
 8001778:	77eb      	strb	r3, [r5, #31]
  tmp = hdma->Instance->CCR;
 800177a:	6802      	ldr	r2, [r0, #0]
  
  /* Clear PL, MSIZE, PSIZE, MINC, PINC, CIRC, DIR bits */
  tmp &= ((uint32_t)~(DMA_CCR_PL    | DMA_CCR_MSIZE  | DMA_CCR_PSIZE  | \
 800177c:	4b10      	ldr	r3, [pc, #64]	; (80017c0 <HAL_DMA_Init+0x58>)
                      DMA_CCR_MINC  | DMA_CCR_PINC   | DMA_CCR_CIRC   | \
                      DMA_CCR_DIR));
  
  /* Prepare the DMA Channel configuration */
  tmp |=  hdma->Init.Direction        |
 800177e:	68a1      	ldr	r1, [r4, #8]
  tmp &= ((uint32_t)~(DMA_CCR_PL    | DMA_CCR_MSIZE  | DMA_CCR_PSIZE  | \
 8001780:	401a      	ands	r2, r3
  tmp |=  hdma->Init.Direction        |
 8001782:	6863      	ldr	r3, [r4, #4]
 8001784:	430b      	orrs	r3, r1
          hdma->Init.PeriphInc           | hdma->Init.MemInc           |
 8001786:	68e1      	ldr	r1, [r4, #12]
 8001788:	430b      	orrs	r3, r1
 800178a:	6921      	ldr	r1, [r4, #16]
 800178c:	430b      	orrs	r3, r1
          hdma->Init.PeriphDataAlignment | hdma->Init.MemDataAlignment |
 800178e:	6961      	ldr	r1, [r4, #20]
 8001790:	430b      	orrs	r3, r1
 8001792:	69a1      	ldr	r1, [r4, #24]
 8001794:	430b      	orrs	r3, r1
          hdma->Init.Mode                | hdma->Init.Priority;
 8001796:	69e1      	ldr	r1, [r4, #28]
 8001798:	430b      	orrs	r3, r1
  tmp |=  hdma->Init.Direction        |
 800179a:	4313      	orrs	r3, r2

  /* Write to DMA Channel CR register */
  hdma->Instance->CCR = tmp;  
 800179c:	6003      	str	r3, [r0, #0]
    hdma->DmaBaseAddress = DMA2;
  }
#else
  /* calculation of the channel index */
  /* DMA1 */
  hdma->ChannelIndex = (((uint32_t)hdma->Instance - (uint32_t)DMA1_Channel1) / ((uint32_t)DMA1_Channel2 - (uint32_t)DMA1_Channel1)) << 2U;
 800179e:	4b09      	ldr	r3, [pc, #36]	; (80017c4 <HAL_DMA_Init+0x5c>)
 80017a0:	2114      	movs	r1, #20
 80017a2:	18c0      	adds	r0, r0, r3
 80017a4:	f7fe fccc 	bl	8000140 <__udivsi3>
  hdma->DmaBaseAddress = DMA1;
 80017a8:	4b07      	ldr	r3, [pc, #28]	; (80017c8 <HAL_DMA_Init+0x60>)
  hdma->ChannelIndex = (((uint32_t)hdma->Instance - (uint32_t)DMA1_Channel1) / ((uint32_t)DMA1_Channel2 - (uint32_t)DMA1_Channel1)) << 2U;
 80017aa:	0080      	lsls	r0, r0, #2
 80017ac:	6420      	str	r0, [r4, #64]	; 0x40
  hdma->DmaBaseAddress = DMA1;
 80017ae:	63e3      	str	r3, [r4, #60]	; 0x3c
  hdma->ErrorCode = HAL_DMA_ERROR_NONE;
 80017b0:	2000      	movs	r0, #0
  hdma->State = HAL_DMA_STATE_READY;
 80017b2:	2301      	movs	r3, #1
  hdma->ErrorCode = HAL_DMA_ERROR_NONE;
 80017b4:	63a0      	str	r0, [r4, #56]	; 0x38
  hdma->Lock = HAL_UNLOCKED;
 80017b6:	18e4      	adds	r4, r4, r3
  hdma->State = HAL_DMA_STATE_READY;
 80017b8:	77eb      	strb	r3, [r5, #31]
  hdma->Lock = HAL_UNLOCKED;
 80017ba:	77e0      	strb	r0, [r4, #31]
}  
 80017bc:	bd70      	pop	{r4, r5, r6, pc}
 80017be:	46c0      	nop			; (mov r8, r8)
 80017c0:	ffffc00f 	.word	0xffffc00f
 80017c4:	bffdfff8 	.word	0xbffdfff8
 80017c8:	40020000 	.word	0x40020000

080017cc <HAL_DMA_Start_IT>:
{
 80017cc:	b5f0      	push	{r4, r5, r6, r7, lr}
  __HAL_LOCK(hdma);
 80017ce:	1c46      	adds	r6, r0, #1
 80017d0:	7ff5      	ldrb	r5, [r6, #31]
 80017d2:	2402      	movs	r4, #2
 80017d4:	2d01      	cmp	r5, #1
 80017d6:	d026      	beq.n	8001826 <HAL_DMA_Start_IT+0x5a>
 80017d8:	2501      	movs	r5, #1
 80017da:	77f5      	strb	r5, [r6, #31]
  if(HAL_DMA_STATE_READY == hdma->State)
 80017dc:	1905      	adds	r5, r0, r4
 80017de:	46ac      	mov	ip, r5
 80017e0:	7fed      	ldrb	r5, [r5, #31]
 80017e2:	2700      	movs	r7, #0
 80017e4:	b2ed      	uxtb	r5, r5
 80017e6:	2d01      	cmp	r5, #1
 80017e8:	d129      	bne.n	800183e <HAL_DMA_Start_IT+0x72>
  	hdma->State = HAL_DMA_STATE_BUSY;
 80017ea:	4666      	mov	r6, ip
 80017ec:	77f4      	strb	r4, [r6, #31]
  	hdma->Instance->CCR &= ~DMA_CCR_EN;
 80017ee:	6804      	ldr	r4, [r0, #0]
  	hdma->ErrorCode = HAL_DMA_ERROR_NONE;
 80017f0:	6387      	str	r7, [r0, #56]	; 0x38
  	hdma->Instance->CCR &= ~DMA_CCR_EN;
 80017f2:	6826      	ldr	r6, [r4, #0]
  hdma->DmaBaseAddress->IFCR  = (DMA_FLAG_GL1 << hdma->ChannelIndex);
 80017f4:	6c07      	ldr	r7, [r0, #64]	; 0x40
  	hdma->Instance->CCR &= ~DMA_CCR_EN;
 80017f6:	43ae      	bics	r6, r5
  hdma->DmaBaseAddress->IFCR  = (DMA_FLAG_GL1 << hdma->ChannelIndex);
 80017f8:	40bd      	lsls	r5, r7
  	hdma->Instance->CCR &= ~DMA_CCR_EN;
 80017fa:	6026      	str	r6, [r4, #0]
  hdma->DmaBaseAddress->IFCR  = (DMA_FLAG_GL1 << hdma->ChannelIndex);
 80017fc:	6bc6      	ldr	r6, [r0, #60]	; 0x3c
 80017fe:	6075      	str	r5, [r6, #4]
  hdma->Instance->CNDTR = DataLength;
 8001800:	6063      	str	r3, [r4, #4]
  if((hdma->Init.Direction) == DMA_MEMORY_TO_PERIPH)
 8001802:	6843      	ldr	r3, [r0, #4]
 8001804:	6805      	ldr	r5, [r0, #0]
 8001806:	2b10      	cmp	r3, #16
 8001808:	d10f      	bne.n	800182a <HAL_DMA_Start_IT+0x5e>
    hdma->Instance->CPAR = DstAddress;
 800180a:	60a2      	str	r2, [r4, #8]
    hdma->Instance->CMAR = SrcAddress;
 800180c:	60e1      	str	r1, [r4, #12]
    if(NULL != hdma->XferHalfCpltCallback )
 800180e:	6ac3      	ldr	r3, [r0, #44]	; 0x2c
      hdma->Instance->CCR |= (DMA_IT_TC | DMA_IT_HT | DMA_IT_TE);
 8001810:	6822      	ldr	r2, [r4, #0]
    if(NULL != hdma->XferHalfCpltCallback )
 8001812:	2b00      	cmp	r3, #0
 8001814:	d00c      	beq.n	8001830 <HAL_DMA_Start_IT+0x64>
      hdma->Instance->CCR |= (DMA_IT_TC | DMA_IT_HT | DMA_IT_TE);
 8001816:	230e      	movs	r3, #14
 8001818:	4313      	orrs	r3, r2
  		hdma->Instance->CCR &= ~DMA_IT_HT;
 800181a:	6023      	str	r3, [r4, #0]
  	hdma->Instance->CCR |= DMA_CCR_EN;
 800181c:	2301      	movs	r3, #1
	HAL_StatusTypeDef status = HAL_OK;
 800181e:	2400      	movs	r4, #0
  	hdma->Instance->CCR |= DMA_CCR_EN;
 8001820:	682a      	ldr	r2, [r5, #0]
 8001822:	4313      	orrs	r3, r2
 8001824:	602b      	str	r3, [r5, #0]
} 
 8001826:	0020      	movs	r0, r4
 8001828:	bdf0      	pop	{r4, r5, r6, r7, pc}
    hdma->Instance->CPAR = SrcAddress;
 800182a:	60a1      	str	r1, [r4, #8]
    hdma->Instance->CMAR = DstAddress;
 800182c:	60e2      	str	r2, [r4, #12]
 800182e:	e7ee      	b.n	800180e <HAL_DMA_Start_IT+0x42>
  		hdma->Instance->CCR |= (DMA_IT_TC | DMA_IT_TE);
 8001830:	230a      	movs	r3, #10
 8001832:	4313      	orrs	r3, r2
  		hdma->Instance->CCR &= ~DMA_IT_HT;
 8001834:	2204      	movs	r2, #4
  		hdma->Instance->CCR |= (DMA_IT_TC | DMA_IT_TE);
 8001836:	6023      	str	r3, [r4, #0]
  		hdma->Instance->CCR &= ~DMA_IT_HT;
 8001838:	6823      	ldr	r3, [r4, #0]
 800183a:	4393      	bics	r3, r2
 800183c:	e7ed      	b.n	800181a <HAL_DMA_Start_IT+0x4e>
    __HAL_UNLOCK(hdma); 
 800183e:	77f7      	strb	r7, [r6, #31]
 8001840:	e7f1      	b.n	8001826 <HAL_DMA_Start_IT+0x5a>

08001842 <HAL_DMA_IRQHandler>:
{
 8001842:	b5f8      	push	{r3, r4, r5, r6, r7, lr}
  if ((RESET != (flag_it & (DMA_FLAG_HT1 << hdma->ChannelIndex))) && (RESET != (source_it & DMA_IT_HT)))
 8001844:	2704      	movs	r7, #4
 8001846:	003e      	movs	r6, r7
 8001848:	6c01      	ldr	r1, [r0, #64]	; 0x40
	uint32_t flag_it = hdma->DmaBaseAddress->ISR;
 800184a:	6bc2      	ldr	r2, [r0, #60]	; 0x3c
  if ((RESET != (flag_it & (DMA_FLAG_HT1 << hdma->ChannelIndex))) && (RESET != (source_it & DMA_IT_HT)))
 800184c:	408e      	lsls	r6, r1
	uint32_t flag_it = hdma->DmaBaseAddress->ISR;
 800184e:	6815      	ldr	r5, [r2, #0]
  uint32_t source_it = hdma->Instance->CCR;
 8001850:	6803      	ldr	r3, [r0, #0]
 8001852:	681c      	ldr	r4, [r3, #0]
  if ((RESET != (flag_it & (DMA_FLAG_HT1 << hdma->ChannelIndex))) && (RESET != (source_it & DMA_IT_HT)))
 8001854:	422e      	tst	r6, r5
 8001856:	d00d      	beq.n	8001874 <HAL_DMA_IRQHandler+0x32>
 8001858:	423c      	tst	r4, r7
 800185a:	d00b      	beq.n	8001874 <HAL_DMA_IRQHandler+0x32>
  	if((hdma->Instance->CCR & DMA_CCR_CIRC) == 0U)
 800185c:	6819      	ldr	r1, [r3, #0]
 800185e:	0689      	lsls	r1, r1, #26
 8001860:	d402      	bmi.n	8001868 <HAL_DMA_IRQHandler+0x26>
  		hdma->Instance->CCR &= ~DMA_IT_HT;
 8001862:	6819      	ldr	r1, [r3, #0]
 8001864:	43b9      	bics	r1, r7
 8001866:	6019      	str	r1, [r3, #0]
  	if(hdma->XferHalfCpltCallback != NULL)
 8001868:	6ac3      	ldr	r3, [r0, #44]	; 0x2c
  	hdma->DmaBaseAddress->IFCR = DMA_FLAG_HT1 << hdma->ChannelIndex;
 800186a:	6056      	str	r6, [r2, #4]
  	if(hdma->XferHalfCpltCallback != NULL)
 800186c:	2b00      	cmp	r3, #0
 800186e:	d019      	beq.n	80018a4 <HAL_DMA_IRQHandler+0x62>
    	hdma->XferErrorCallback(hdma);
 8001870:	4798      	blx	r3
}  
 8001872:	e017      	b.n	80018a4 <HAL_DMA_IRQHandler+0x62>
  else if ((RESET != (flag_it & (DMA_FLAG_TC1 << hdma->ChannelIndex))) && (RESET != (source_it & DMA_IT_TC)))
 8001874:	2702      	movs	r7, #2
 8001876:	003e      	movs	r6, r7
 8001878:	408e      	lsls	r6, r1
 800187a:	422e      	tst	r6, r5
 800187c:	d013      	beq.n	80018a6 <HAL_DMA_IRQHandler+0x64>
 800187e:	423c      	tst	r4, r7
 8001880:	d011      	beq.n	80018a6 <HAL_DMA_IRQHandler+0x64>
  	if((hdma->Instance->CCR & DMA_CCR_CIRC) == 0U)
 8001882:	6819      	ldr	r1, [r3, #0]
 8001884:	0689      	lsls	r1, r1, #26
 8001886:	d406      	bmi.n	8001896 <HAL_DMA_IRQHandler+0x54>
  		hdma->Instance->CCR &= ~(DMA_IT_TC | DMA_IT_TE);
 8001888:	240a      	movs	r4, #10
 800188a:	6819      	ldr	r1, [r3, #0]
 800188c:	43a1      	bics	r1, r4
 800188e:	6019      	str	r1, [r3, #0]
  		hdma->State = HAL_DMA_STATE_READY;
 8001890:	2101      	movs	r1, #1
 8001892:	19c3      	adds	r3, r0, r7
 8001894:	77d9      	strb	r1, [r3, #31]
  	hdma->DmaBaseAddress->IFCR = DMA_FLAG_TC1 << hdma->ChannelIndex;
 8001896:	6056      	str	r6, [r2, #4]
  	__HAL_UNLOCK(hdma);
 8001898:	2200      	movs	r2, #0
 800189a:	1c43      	adds	r3, r0, #1
 800189c:	77da      	strb	r2, [r3, #31]
  	if(hdma->XferCpltCallback != NULL)
 800189e:	6a83      	ldr	r3, [r0, #40]	; 0x28
    if(hdma->XferErrorCallback != NULL)
 80018a0:	4293      	cmp	r3, r2
 80018a2:	d1e5      	bne.n	8001870 <HAL_DMA_IRQHandler+0x2e>
}  
 80018a4:	bdf8      	pop	{r3, r4, r5, r6, r7, pc}
  else if (( RESET != (flag_it & (DMA_FLAG_TE1 << hdma->ChannelIndex))) && (RESET != (source_it & DMA_IT_TE)))
 80018a6:	2608      	movs	r6, #8
 80018a8:	0037      	movs	r7, r6
 80018aa:	408f      	lsls	r7, r1
 80018ac:	423d      	tst	r5, r7
 80018ae:	d0f9      	beq.n	80018a4 <HAL_DMA_IRQHandler+0x62>
 80018b0:	4234      	tst	r4, r6
 80018b2:	d0f7      	beq.n	80018a4 <HAL_DMA_IRQHandler+0x62>
    hdma->Instance->CCR &= ~(DMA_IT_TC | DMA_IT_HT | DMA_IT_TE);
 80018b4:	250e      	movs	r5, #14
 80018b6:	681c      	ldr	r4, [r3, #0]
 80018b8:	43ac      	bics	r4, r5
 80018ba:	601c      	str	r4, [r3, #0]
    hdma->DmaBaseAddress->IFCR = DMA_FLAG_GL1 << hdma->ChannelIndex;
 80018bc:	2301      	movs	r3, #1
 80018be:	001c      	movs	r4, r3
 80018c0:	408c      	lsls	r4, r1
 80018c2:	6054      	str	r4, [r2, #4]
    hdma->State = HAL_DMA_STATE_READY;    
 80018c4:	1c82      	adds	r2, r0, #2
    hdma->ErrorCode = HAL_DMA_ERROR_TE;
 80018c6:	6383      	str	r3, [r0, #56]	; 0x38
    hdma->State = HAL_DMA_STATE_READY;    
 80018c8:	77d3      	strb	r3, [r2, #31]
    __HAL_UNLOCK(hdma); 
 80018ca:	2200      	movs	r2, #0
 80018cc:	18c3      	adds	r3, r0, r3
 80018ce:	77da      	strb	r2, [r3, #31]
    if(hdma->XferErrorCallback != NULL)
 80018d0:	6b03      	ldr	r3, [r0, #48]	; 0x30
 80018d2:	e7e5      	b.n	80018a0 <HAL_DMA_IRQHandler+0x5e>

080018d4 <HAL_GPIO_Init>:
  * @param  GPIO_Init pointer to a GPIO_InitTypeDef structure that contains
  *         the configuration information for the specified GPIO peripheral.
  * @retval None
  */
void HAL_GPIO_Init(GPIO_TypeDef  *GPIOx, GPIO_InitTypeDef *GPIO_Init)
{ 
 80018d4:	b5f0      	push	{r4, r5, r6, r7, lr}
  assert_param(IS_GPIO_PIN(GPIO_Init->Pin));
  assert_param(IS_GPIO_MODE(GPIO_Init->Mode));
  assert_param(IS_GPIO_PULL(GPIO_Init->Pull));

  /* Configure the port pins */
  while (((GPIO_Init->Pin) >> position) != 0x00u)
 80018d6:	680b      	ldr	r3, [r1, #0]
{ 
 80018d8:	b087      	sub	sp, #28
  while (((GPIO_Init->Pin) >> position) != 0x00u)
 80018da:	9302      	str	r3, [sp, #8]
  uint32_t position = 0x00u;
 80018dc:	2300      	movs	r3, #0
{ 
 80018de:	9101      	str	r1, [sp, #4]
  while (((GPIO_Init->Pin) >> position) != 0x00u)
 80018e0:	9a02      	ldr	r2, [sp, #8]
 80018e2:	40da      	lsrs	r2, r3
 80018e4:	d101      	bne.n	80018ea <HAL_GPIO_Init+0x16>
      }
    }

    position++;
  } 
}
 80018e6:	b007      	add	sp, #28
 80018e8:	bdf0      	pop	{r4, r5, r6, r7, pc}
    iocurrent = (GPIO_Init->Pin) & (1uL << position);
 80018ea:	2201      	movs	r2, #1
 80018ec:	409a      	lsls	r2, r3
 80018ee:	9203      	str	r2, [sp, #12]
 80018f0:	9903      	ldr	r1, [sp, #12]
 80018f2:	9a02      	ldr	r2, [sp, #8]
 80018f4:	400a      	ands	r2, r1
 80018f6:	9200      	str	r2, [sp, #0]
    if (iocurrent != 0x00u)
 80018f8:	d100      	bne.n	80018fc <HAL_GPIO_Init+0x28>
 80018fa:	e08c      	b.n	8001a16 <HAL_GPIO_Init+0x142>
      if((GPIO_Init->Mode == GPIO_MODE_AF_PP) || (GPIO_Init->Mode == GPIO_MODE_AF_OD))
 80018fc:	9a01      	ldr	r2, [sp, #4]
 80018fe:	2110      	movs	r1, #16
 8001900:	6852      	ldr	r2, [r2, #4]
 8001902:	0016      	movs	r6, r2
 8001904:	438e      	bics	r6, r1
 8001906:	2e02      	cmp	r6, #2
 8001908:	d10e      	bne.n	8001928 <HAL_GPIO_Init+0x54>
        temp &= ~(0xFu << ((position & 0x07u) * 4u));
 800190a:	2507      	movs	r5, #7
 800190c:	401d      	ands	r5, r3
 800190e:	00ad      	lsls	r5, r5, #2
 8001910:	3901      	subs	r1, #1
 8001912:	40a9      	lsls	r1, r5
        temp = GPIOx->AFR[position >> 3u];
 8001914:	08dc      	lsrs	r4, r3, #3
 8001916:	00a4      	lsls	r4, r4, #2
 8001918:	1904      	adds	r4, r0, r4
 800191a:	6a27      	ldr	r7, [r4, #32]
        temp &= ~(0xFu << ((position & 0x07u) * 4u));
 800191c:	438f      	bics	r7, r1
        temp |= ((GPIO_Init->Alternate) << ((position & 0x07u) * 4u));
 800191e:	9901      	ldr	r1, [sp, #4]
 8001920:	6909      	ldr	r1, [r1, #16]
 8001922:	40a9      	lsls	r1, r5
 8001924:	430f      	orrs	r7, r1
        GPIOx->AFR[position >> 3u] = temp;
 8001926:	6227      	str	r7, [r4, #32]
      temp &= ~(GPIO_MODER_MODER0 << (position * 2u));
 8001928:	2403      	movs	r4, #3
 800192a:	005f      	lsls	r7, r3, #1
 800192c:	40bc      	lsls	r4, r7
 800192e:	43e4      	mvns	r4, r4
      temp = GPIOx->MODER;
 8001930:	6805      	ldr	r5, [r0, #0]
      if((GPIO_Init->Mode == GPIO_MODE_OUTPUT_PP) || (GPIO_Init->Mode == GPIO_MODE_AF_PP) ||
 8001932:	3e01      	subs	r6, #1
      temp &= ~(GPIO_MODER_MODER0 << (position * 2u));
 8001934:	4025      	ands	r5, r4
 8001936:	46ac      	mov	ip, r5
      temp |= ((GPIO_Init->Mode & GPIO_MODE) << (position * 2u));
 8001938:	2503      	movs	r5, #3
 800193a:	4015      	ands	r5, r2
 800193c:	40bd      	lsls	r5, r7
 800193e:	4661      	mov	r1, ip
 8001940:	430d      	orrs	r5, r1
      GPIOx->MODER = temp;
 8001942:	6005      	str	r5, [r0, #0]
      if((GPIO_Init->Mode == GPIO_MODE_OUTPUT_PP) || (GPIO_Init->Mode == GPIO_MODE_AF_PP) ||
 8001944:	2e01      	cmp	r6, #1
 8001946:	d80f      	bhi.n	8001968 <HAL_GPIO_Init+0x94>
        temp |= (GPIO_Init->Speed << (position * 2u));
 8001948:	9901      	ldr	r1, [sp, #4]
        temp = GPIOx->OSPEEDR;
 800194a:	6886      	ldr	r6, [r0, #8]
        temp |= (GPIO_Init->Speed << (position * 2u));
 800194c:	68cd      	ldr	r5, [r1, #12]
        temp &= ~(GPIO_OSPEEDER_OSPEEDR0 << (position * 2u));
 800194e:	4026      	ands	r6, r4
        temp |= (GPIO_Init->Speed << (position * 2u));
 8001950:	40bd      	lsls	r5, r7
 8001952:	4335      	orrs	r5, r6
        GPIOx->OSPEEDR = temp;
 8001954:	6085      	str	r5, [r0, #8]
        temp = GPIOx->OTYPER;
 8001956:	6846      	ldr	r6, [r0, #4]
        temp &= ~(GPIO_OTYPER_OT_0 << position) ;
 8001958:	9903      	ldr	r1, [sp, #12]
        temp |= (((GPIO_Init->Mode & GPIO_OUTPUT_TYPE) >> 4u) << position);
 800195a:	0915      	lsrs	r5, r2, #4
        temp &= ~(GPIO_OTYPER_OT_0 << position) ;
 800195c:	438e      	bics	r6, r1
        temp |= (((GPIO_Init->Mode & GPIO_OUTPUT_TYPE) >> 4u) << position);
 800195e:	2101      	movs	r1, #1
 8001960:	400d      	ands	r5, r1
 8001962:	409d      	lsls	r5, r3
 8001964:	4335      	orrs	r5, r6
        GPIOx->OTYPER = temp;
 8001966:	6045      	str	r5, [r0, #4]
      temp = GPIOx->PUPDR;
 8001968:	68c5      	ldr	r5, [r0, #12]
      temp |= ((GPIO_Init->Pull) << (position * 2u));
 800196a:	9901      	ldr	r1, [sp, #4]
      temp &= ~(GPIO_PUPDR_PUPDR0 << (position * 2u));
 800196c:	402c      	ands	r4, r5
      temp |= ((GPIO_Init->Pull) << (position * 2u));
 800196e:	688d      	ldr	r5, [r1, #8]
      if((GPIO_Init->Mode & EXTI_MODE) == EXTI_MODE)
 8001970:	2180      	movs	r1, #128	; 0x80
      temp |= ((GPIO_Init->Pull) << (position * 2u));
 8001972:	40bd      	lsls	r5, r7
      if((GPIO_Init->Mode & EXTI_MODE) == EXTI_MODE)
 8001974:	0549      	lsls	r1, r1, #21
      temp |= ((GPIO_Init->Pull) << (position * 2u));
 8001976:	432c      	orrs	r4, r5
      GPIOx->PUPDR = temp;
 8001978:	60c4      	str	r4, [r0, #12]
      if((GPIO_Init->Mode & EXTI_MODE) == EXTI_MODE)
 800197a:	420a      	tst	r2, r1
 800197c:	d04b      	beq.n	8001a16 <HAL_GPIO_Init+0x142>
        __HAL_RCC_SYSCFG_CLK_ENABLE();
 800197e:	2101      	movs	r1, #1
 8001980:	4c26      	ldr	r4, [pc, #152]	; (8001a1c <HAL_GPIO_Init+0x148>)
        temp &= ~(0x0FuL << (4u * (position & 0x03u)));
 8001982:	2603      	movs	r6, #3
        __HAL_RCC_SYSCFG_CLK_ENABLE();
 8001984:	69a5      	ldr	r5, [r4, #24]
        temp &= ~(0x0FuL << (4u * (position & 0x03u)));
 8001986:	401e      	ands	r6, r3
        __HAL_RCC_SYSCFG_CLK_ENABLE();
 8001988:	430d      	orrs	r5, r1
 800198a:	61a5      	str	r5, [r4, #24]
 800198c:	69a4      	ldr	r4, [r4, #24]
        temp = SYSCFG->EXTICR[position >> 2u];
 800198e:	089d      	lsrs	r5, r3, #2
        __HAL_RCC_SYSCFG_CLK_ENABLE();
 8001990:	400c      	ands	r4, r1
 8001992:	9405      	str	r4, [sp, #20]
 8001994:	9c05      	ldr	r4, [sp, #20]
        temp &= ~(0x0FuL << (4u * (position & 0x03u)));
 8001996:	240f      	movs	r4, #15
 8001998:	4921      	ldr	r1, [pc, #132]	; (8001a20 <HAL_GPIO_Init+0x14c>)
 800199a:	00ad      	lsls	r5, r5, #2
 800199c:	00b6      	lsls	r6, r6, #2
 800199e:	186d      	adds	r5, r5, r1
 80019a0:	40b4      	lsls	r4, r6
        temp |= (GPIO_GET_INDEX(GPIOx) << (4u * (position & 0x03u)));
 80019a2:	2190      	movs	r1, #144	; 0x90
        temp = SYSCFG->EXTICR[position >> 2u];
 80019a4:	68af      	ldr	r7, [r5, #8]
        temp |= (GPIO_GET_INDEX(GPIOx) << (4u * (position & 0x03u)));
 80019a6:	05c9      	lsls	r1, r1, #23
        temp &= ~(0x0FuL << (4u * (position & 0x03u)));
 80019a8:	43a7      	bics	r7, r4
        temp |= (GPIO_GET_INDEX(GPIOx) << (4u * (position & 0x03u)));
 80019aa:	2400      	movs	r4, #0
 80019ac:	4288      	cmp	r0, r1
 80019ae:	d00c      	beq.n	80019ca <HAL_GPIO_Init+0xf6>
 80019b0:	491c      	ldr	r1, [pc, #112]	; (8001a24 <HAL_GPIO_Init+0x150>)
 80019b2:	3401      	adds	r4, #1
 80019b4:	4288      	cmp	r0, r1
 80019b6:	d008      	beq.n	80019ca <HAL_GPIO_Init+0xf6>
 80019b8:	491b      	ldr	r1, [pc, #108]	; (8001a28 <HAL_GPIO_Init+0x154>)
 80019ba:	3401      	adds	r4, #1
 80019bc:	4288      	cmp	r0, r1
 80019be:	d004      	beq.n	80019ca <HAL_GPIO_Init+0xf6>
 80019c0:	491a      	ldr	r1, [pc, #104]	; (8001a2c <HAL_GPIO_Init+0x158>)
 80019c2:	3403      	adds	r4, #3
 80019c4:	4288      	cmp	r0, r1
 80019c6:	d100      	bne.n	80019ca <HAL_GPIO_Init+0xf6>
 80019c8:	3c02      	subs	r4, #2
 80019ca:	40b4      	lsls	r4, r6
        temp &= ~(iocurrent);
 80019cc:	9900      	ldr	r1, [sp, #0]
        temp |= (GPIO_GET_INDEX(GPIOx) << (4u * (position & 0x03u)));
 80019ce:	433c      	orrs	r4, r7
          temp |= iocurrent;
 80019d0:	000e      	movs	r6, r1
        SYSCFG->EXTICR[position >> 2u] = temp;
 80019d2:	60ac      	str	r4, [r5, #8]
        temp = EXTI->IMR;
 80019d4:	4c16      	ldr	r4, [pc, #88]	; (8001a30 <HAL_GPIO_Init+0x15c>)
        temp &= ~(iocurrent);
 80019d6:	43cd      	mvns	r5, r1
        temp = EXTI->IMR;
 80019d8:	6827      	ldr	r7, [r4, #0]
          temp |= iocurrent;
 80019da:	433e      	orrs	r6, r7
        if((GPIO_Init->Mode & GPIO_MODE_IT) == GPIO_MODE_IT)
 80019dc:	03d1      	lsls	r1, r2, #15
 80019de:	d401      	bmi.n	80019e4 <HAL_GPIO_Init+0x110>
        temp &= ~(iocurrent);
 80019e0:	003e      	movs	r6, r7
 80019e2:	402e      	ands	r6, r5
        EXTI->IMR = temp;
 80019e4:	6026      	str	r6, [r4, #0]
        temp = EXTI->EMR;
 80019e6:	6867      	ldr	r7, [r4, #4]
          temp |= iocurrent;
 80019e8:	9e00      	ldr	r6, [sp, #0]
 80019ea:	433e      	orrs	r6, r7
        if((GPIO_Init->Mode & GPIO_MODE_EVT) == GPIO_MODE_EVT)
 80019ec:	0391      	lsls	r1, r2, #14
 80019ee:	d401      	bmi.n	80019f4 <HAL_GPIO_Init+0x120>
        temp &= ~(iocurrent);
 80019f0:	003e      	movs	r6, r7
 80019f2:	402e      	ands	r6, r5
        EXTI->EMR = temp;
 80019f4:	6066      	str	r6, [r4, #4]
        temp = EXTI->RTSR;
 80019f6:	68a7      	ldr	r7, [r4, #8]
          temp |= iocurrent;
 80019f8:	9e00      	ldr	r6, [sp, #0]
 80019fa:	433e      	orrs	r6, r7
        if((GPIO_Init->Mode & RISING_EDGE) == RISING_EDGE)
 80019fc:	02d1      	lsls	r1, r2, #11
 80019fe:	d401      	bmi.n	8001a04 <HAL_GPIO_Init+0x130>
        temp &= ~(iocurrent);
 8001a00:	003e      	movs	r6, r7
 8001a02:	402e      	ands	r6, r5
        EXTI->RTSR = temp;
 8001a04:	60a6      	str	r6, [r4, #8]
        temp = EXTI->FTSR;
 8001a06:	68e6      	ldr	r6, [r4, #12]
          temp |= iocurrent;
 8001a08:	9f00      	ldr	r7, [sp, #0]
 8001a0a:	4337      	orrs	r7, r6
        if((GPIO_Init->Mode & FALLING_EDGE) == FALLING_EDGE)
 8001a0c:	0292      	lsls	r2, r2, #10
 8001a0e:	d401      	bmi.n	8001a14 <HAL_GPIO_Init+0x140>
        temp &= ~(iocurrent);
 8001a10:	402e      	ands	r6, r5
 8001a12:	0037      	movs	r7, r6
        EXTI->FTSR = temp;
 8001a14:	60e7      	str	r7, [r4, #12]
    position++;
 8001a16:	3301      	adds	r3, #1
 8001a18:	e762      	b.n	80018e0 <HAL_GPIO_Init+0xc>
 8001a1a:	46c0      	nop			; (mov r8, r8)
 8001a1c:	40021000 	.word	0x40021000
 8001a20:	40010000 	.word	0x40010000
 8001a24:	48000400 	.word	0x48000400
 8001a28:	48000800 	.word	0x48000800
 8001a2c:	48000c00 	.word	0x48000c00
 8001a30:	40010400 	.word	0x40010400

08001a34 <HAL_GPIO_WritePin>:
{
  /* Check the parameters */
  assert_param(IS_GPIO_PIN(GPIO_Pin));
  assert_param(IS_GPIO_PIN_ACTION(PinState));

  if (PinState != GPIO_PIN_RESET)
 8001a34:	2a00      	cmp	r2, #0
 8001a36:	d001      	beq.n	8001a3c <HAL_GPIO_WritePin+0x8>
  {
    GPIOx->BSRR = (uint32_t)GPIO_Pin;
 8001a38:	6181      	str	r1, [r0, #24]
  }
  else
  {
    GPIOx->BRR = (uint32_t)GPIO_Pin;
  }
}
 8001a3a:	4770      	bx	lr
    GPIOx->BRR = (uint32_t)GPIO_Pin;
 8001a3c:	6281      	str	r1, [r0, #40]	; 0x28
}
 8001a3e:	e7fc      	b.n	8001a3a <HAL_GPIO_WritePin+0x6>

08001a40 <HAL_GPIO_TogglePin>:
void HAL_GPIO_TogglePin(GPIO_TypeDef* GPIOx, uint16_t GPIO_Pin)
{
  /* Check the parameters */
  assert_param(IS_GPIO_PIN(GPIO_Pin));

  if ((GPIOx->ODR & GPIO_Pin) != 0X00u)
 8001a40:	6943      	ldr	r3, [r0, #20]
 8001a42:	4219      	tst	r1, r3
 8001a44:	d000      	beq.n	8001a48 <HAL_GPIO_TogglePin+0x8>
  {
    GPIOx->BSRR = (uint32_t)GPIO_Pin << GPIO_NUMBER;
 8001a46:	0409      	lsls	r1, r1, #16
  }
  else
  {
    GPIOx->BSRR = (uint32_t)GPIO_Pin;
 8001a48:	6181      	str	r1, [r0, #24]
  }
}
 8001a4a:	4770      	bx	lr

08001a4c <HAL_GPIO_EXTI_IRQHandler>:
  * @retval None
  */
void HAL_GPIO_EXTI_IRQHandler(uint16_t GPIO_Pin)
{
  /* EXTI line interrupt detected */
  if(__HAL_GPIO_EXTI_GET_IT(GPIO_Pin) != 0x00u)
 8001a4c:	4b04      	ldr	r3, [pc, #16]	; (8001a60 <HAL_GPIO_EXTI_IRQHandler+0x14>)
{
 8001a4e:	b510      	push	{r4, lr}
  if(__HAL_GPIO_EXTI_GET_IT(GPIO_Pin) != 0x00u)
 8001a50:	695a      	ldr	r2, [r3, #20]
 8001a52:	4210      	tst	r0, r2
 8001a54:	d002      	beq.n	8001a5c <HAL_GPIO_EXTI_IRQHandler+0x10>
  { 
    __HAL_GPIO_EXTI_CLEAR_IT(GPIO_Pin);
 8001a56:	6158      	str	r0, [r3, #20]
    HAL_GPIO_EXTI_Callback(GPIO_Pin);
 8001a58:	f003 fffa 	bl	8005a50 <HAL_GPIO_EXTI_Callback>
  }
}
 8001a5c:	bd10      	pop	{r4, pc}
 8001a5e:	46c0      	nop			; (mov r8, r8)
 8001a60:	40010400 	.word	0x40010400

08001a64 <HAL_RCC_OscConfig>:
  *         supported by this macro. User should request a transition to HSE Off
  *         first and then HSE On or HSE Bypass.
  * @retval HAL status
  */
HAL_StatusTypeDef HAL_RCC_OscConfig(RCC_OscInitTypeDef  *RCC_OscInitStruct)
{
 8001a64:	b5f0      	push	{r4, r5, r6, r7, lr}
 8001a66:	0004      	movs	r4, r0
 8001a68:	b085      	sub	sp, #20
  uint32_t tickstart;
  uint32_t pll_config;
  uint32_t pll_config2;

  /* Check Null pointer */
  if(RCC_OscInitStruct == NULL)
 8001a6a:	2800      	cmp	r0, #0
 8001a6c:	d102      	bne.n	8001a74 <HAL_RCC_OscConfig+0x10>
  {
    return HAL_ERROR;
 8001a6e:	2001      	movs	r0, #1
      }
    }
  }

  return HAL_OK;
}
 8001a70:	b005      	add	sp, #20
 8001a72:	bdf0      	pop	{r4, r5, r6, r7, pc}
  if(((RCC_OscInitStruct->OscillatorType) & RCC_OSCILLATORTYPE_HSE) == RCC_OSCILLATORTYPE_HSE)
 8001a74:	6803      	ldr	r3, [r0, #0]
 8001a76:	07db      	lsls	r3, r3, #31
 8001a78:	d42e      	bmi.n	8001ad8 <HAL_RCC_OscConfig+0x74>
  if(((RCC_OscInitStruct->OscillatorType) & RCC_OSCILLATORTYPE_HSI) == RCC_OSCILLATORTYPE_HSI)
 8001a7a:	6823      	ldr	r3, [r4, #0]
 8001a7c:	079b      	lsls	r3, r3, #30
 8001a7e:	d47e      	bmi.n	8001b7e <HAL_RCC_OscConfig+0x11a>
  if(((RCC_OscInitStruct->OscillatorType) & RCC_OSCILLATORTYPE_LSI) == RCC_OSCILLATORTYPE_LSI)
 8001a80:	6823      	ldr	r3, [r4, #0]
 8001a82:	071b      	lsls	r3, r3, #28
 8001a84:	d500      	bpl.n	8001a88 <HAL_RCC_OscConfig+0x24>
 8001a86:	e0ba      	b.n	8001bfe <HAL_RCC_OscConfig+0x19a>
  if(((RCC_OscInitStruct->OscillatorType) & RCC_OSCILLATORTYPE_LSE) == RCC_OSCILLATORTYPE_LSE)
 8001a88:	6823      	ldr	r3, [r4, #0]
 8001a8a:	075b      	lsls	r3, r3, #29
 8001a8c:	d500      	bpl.n	8001a90 <HAL_RCC_OscConfig+0x2c>
 8001a8e:	e0dd      	b.n	8001c4c <HAL_RCC_OscConfig+0x1e8>
  if(((RCC_OscInitStruct->OscillatorType) & RCC_OSCILLATORTYPE_HSI14) == RCC_OSCILLATORTYPE_HSI14)
 8001a90:	6823      	ldr	r3, [r4, #0]
 8001a92:	06db      	lsls	r3, r3, #27
 8001a94:	d51a      	bpl.n	8001acc <HAL_RCC_OscConfig+0x68>
    if(RCC_OscInitStruct->HSI14State == RCC_HSI14_ON)
 8001a96:	6962      	ldr	r2, [r4, #20]
 8001a98:	4db4      	ldr	r5, [pc, #720]	; (8001d6c <HAL_RCC_OscConfig+0x308>)
 8001a9a:	2304      	movs	r3, #4
 8001a9c:	2a01      	cmp	r2, #1
 8001a9e:	d000      	beq.n	8001aa2 <HAL_RCC_OscConfig+0x3e>
 8001aa0:	e149      	b.n	8001d36 <HAL_RCC_OscConfig+0x2d2>
      __HAL_RCC_HSI14ADC_DISABLE();
 8001aa2:	6b69      	ldr	r1, [r5, #52]	; 0x34
      while(__HAL_RCC_GET_FLAG(RCC_FLAG_HSI14RDY) == RESET)
 8001aa4:	2602      	movs	r6, #2
      __HAL_RCC_HSI14ADC_DISABLE();
 8001aa6:	430b      	orrs	r3, r1
 8001aa8:	636b      	str	r3, [r5, #52]	; 0x34
      __HAL_RCC_HSI14_ENABLE();
 8001aaa:	6b6b      	ldr	r3, [r5, #52]	; 0x34
 8001aac:	431a      	orrs	r2, r3
 8001aae:	636a      	str	r2, [r5, #52]	; 0x34
      tickstart = HAL_GetTick();
 8001ab0:	f7ff fb8e 	bl	80011d0 <HAL_GetTick>
 8001ab4:	0007      	movs	r7, r0
      while(__HAL_RCC_GET_FLAG(RCC_FLAG_HSI14RDY) == RESET)
 8001ab6:	6b6b      	ldr	r3, [r5, #52]	; 0x34
 8001ab8:	4233      	tst	r3, r6
 8001aba:	d100      	bne.n	8001abe <HAL_RCC_OscConfig+0x5a>
 8001abc:	e134      	b.n	8001d28 <HAL_RCC_OscConfig+0x2c4>
      __HAL_RCC_HSI14_CALIBRATIONVALUE_ADJUST(RCC_OscInitStruct->HSI14CalibrationValue);
 8001abe:	21f8      	movs	r1, #248	; 0xf8
 8001ac0:	6b6a      	ldr	r2, [r5, #52]	; 0x34
 8001ac2:	69a3      	ldr	r3, [r4, #24]
 8001ac4:	438a      	bics	r2, r1
 8001ac6:	00db      	lsls	r3, r3, #3
 8001ac8:	4313      	orrs	r3, r2
 8001aca:	636b      	str	r3, [r5, #52]	; 0x34
  if ((RCC_OscInitStruct->PLL.PLLState) != RCC_PLL_NONE)
 8001acc:	6a23      	ldr	r3, [r4, #32]
 8001ace:	2b00      	cmp	r3, #0
 8001ad0:	d000      	beq.n	8001ad4 <HAL_RCC_OscConfig+0x70>
 8001ad2:	e157      	b.n	8001d84 <HAL_RCC_OscConfig+0x320>
  return HAL_OK;
 8001ad4:	2000      	movs	r0, #0
 8001ad6:	e7cb      	b.n	8001a70 <HAL_RCC_OscConfig+0xc>
    if((__HAL_RCC_GET_SYSCLK_SOURCE() == RCC_SYSCLKSOURCE_STATUS_HSE) 
 8001ad8:	210c      	movs	r1, #12
 8001ada:	4da4      	ldr	r5, [pc, #656]	; (8001d6c <HAL_RCC_OscConfig+0x308>)
 8001adc:	686a      	ldr	r2, [r5, #4]
 8001ade:	400a      	ands	r2, r1
 8001ae0:	2a04      	cmp	r2, #4
 8001ae2:	d006      	beq.n	8001af2 <HAL_RCC_OscConfig+0x8e>
       || ((__HAL_RCC_GET_SYSCLK_SOURCE() == RCC_SYSCLKSOURCE_STATUS_PLLCLK) && (__HAL_RCC_GET_PLL_OSCSOURCE() == RCC_PLLSOURCE_HSE)))
 8001ae4:	686b      	ldr	r3, [r5, #4]
 8001ae6:	400b      	ands	r3, r1
 8001ae8:	2b08      	cmp	r3, #8
 8001aea:	d109      	bne.n	8001b00 <HAL_RCC_OscConfig+0x9c>
 8001aec:	686b      	ldr	r3, [r5, #4]
 8001aee:	03db      	lsls	r3, r3, #15
 8001af0:	d506      	bpl.n	8001b00 <HAL_RCC_OscConfig+0x9c>
      if((__HAL_RCC_GET_FLAG(RCC_FLAG_HSERDY) != RESET) && (RCC_OscInitStruct->HSEState == RCC_HSE_OFF))
 8001af2:	682b      	ldr	r3, [r5, #0]
 8001af4:	039b      	lsls	r3, r3, #14
 8001af6:	d5c0      	bpl.n	8001a7a <HAL_RCC_OscConfig+0x16>
 8001af8:	6863      	ldr	r3, [r4, #4]
 8001afa:	2b00      	cmp	r3, #0
 8001afc:	d1bd      	bne.n	8001a7a <HAL_RCC_OscConfig+0x16>
 8001afe:	e7b6      	b.n	8001a6e <HAL_RCC_OscConfig+0xa>
      __HAL_RCC_HSE_CONFIG(RCC_OscInitStruct->HSEState);
 8001b00:	6863      	ldr	r3, [r4, #4]
 8001b02:	2b01      	cmp	r3, #1
 8001b04:	d113      	bne.n	8001b2e <HAL_RCC_OscConfig+0xca>
 8001b06:	2380      	movs	r3, #128	; 0x80
 8001b08:	682a      	ldr	r2, [r5, #0]
 8001b0a:	025b      	lsls	r3, r3, #9
 8001b0c:	4313      	orrs	r3, r2
 8001b0e:	602b      	str	r3, [r5, #0]
        tickstart = HAL_GetTick();
 8001b10:	f7ff fb5e 	bl	80011d0 <HAL_GetTick>
        while(__HAL_RCC_GET_FLAG(RCC_FLAG_HSERDY) == RESET)
 8001b14:	2680      	movs	r6, #128	; 0x80
        tickstart = HAL_GetTick();
 8001b16:	0007      	movs	r7, r0
        while(__HAL_RCC_GET_FLAG(RCC_FLAG_HSERDY) == RESET)
 8001b18:	02b6      	lsls	r6, r6, #10
 8001b1a:	682b      	ldr	r3, [r5, #0]
 8001b1c:	4233      	tst	r3, r6
 8001b1e:	d1ac      	bne.n	8001a7a <HAL_RCC_OscConfig+0x16>
          if((HAL_GetTick() - tickstart ) > HSE_TIMEOUT_VALUE)
 8001b20:	f7ff fb56 	bl	80011d0 <HAL_GetTick>
 8001b24:	1bc0      	subs	r0, r0, r7
 8001b26:	2864      	cmp	r0, #100	; 0x64
 8001b28:	d9f7      	bls.n	8001b1a <HAL_RCC_OscConfig+0xb6>
            return HAL_TIMEOUT;
 8001b2a:	2003      	movs	r0, #3
 8001b2c:	e7a0      	b.n	8001a70 <HAL_RCC_OscConfig+0xc>
      __HAL_RCC_HSE_CONFIG(RCC_OscInitStruct->HSEState);
 8001b2e:	2b00      	cmp	r3, #0
 8001b30:	d115      	bne.n	8001b5e <HAL_RCC_OscConfig+0xfa>
 8001b32:	682b      	ldr	r3, [r5, #0]
 8001b34:	4a8e      	ldr	r2, [pc, #568]	; (8001d70 <HAL_RCC_OscConfig+0x30c>)
        while(__HAL_RCC_GET_FLAG(RCC_FLAG_HSERDY) != RESET)
 8001b36:	2680      	movs	r6, #128	; 0x80
      __HAL_RCC_HSE_CONFIG(RCC_OscInitStruct->HSEState);
 8001b38:	4013      	ands	r3, r2
 8001b3a:	602b      	str	r3, [r5, #0]
 8001b3c:	682b      	ldr	r3, [r5, #0]
 8001b3e:	4a8d      	ldr	r2, [pc, #564]	; (8001d74 <HAL_RCC_OscConfig+0x310>)
        while(__HAL_RCC_GET_FLAG(RCC_FLAG_HSERDY) != RESET)
 8001b40:	02b6      	lsls	r6, r6, #10
      __HAL_RCC_HSE_CONFIG(RCC_OscInitStruct->HSEState);
 8001b42:	4013      	ands	r3, r2
 8001b44:	602b      	str	r3, [r5, #0]
        tickstart = HAL_GetTick();
 8001b46:	f7ff fb43 	bl	80011d0 <HAL_GetTick>
 8001b4a:	0007      	movs	r7, r0
        while(__HAL_RCC_GET_FLAG(RCC_FLAG_HSERDY) != RESET)
 8001b4c:	682b      	ldr	r3, [r5, #0]
 8001b4e:	4233      	tst	r3, r6
 8001b50:	d093      	beq.n	8001a7a <HAL_RCC_OscConfig+0x16>
           if((HAL_GetTick() - tickstart ) > HSE_TIMEOUT_VALUE)
 8001b52:	f7ff fb3d 	bl	80011d0 <HAL_GetTick>
 8001b56:	1bc0      	subs	r0, r0, r7
 8001b58:	2864      	cmp	r0, #100	; 0x64
 8001b5a:	d9f7      	bls.n	8001b4c <HAL_RCC_OscConfig+0xe8>
 8001b5c:	e7e5      	b.n	8001b2a <HAL_RCC_OscConfig+0xc6>
      __HAL_RCC_HSE_CONFIG(RCC_OscInitStruct->HSEState);
 8001b5e:	2b05      	cmp	r3, #5
 8001b60:	d105      	bne.n	8001b6e <HAL_RCC_OscConfig+0x10a>
 8001b62:	2380      	movs	r3, #128	; 0x80
 8001b64:	682a      	ldr	r2, [r5, #0]
 8001b66:	02db      	lsls	r3, r3, #11
 8001b68:	4313      	orrs	r3, r2
 8001b6a:	602b      	str	r3, [r5, #0]
 8001b6c:	e7cb      	b.n	8001b06 <HAL_RCC_OscConfig+0xa2>
 8001b6e:	682b      	ldr	r3, [r5, #0]
 8001b70:	4a7f      	ldr	r2, [pc, #508]	; (8001d70 <HAL_RCC_OscConfig+0x30c>)
 8001b72:	4013      	ands	r3, r2
 8001b74:	602b      	str	r3, [r5, #0]
 8001b76:	682b      	ldr	r3, [r5, #0]
 8001b78:	4a7e      	ldr	r2, [pc, #504]	; (8001d74 <HAL_RCC_OscConfig+0x310>)
 8001b7a:	4013      	ands	r3, r2
 8001b7c:	e7c7      	b.n	8001b0e <HAL_RCC_OscConfig+0xaa>
    if((__HAL_RCC_GET_SYSCLK_SOURCE() == RCC_SYSCLKSOURCE_STATUS_HSI) 
 8001b7e:	220c      	movs	r2, #12
 8001b80:	4d7a      	ldr	r5, [pc, #488]	; (8001d6c <HAL_RCC_OscConfig+0x308>)
 8001b82:	686b      	ldr	r3, [r5, #4]
 8001b84:	4213      	tst	r3, r2
 8001b86:	d006      	beq.n	8001b96 <HAL_RCC_OscConfig+0x132>
       || ((__HAL_RCC_GET_SYSCLK_SOURCE() == RCC_SYSCLKSOURCE_STATUS_PLLCLK) && (__HAL_RCC_GET_PLL_OSCSOURCE() == RCC_PLLSOURCE_HSI)))
 8001b88:	686b      	ldr	r3, [r5, #4]
 8001b8a:	4013      	ands	r3, r2
 8001b8c:	2b08      	cmp	r3, #8
 8001b8e:	d111      	bne.n	8001bb4 <HAL_RCC_OscConfig+0x150>
 8001b90:	686b      	ldr	r3, [r5, #4]
 8001b92:	03db      	lsls	r3, r3, #15
 8001b94:	d40e      	bmi.n	8001bb4 <HAL_RCC_OscConfig+0x150>
      if((__HAL_RCC_GET_FLAG(RCC_FLAG_HSIRDY) != RESET) && (RCC_OscInitStruct->HSIState != RCC_HSI_ON))
 8001b96:	682b      	ldr	r3, [r5, #0]
 8001b98:	079b      	lsls	r3, r3, #30
 8001b9a:	d503      	bpl.n	8001ba4 <HAL_RCC_OscConfig+0x140>
 8001b9c:	68e3      	ldr	r3, [r4, #12]
 8001b9e:	2b01      	cmp	r3, #1
 8001ba0:	d000      	beq.n	8001ba4 <HAL_RCC_OscConfig+0x140>
 8001ba2:	e764      	b.n	8001a6e <HAL_RCC_OscConfig+0xa>
        __HAL_RCC_HSI_CALIBRATIONVALUE_ADJUST(RCC_OscInitStruct->HSICalibrationValue);
 8001ba4:	21f8      	movs	r1, #248	; 0xf8
 8001ba6:	682a      	ldr	r2, [r5, #0]
 8001ba8:	6923      	ldr	r3, [r4, #16]
 8001baa:	438a      	bics	r2, r1
 8001bac:	00db      	lsls	r3, r3, #3
 8001bae:	4313      	orrs	r3, r2
 8001bb0:	602b      	str	r3, [r5, #0]
 8001bb2:	e765      	b.n	8001a80 <HAL_RCC_OscConfig+0x1c>
      if(RCC_OscInitStruct->HSIState != RCC_HSI_OFF)
 8001bb4:	68e2      	ldr	r2, [r4, #12]
 8001bb6:	2301      	movs	r3, #1
 8001bb8:	2a00      	cmp	r2, #0
 8001bba:	d00f      	beq.n	8001bdc <HAL_RCC_OscConfig+0x178>
        __HAL_RCC_HSI_ENABLE();
 8001bbc:	682a      	ldr	r2, [r5, #0]
        while(__HAL_RCC_GET_FLAG(RCC_FLAG_HSIRDY) == RESET)
 8001bbe:	2602      	movs	r6, #2
        __HAL_RCC_HSI_ENABLE();
 8001bc0:	4313      	orrs	r3, r2
 8001bc2:	602b      	str	r3, [r5, #0]
        tickstart = HAL_GetTick();
 8001bc4:	f7ff fb04 	bl	80011d0 <HAL_GetTick>
 8001bc8:	0007      	movs	r7, r0
        while(__HAL_RCC_GET_FLAG(RCC_FLAG_HSIRDY) == RESET)
 8001bca:	682b      	ldr	r3, [r5, #0]
 8001bcc:	4233      	tst	r3, r6
 8001bce:	d1e9      	bne.n	8001ba4 <HAL_RCC_OscConfig+0x140>
          if((HAL_GetTick() - tickstart ) > HSI_TIMEOUT_VALUE)
 8001bd0:	f7ff fafe 	bl	80011d0 <HAL_GetTick>
 8001bd4:	1bc0      	subs	r0, r0, r7
 8001bd6:	2802      	cmp	r0, #2
 8001bd8:	d9f7      	bls.n	8001bca <HAL_RCC_OscConfig+0x166>
 8001bda:	e7a6      	b.n	8001b2a <HAL_RCC_OscConfig+0xc6>
        __HAL_RCC_HSI_DISABLE();
 8001bdc:	682a      	ldr	r2, [r5, #0]
        while(__HAL_RCC_GET_FLAG(RCC_FLAG_HSIRDY) != RESET)
 8001bde:	2602      	movs	r6, #2
        __HAL_RCC_HSI_DISABLE();
 8001be0:	439a      	bics	r2, r3
 8001be2:	602a      	str	r2, [r5, #0]
        tickstart = HAL_GetTick();
 8001be4:	f7ff faf4 	bl	80011d0 <HAL_GetTick>
 8001be8:	0007      	movs	r7, r0
        while(__HAL_RCC_GET_FLAG(RCC_FLAG_HSIRDY) != RESET)
 8001bea:	682b      	ldr	r3, [r5, #0]
 8001bec:	4233      	tst	r3, r6
 8001bee:	d100      	bne.n	8001bf2 <HAL_RCC_OscConfig+0x18e>
 8001bf0:	e746      	b.n	8001a80 <HAL_RCC_OscConfig+0x1c>
          if((HAL_GetTick() - tickstart ) > HSI_TIMEOUT_VALUE)
 8001bf2:	f7ff faed 	bl	80011d0 <HAL_GetTick>
 8001bf6:	1bc0      	subs	r0, r0, r7
 8001bf8:	2802      	cmp	r0, #2
 8001bfa:	d9f6      	bls.n	8001bea <HAL_RCC_OscConfig+0x186>
 8001bfc:	e795      	b.n	8001b2a <HAL_RCC_OscConfig+0xc6>
    if(RCC_OscInitStruct->LSIState != RCC_LSI_OFF)
 8001bfe:	69e2      	ldr	r2, [r4, #28]
 8001c00:	2301      	movs	r3, #1
 8001c02:	4d5a      	ldr	r5, [pc, #360]	; (8001d6c <HAL_RCC_OscConfig+0x308>)
 8001c04:	2a00      	cmp	r2, #0
 8001c06:	d010      	beq.n	8001c2a <HAL_RCC_OscConfig+0x1c6>
      __HAL_RCC_LSI_ENABLE();
 8001c08:	6a6a      	ldr	r2, [r5, #36]	; 0x24
      while(__HAL_RCC_GET_FLAG(RCC_FLAG_LSIRDY) == RESET)
 8001c0a:	2602      	movs	r6, #2
      __HAL_RCC_LSI_ENABLE();
 8001c0c:	4313      	orrs	r3, r2
 8001c0e:	626b      	str	r3, [r5, #36]	; 0x24
      tickstart = HAL_GetTick();
 8001c10:	f7ff fade 	bl	80011d0 <HAL_GetTick>
 8001c14:	0007      	movs	r7, r0
      while(__HAL_RCC_GET_FLAG(RCC_FLAG_LSIRDY) == RESET)
 8001c16:	6a6b      	ldr	r3, [r5, #36]	; 0x24
 8001c18:	4233      	tst	r3, r6
 8001c1a:	d000      	beq.n	8001c1e <HAL_RCC_OscConfig+0x1ba>
 8001c1c:	e734      	b.n	8001a88 <HAL_RCC_OscConfig+0x24>
        if((HAL_GetTick() - tickstart ) > LSI_TIMEOUT_VALUE)
 8001c1e:	f7ff fad7 	bl	80011d0 <HAL_GetTick>
 8001c22:	1bc0      	subs	r0, r0, r7
 8001c24:	2802      	cmp	r0, #2
 8001c26:	d9f6      	bls.n	8001c16 <HAL_RCC_OscConfig+0x1b2>
 8001c28:	e77f      	b.n	8001b2a <HAL_RCC_OscConfig+0xc6>
      __HAL_RCC_LSI_DISABLE();
 8001c2a:	6a6a      	ldr	r2, [r5, #36]	; 0x24
      while(__HAL_RCC_GET_FLAG(RCC_FLAG_LSIRDY) != RESET)
 8001c2c:	2602      	movs	r6, #2
      __HAL_RCC_LSI_DISABLE();
 8001c2e:	439a      	bics	r2, r3
 8001c30:	626a      	str	r2, [r5, #36]	; 0x24
      tickstart = HAL_GetTick();
 8001c32:	f7ff facd 	bl	80011d0 <HAL_GetTick>
 8001c36:	0007      	movs	r7, r0
      while(__HAL_RCC_GET_FLAG(RCC_FLAG_LSIRDY) != RESET)
 8001c38:	6a6b      	ldr	r3, [r5, #36]	; 0x24
 8001c3a:	4233      	tst	r3, r6
 8001c3c:	d100      	bne.n	8001c40 <HAL_RCC_OscConfig+0x1dc>
 8001c3e:	e723      	b.n	8001a88 <HAL_RCC_OscConfig+0x24>
        if((HAL_GetTick() - tickstart ) > LSI_TIMEOUT_VALUE)
 8001c40:	f7ff fac6 	bl	80011d0 <HAL_GetTick>
 8001c44:	1bc0      	subs	r0, r0, r7
 8001c46:	2802      	cmp	r0, #2
 8001c48:	d9f6      	bls.n	8001c38 <HAL_RCC_OscConfig+0x1d4>
 8001c4a:	e76e      	b.n	8001b2a <HAL_RCC_OscConfig+0xc6>
    if(__HAL_RCC_PWR_IS_CLK_DISABLED())
 8001c4c:	2280      	movs	r2, #128	; 0x80
    FlagStatus       pwrclkchanged = RESET;
 8001c4e:	2100      	movs	r1, #0
    if(__HAL_RCC_PWR_IS_CLK_DISABLED())
 8001c50:	4d46      	ldr	r5, [pc, #280]	; (8001d6c <HAL_RCC_OscConfig+0x308>)
 8001c52:	0552      	lsls	r2, r2, #21
 8001c54:	69eb      	ldr	r3, [r5, #28]
    FlagStatus       pwrclkchanged = RESET;
 8001c56:	9100      	str	r1, [sp, #0]
    if(__HAL_RCC_PWR_IS_CLK_DISABLED())
 8001c58:	4213      	tst	r3, r2
 8001c5a:	d108      	bne.n	8001c6e <HAL_RCC_OscConfig+0x20a>
      __HAL_RCC_PWR_CLK_ENABLE();
 8001c5c:	69eb      	ldr	r3, [r5, #28]
 8001c5e:	4313      	orrs	r3, r2
 8001c60:	61eb      	str	r3, [r5, #28]
 8001c62:	69eb      	ldr	r3, [r5, #28]
 8001c64:	4013      	ands	r3, r2
 8001c66:	9303      	str	r3, [sp, #12]
 8001c68:	9b03      	ldr	r3, [sp, #12]
      pwrclkchanged = SET;
 8001c6a:	2301      	movs	r3, #1
 8001c6c:	9300      	str	r3, [sp, #0]
    if(HAL_IS_BIT_CLR(PWR->CR, PWR_CR_DBP))
 8001c6e:	2780      	movs	r7, #128	; 0x80
 8001c70:	4e41      	ldr	r6, [pc, #260]	; (8001d78 <HAL_RCC_OscConfig+0x314>)
 8001c72:	007f      	lsls	r7, r7, #1
 8001c74:	6833      	ldr	r3, [r6, #0]
 8001c76:	423b      	tst	r3, r7
 8001c78:	d006      	beq.n	8001c88 <HAL_RCC_OscConfig+0x224>
    __HAL_RCC_LSE_CONFIG(RCC_OscInitStruct->LSEState);
 8001c7a:	68a3      	ldr	r3, [r4, #8]
 8001c7c:	2b01      	cmp	r3, #1
 8001c7e:	d113      	bne.n	8001ca8 <HAL_RCC_OscConfig+0x244>
 8001c80:	6a2a      	ldr	r2, [r5, #32]
 8001c82:	4313      	orrs	r3, r2
 8001c84:	622b      	str	r3, [r5, #32]
 8001c86:	e030      	b.n	8001cea <HAL_RCC_OscConfig+0x286>
      SET_BIT(PWR->CR, PWR_CR_DBP);
 8001c88:	6833      	ldr	r3, [r6, #0]
 8001c8a:	433b      	orrs	r3, r7
 8001c8c:	6033      	str	r3, [r6, #0]
      tickstart = HAL_GetTick();
 8001c8e:	f7ff fa9f 	bl	80011d0 <HAL_GetTick>
 8001c92:	9001      	str	r0, [sp, #4]
      while(HAL_IS_BIT_CLR(PWR->CR, PWR_CR_DBP))
 8001c94:	6833      	ldr	r3, [r6, #0]
 8001c96:	423b      	tst	r3, r7
 8001c98:	d1ef      	bne.n	8001c7a <HAL_RCC_OscConfig+0x216>
        if((HAL_GetTick() - tickstart) > RCC_DBP_TIMEOUT_VALUE)
 8001c9a:	f7ff fa99 	bl	80011d0 <HAL_GetTick>
 8001c9e:	9b01      	ldr	r3, [sp, #4]
 8001ca0:	1ac0      	subs	r0, r0, r3
 8001ca2:	2864      	cmp	r0, #100	; 0x64
 8001ca4:	d9f6      	bls.n	8001c94 <HAL_RCC_OscConfig+0x230>
 8001ca6:	e740      	b.n	8001b2a <HAL_RCC_OscConfig+0xc6>
 8001ca8:	2201      	movs	r2, #1
    __HAL_RCC_LSE_CONFIG(RCC_OscInitStruct->LSEState);
 8001caa:	2b00      	cmp	r3, #0
 8001cac:	d114      	bne.n	8001cd8 <HAL_RCC_OscConfig+0x274>
 8001cae:	6a2b      	ldr	r3, [r5, #32]
      while(__HAL_RCC_GET_FLAG(RCC_FLAG_LSERDY) != RESET)
 8001cb0:	2702      	movs	r7, #2
    __HAL_RCC_LSE_CONFIG(RCC_OscInitStruct->LSEState);
 8001cb2:	4393      	bics	r3, r2
 8001cb4:	622b      	str	r3, [r5, #32]
 8001cb6:	6a2b      	ldr	r3, [r5, #32]
 8001cb8:	3203      	adds	r2, #3
 8001cba:	4393      	bics	r3, r2
 8001cbc:	622b      	str	r3, [r5, #32]
      tickstart = HAL_GetTick();
 8001cbe:	f7ff fa87 	bl	80011d0 <HAL_GetTick>
 8001cc2:	0006      	movs	r6, r0
      while(__HAL_RCC_GET_FLAG(RCC_FLAG_LSERDY) != RESET)
 8001cc4:	6a2b      	ldr	r3, [r5, #32]
 8001cc6:	423b      	tst	r3, r7
 8001cc8:	d025      	beq.n	8001d16 <HAL_RCC_OscConfig+0x2b2>
        if((HAL_GetTick() - tickstart ) > RCC_LSE_TIMEOUT_VALUE)
 8001cca:	f7ff fa81 	bl	80011d0 <HAL_GetTick>
 8001cce:	4b2b      	ldr	r3, [pc, #172]	; (8001d7c <HAL_RCC_OscConfig+0x318>)
 8001cd0:	1b80      	subs	r0, r0, r6
 8001cd2:	4298      	cmp	r0, r3
 8001cd4:	d9f6      	bls.n	8001cc4 <HAL_RCC_OscConfig+0x260>
 8001cd6:	e728      	b.n	8001b2a <HAL_RCC_OscConfig+0xc6>
    __HAL_RCC_LSE_CONFIG(RCC_OscInitStruct->LSEState);
 8001cd8:	2b05      	cmp	r3, #5
 8001cda:	d10b      	bne.n	8001cf4 <HAL_RCC_OscConfig+0x290>
 8001cdc:	6a29      	ldr	r1, [r5, #32]
 8001cde:	3b01      	subs	r3, #1
 8001ce0:	430b      	orrs	r3, r1
 8001ce2:	622b      	str	r3, [r5, #32]
 8001ce4:	6a2b      	ldr	r3, [r5, #32]
 8001ce6:	431a      	orrs	r2, r3
 8001ce8:	622a      	str	r2, [r5, #32]
      tickstart = HAL_GetTick();
 8001cea:	f7ff fa71 	bl	80011d0 <HAL_GetTick>
      while(__HAL_RCC_GET_FLAG(RCC_FLAG_LSERDY) == RESET)
 8001cee:	2702      	movs	r7, #2
      tickstart = HAL_GetTick();
 8001cf0:	0006      	movs	r6, r0
      while(__HAL_RCC_GET_FLAG(RCC_FLAG_LSERDY) == RESET)
 8001cf2:	e00d      	b.n	8001d10 <HAL_RCC_OscConfig+0x2ac>
    __HAL_RCC_LSE_CONFIG(RCC_OscInitStruct->LSEState);
 8001cf4:	6a2b      	ldr	r3, [r5, #32]
 8001cf6:	4393      	bics	r3, r2
 8001cf8:	2204      	movs	r2, #4
 8001cfa:	622b      	str	r3, [r5, #32]
 8001cfc:	6a2b      	ldr	r3, [r5, #32]
 8001cfe:	4393      	bics	r3, r2
 8001d00:	e7c0      	b.n	8001c84 <HAL_RCC_OscConfig+0x220>
        if((HAL_GetTick() - tickstart ) > RCC_LSE_TIMEOUT_VALUE)
 8001d02:	f7ff fa65 	bl	80011d0 <HAL_GetTick>
 8001d06:	4b1d      	ldr	r3, [pc, #116]	; (8001d7c <HAL_RCC_OscConfig+0x318>)
 8001d08:	1b80      	subs	r0, r0, r6
 8001d0a:	4298      	cmp	r0, r3
 8001d0c:	d900      	bls.n	8001d10 <HAL_RCC_OscConfig+0x2ac>
 8001d0e:	e70c      	b.n	8001b2a <HAL_RCC_OscConfig+0xc6>
      while(__HAL_RCC_GET_FLAG(RCC_FLAG_LSERDY) == RESET)
 8001d10:	6a2b      	ldr	r3, [r5, #32]
 8001d12:	423b      	tst	r3, r7
 8001d14:	d0f5      	beq.n	8001d02 <HAL_RCC_OscConfig+0x29e>
    if(pwrclkchanged == SET)
 8001d16:	9b00      	ldr	r3, [sp, #0]
 8001d18:	2b01      	cmp	r3, #1
 8001d1a:	d000      	beq.n	8001d1e <HAL_RCC_OscConfig+0x2ba>
 8001d1c:	e6b8      	b.n	8001a90 <HAL_RCC_OscConfig+0x2c>
      __HAL_RCC_PWR_CLK_DISABLE();
 8001d1e:	69eb      	ldr	r3, [r5, #28]
 8001d20:	4a17      	ldr	r2, [pc, #92]	; (8001d80 <HAL_RCC_OscConfig+0x31c>)
 8001d22:	4013      	ands	r3, r2
 8001d24:	61eb      	str	r3, [r5, #28]
 8001d26:	e6b3      	b.n	8001a90 <HAL_RCC_OscConfig+0x2c>
        if((HAL_GetTick() - tickstart) > HSI14_TIMEOUT_VALUE)
 8001d28:	f7ff fa52 	bl	80011d0 <HAL_GetTick>
 8001d2c:	1bc0      	subs	r0, r0, r7
 8001d2e:	2802      	cmp	r0, #2
 8001d30:	d800      	bhi.n	8001d34 <HAL_RCC_OscConfig+0x2d0>
 8001d32:	e6c0      	b.n	8001ab6 <HAL_RCC_OscConfig+0x52>
 8001d34:	e6f9      	b.n	8001b2a <HAL_RCC_OscConfig+0xc6>
    else if(RCC_OscInitStruct->HSI14State == RCC_HSI14_ADC_CONTROL)
 8001d36:	3205      	adds	r2, #5
 8001d38:	d103      	bne.n	8001d42 <HAL_RCC_OscConfig+0x2de>
      __HAL_RCC_HSI14ADC_ENABLE();
 8001d3a:	6b6a      	ldr	r2, [r5, #52]	; 0x34
 8001d3c:	439a      	bics	r2, r3
 8001d3e:	636a      	str	r2, [r5, #52]	; 0x34
 8001d40:	e6bd      	b.n	8001abe <HAL_RCC_OscConfig+0x5a>
      __HAL_RCC_HSI14ADC_DISABLE();
 8001d42:	6b6a      	ldr	r2, [r5, #52]	; 0x34
      while(__HAL_RCC_GET_FLAG(RCC_FLAG_HSI14RDY) != RESET)
 8001d44:	2602      	movs	r6, #2
      __HAL_RCC_HSI14ADC_DISABLE();
 8001d46:	4313      	orrs	r3, r2
      __HAL_RCC_HSI14_DISABLE();
 8001d48:	2201      	movs	r2, #1
      __HAL_RCC_HSI14ADC_DISABLE();
 8001d4a:	636b      	str	r3, [r5, #52]	; 0x34
      __HAL_RCC_HSI14_DISABLE();
 8001d4c:	6b6b      	ldr	r3, [r5, #52]	; 0x34
 8001d4e:	4393      	bics	r3, r2
 8001d50:	636b      	str	r3, [r5, #52]	; 0x34
      tickstart = HAL_GetTick();
 8001d52:	f7ff fa3d 	bl	80011d0 <HAL_GetTick>
 8001d56:	0007      	movs	r7, r0
      while(__HAL_RCC_GET_FLAG(RCC_FLAG_HSI14RDY) != RESET)
 8001d58:	6b6b      	ldr	r3, [r5, #52]	; 0x34
 8001d5a:	4233      	tst	r3, r6
 8001d5c:	d100      	bne.n	8001d60 <HAL_RCC_OscConfig+0x2fc>
 8001d5e:	e6b5      	b.n	8001acc <HAL_RCC_OscConfig+0x68>
        if((HAL_GetTick() - tickstart) > HSI14_TIMEOUT_VALUE)
 8001d60:	f7ff fa36 	bl	80011d0 <HAL_GetTick>
 8001d64:	1bc0      	subs	r0, r0, r7
 8001d66:	2802      	cmp	r0, #2
 8001d68:	d9f6      	bls.n	8001d58 <HAL_RCC_OscConfig+0x2f4>
 8001d6a:	e6de      	b.n	8001b2a <HAL_RCC_OscConfig+0xc6>
 8001d6c:	40021000 	.word	0x40021000
 8001d70:	fffeffff 	.word	0xfffeffff
 8001d74:	fffbffff 	.word	0xfffbffff
 8001d78:	40007000 	.word	0x40007000
 8001d7c:	00001388 	.word	0x00001388
 8001d80:	efffffff 	.word	0xefffffff
    if(__HAL_RCC_GET_SYSCLK_SOURCE() != RCC_SYSCLKSOURCE_STATUS_PLLCLK)
 8001d84:	200c      	movs	r0, #12
 8001d86:	4a35      	ldr	r2, [pc, #212]	; (8001e5c <HAL_RCC_OscConfig+0x3f8>)
 8001d88:	6851      	ldr	r1, [r2, #4]
 8001d8a:	0015      	movs	r5, r2
 8001d8c:	4001      	ands	r1, r0
 8001d8e:	2908      	cmp	r1, #8
 8001d90:	d047      	beq.n	8001e22 <HAL_RCC_OscConfig+0x3be>
 8001d92:	4a33      	ldr	r2, [pc, #204]	; (8001e60 <HAL_RCC_OscConfig+0x3fc>)
      if((RCC_OscInitStruct->PLL.PLLState) == RCC_PLL_ON)
 8001d94:	2b02      	cmp	r3, #2
 8001d96:	d132      	bne.n	8001dfe <HAL_RCC_OscConfig+0x39a>
        __HAL_RCC_PLL_DISABLE();
 8001d98:	682b      	ldr	r3, [r5, #0]
        while(__HAL_RCC_GET_FLAG(RCC_FLAG_PLLRDY)  != RESET)
 8001d9a:	2680      	movs	r6, #128	; 0x80
        __HAL_RCC_PLL_DISABLE();
 8001d9c:	4013      	ands	r3, r2
 8001d9e:	602b      	str	r3, [r5, #0]
        tickstart = HAL_GetTick();
 8001da0:	f7ff fa16 	bl	80011d0 <HAL_GetTick>
 8001da4:	0007      	movs	r7, r0
        while(__HAL_RCC_GET_FLAG(RCC_FLAG_PLLRDY)  != RESET)
 8001da6:	04b6      	lsls	r6, r6, #18
 8001da8:	682b      	ldr	r3, [r5, #0]
 8001daa:	4233      	tst	r3, r6
 8001dac:	d121      	bne.n	8001df2 <HAL_RCC_OscConfig+0x38e>
        __HAL_RCC_PLL_CONFIG(RCC_OscInitStruct->PLL.PLLSource,
 8001dae:	220f      	movs	r2, #15
 8001db0:	6aeb      	ldr	r3, [r5, #44]	; 0x2c
 8001db2:	4393      	bics	r3, r2
 8001db4:	6ae2      	ldr	r2, [r4, #44]	; 0x2c
 8001db6:	4313      	orrs	r3, r2
 8001db8:	62eb      	str	r3, [r5, #44]	; 0x2c
 8001dba:	6a61      	ldr	r1, [r4, #36]	; 0x24
 8001dbc:	6aa3      	ldr	r3, [r4, #40]	; 0x28
 8001dbe:	686a      	ldr	r2, [r5, #4]
 8001dc0:	430b      	orrs	r3, r1
 8001dc2:	4928      	ldr	r1, [pc, #160]	; (8001e64 <HAL_RCC_OscConfig+0x400>)
        while(__HAL_RCC_GET_FLAG(RCC_FLAG_PLLRDY)  == RESET)
 8001dc4:	2480      	movs	r4, #128	; 0x80
        __HAL_RCC_PLL_CONFIG(RCC_OscInitStruct->PLL.PLLSource,
 8001dc6:	400a      	ands	r2, r1
 8001dc8:	4313      	orrs	r3, r2
 8001dca:	606b      	str	r3, [r5, #4]
        __HAL_RCC_PLL_ENABLE();
 8001dcc:	2380      	movs	r3, #128	; 0x80
 8001dce:	682a      	ldr	r2, [r5, #0]
 8001dd0:	045b      	lsls	r3, r3, #17
 8001dd2:	4313      	orrs	r3, r2
 8001dd4:	602b      	str	r3, [r5, #0]
        tickstart = HAL_GetTick();
 8001dd6:	f7ff f9fb 	bl	80011d0 <HAL_GetTick>
 8001dda:	0006      	movs	r6, r0
        while(__HAL_RCC_GET_FLAG(RCC_FLAG_PLLRDY)  == RESET)
 8001ddc:	04a4      	lsls	r4, r4, #18
 8001dde:	682b      	ldr	r3, [r5, #0]
 8001de0:	4223      	tst	r3, r4
 8001de2:	d000      	beq.n	8001de6 <HAL_RCC_OscConfig+0x382>
 8001de4:	e676      	b.n	8001ad4 <HAL_RCC_OscConfig+0x70>
          if((HAL_GetTick() - tickstart ) > PLL_TIMEOUT_VALUE)
 8001de6:	f7ff f9f3 	bl	80011d0 <HAL_GetTick>
 8001dea:	1b80      	subs	r0, r0, r6
 8001dec:	2802      	cmp	r0, #2
 8001dee:	d9f6      	bls.n	8001dde <HAL_RCC_OscConfig+0x37a>
 8001df0:	e69b      	b.n	8001b2a <HAL_RCC_OscConfig+0xc6>
          if((HAL_GetTick() - tickstart ) > PLL_TIMEOUT_VALUE)
 8001df2:	f7ff f9ed 	bl	80011d0 <HAL_GetTick>
 8001df6:	1bc0      	subs	r0, r0, r7
 8001df8:	2802      	cmp	r0, #2
 8001dfa:	d9d5      	bls.n	8001da8 <HAL_RCC_OscConfig+0x344>
 8001dfc:	e695      	b.n	8001b2a <HAL_RCC_OscConfig+0xc6>
        __HAL_RCC_PLL_DISABLE();
 8001dfe:	682b      	ldr	r3, [r5, #0]
        while(__HAL_RCC_GET_FLAG(RCC_FLAG_PLLRDY)  != RESET)
 8001e00:	2480      	movs	r4, #128	; 0x80
        __HAL_RCC_PLL_DISABLE();
 8001e02:	4013      	ands	r3, r2
 8001e04:	602b      	str	r3, [r5, #0]
        tickstart = HAL_GetTick();
 8001e06:	f7ff f9e3 	bl	80011d0 <HAL_GetTick>
 8001e0a:	0006      	movs	r6, r0
        while(__HAL_RCC_GET_FLAG(RCC_FLAG_PLLRDY)  != RESET)
 8001e0c:	04a4      	lsls	r4, r4, #18
 8001e0e:	682b      	ldr	r3, [r5, #0]
 8001e10:	4223      	tst	r3, r4
 8001e12:	d100      	bne.n	8001e16 <HAL_RCC_OscConfig+0x3b2>
 8001e14:	e65e      	b.n	8001ad4 <HAL_RCC_OscConfig+0x70>
          if((HAL_GetTick() - tickstart ) > PLL_TIMEOUT_VALUE)
 8001e16:	f7ff f9db 	bl	80011d0 <HAL_GetTick>
 8001e1a:	1b80      	subs	r0, r0, r6
 8001e1c:	2802      	cmp	r0, #2
 8001e1e:	d9f6      	bls.n	8001e0e <HAL_RCC_OscConfig+0x3aa>
 8001e20:	e683      	b.n	8001b2a <HAL_RCC_OscConfig+0xc6>
        return HAL_ERROR;
 8001e22:	0018      	movs	r0, r3
      if((RCC_OscInitStruct->PLL.PLLState) == RCC_PLL_OFF)
 8001e24:	2b01      	cmp	r3, #1
 8001e26:	d100      	bne.n	8001e2a <HAL_RCC_OscConfig+0x3c6>
 8001e28:	e622      	b.n	8001a70 <HAL_RCC_OscConfig+0xc>
        if((READ_BIT(pll_config,  RCC_CFGR_PLLSRC)  != RCC_OscInitStruct->PLL.PLLSource) ||
 8001e2a:	2180      	movs	r1, #128	; 0x80
        pll_config  = RCC->CFGR;
 8001e2c:	6853      	ldr	r3, [r2, #4]
        if((READ_BIT(pll_config,  RCC_CFGR_PLLSRC)  != RCC_OscInitStruct->PLL.PLLSource) ||
 8001e2e:	6a65      	ldr	r5, [r4, #36]	; 0x24
 8001e30:	0249      	lsls	r1, r1, #9
        pll_config2 = RCC->CFGR2;
 8001e32:	6ad2      	ldr	r2, [r2, #44]	; 0x2c
        if((READ_BIT(pll_config,  RCC_CFGR_PLLSRC)  != RCC_OscInitStruct->PLL.PLLSource) ||
 8001e34:	4019      	ands	r1, r3
        return HAL_ERROR;
 8001e36:	2001      	movs	r0, #1
        if((READ_BIT(pll_config,  RCC_CFGR_PLLSRC)  != RCC_OscInitStruct->PLL.PLLSource) ||
 8001e38:	42a9      	cmp	r1, r5
 8001e3a:	d000      	beq.n	8001e3e <HAL_RCC_OscConfig+0x3da>
 8001e3c:	e618      	b.n	8001a70 <HAL_RCC_OscConfig+0xc>
           (READ_BIT(pll_config2, RCC_CFGR2_PREDIV) != RCC_OscInitStruct->PLL.PREDIV)    ||
 8001e3e:	210f      	movs	r1, #15
 8001e40:	400a      	ands	r2, r1
        if((READ_BIT(pll_config,  RCC_CFGR_PLLSRC)  != RCC_OscInitStruct->PLL.PLLSource) ||
 8001e42:	6ae1      	ldr	r1, [r4, #44]	; 0x2c
 8001e44:	428a      	cmp	r2, r1
 8001e46:	d000      	beq.n	8001e4a <HAL_RCC_OscConfig+0x3e6>
 8001e48:	e612      	b.n	8001a70 <HAL_RCC_OscConfig+0xc>
           (READ_BIT(pll_config,  RCC_CFGR_PLLMUL)  != RCC_OscInitStruct->PLL.PLLMUL))
 8001e4a:	20f0      	movs	r0, #240	; 0xf0
 8001e4c:	0380      	lsls	r0, r0, #14
 8001e4e:	4003      	ands	r3, r0
           (READ_BIT(pll_config2, RCC_CFGR2_PREDIV) != RCC_OscInitStruct->PLL.PREDIV)    ||
 8001e50:	6aa0      	ldr	r0, [r4, #40]	; 0x28
 8001e52:	1a1b      	subs	r3, r3, r0
 8001e54:	1e58      	subs	r0, r3, #1
 8001e56:	4183      	sbcs	r3, r0
    return HAL_ERROR;
 8001e58:	b2d8      	uxtb	r0, r3
 8001e5a:	e609      	b.n	8001a70 <HAL_RCC_OscConfig+0xc>
 8001e5c:	40021000 	.word	0x40021000
 8001e60:	feffffff 	.word	0xfeffffff
 8001e64:	ffc2ffff 	.word	0xffc2ffff

08001e68 <HAL_RCC_GetSysClockFreq>:
  *         right SYSCLK value. Otherwise, any configuration based on this function will be incorrect.
  *         
  * @retval SYSCLK frequency
  */
uint32_t HAL_RCC_GetSysClockFreq(void)
{
 8001e68:	b570      	push	{r4, r5, r6, lr}
  const uint8_t aPLLMULFactorTable[16] = { 2U,  3U,  4U,  5U,  6U,  7U,  8U,  9U,
 8001e6a:	4c14      	ldr	r4, [pc, #80]	; (8001ebc <HAL_RCC_GetSysClockFreq+0x54>)
{
 8001e6c:	b088      	sub	sp, #32
  const uint8_t aPLLMULFactorTable[16] = { 2U,  3U,  4U,  5U,  6U,  7U,  8U,  9U,
 8001e6e:	2210      	movs	r2, #16
 8001e70:	0021      	movs	r1, r4
 8001e72:	4668      	mov	r0, sp
 8001e74:	f003 ff92 	bl	8005d9c <memcpy>
                                         10U, 11U, 12U, 13U, 14U, 15U, 16U, 16U};
  const uint8_t aPredivFactorTable[16] = { 1U, 2U,  3U,  4U,  5U,  6U,  7U,  8U,
 8001e78:	0021      	movs	r1, r4
 8001e7a:	ad04      	add	r5, sp, #16
 8001e7c:	2210      	movs	r2, #16
 8001e7e:	3110      	adds	r1, #16
 8001e80:	0028      	movs	r0, r5
 8001e82:	f003 ff8b 	bl	8005d9c <memcpy>
  uint32_t sysclockfreq = 0U;
  
  tmpreg = RCC->CFGR;
  
  /* Get SYSCLK source -------------------------------------------------------*/
  switch (tmpreg & RCC_CFGR_SWS)
 8001e86:	220c      	movs	r2, #12
  tmpreg = RCC->CFGR;
 8001e88:	4e0d      	ldr	r6, [pc, #52]	; (8001ec0 <HAL_RCC_GetSysClockFreq+0x58>)
 8001e8a:	6873      	ldr	r3, [r6, #4]
  switch (tmpreg & RCC_CFGR_SWS)
 8001e8c:	401a      	ands	r2, r3
 8001e8e:	2a08      	cmp	r2, #8
 8001e90:	d111      	bne.n	8001eb6 <HAL_RCC_GetSysClockFreq+0x4e>
      sysclockfreq = HSE_VALUE;
      break;
    }
    case RCC_SYSCLKSOURCE_STATUS_PLLCLK:  /* PLL used as system clock */
    {
      pllmul = aPLLMULFactorTable[(uint32_t)(tmpreg & RCC_CFGR_PLLMUL) >> RCC_CFGR_PLLMUL_BITNUMBER];
 8001e92:	200f      	movs	r0, #15
 8001e94:	466a      	mov	r2, sp
 8001e96:	0c99      	lsrs	r1, r3, #18
 8001e98:	4001      	ands	r1, r0
 8001e9a:	5c54      	ldrb	r4, [r2, r1]
      prediv = aPredivFactorTable[(uint32_t)(RCC->CFGR2 & RCC_CFGR2_PREDIV) >> RCC_CFGR2_PREDIV_BITNUMBER];
 8001e9c:	6af2      	ldr	r2, [r6, #44]	; 0x2c
 8001e9e:	4002      	ands	r2, r0
 8001ea0:	5ca9      	ldrb	r1, [r5, r2]
      if ((tmpreg & RCC_CFGR_PLLSRC) == RCC_PLLSOURCE_HSE)
 8001ea2:	03db      	lsls	r3, r3, #15
 8001ea4:	d505      	bpl.n	8001eb2 <HAL_RCC_GetSysClockFreq+0x4a>
      {
        /* HSE used as PLL clock source : PLLCLK = HSE/PREDIV * PLLMUL */
        pllclk = (uint32_t)((uint64_t) HSE_VALUE / (uint64_t) (prediv)) * ((uint64_t) pllmul);
 8001ea6:	4807      	ldr	r0, [pc, #28]	; (8001ec4 <HAL_RCC_GetSysClockFreq+0x5c>)
 8001ea8:	f7fe f94a 	bl	8000140 <__udivsi3>
#if  (defined(STM32F042x6) || defined(STM32F048xx) || defined(STM32F070x6) || defined(STM32F071xB) || defined(STM32F072xB) || defined(STM32F078xx) || defined(STM32F070xB) || defined(STM32F091xC) || defined(STM32F098xx) || defined(STM32F030xC))
        /* HSI used as PLL clock source : PLLCLK = HSI/PREDIV * PLLMUL */
        pllclk = (uint32_t)((uint64_t) HSI_VALUE / (uint64_t) (prediv)) * ((uint64_t) pllmul);
#else
        /* HSI used as PLL clock source : PLLCLK = HSI/2 * PLLMUL */
        pllclk = (uint32_t)((uint64_t) (HSI_VALUE >> 1U) * ((uint64_t) pllmul));
 8001eac:	4360      	muls	r0, r4
      sysclockfreq = HSI_VALUE;
      break;
    }
  }
  return sysclockfreq;
}
 8001eae:	b008      	add	sp, #32
 8001eb0:	bd70      	pop	{r4, r5, r6, pc}
        pllclk = (uint32_t)((uint64_t) (HSI_VALUE >> 1U) * ((uint64_t) pllmul));
 8001eb2:	4805      	ldr	r0, [pc, #20]	; (8001ec8 <HAL_RCC_GetSysClockFreq+0x60>)
 8001eb4:	e7fa      	b.n	8001eac <HAL_RCC_GetSysClockFreq+0x44>
      sysclockfreq = HSE_VALUE;
 8001eb6:	4803      	ldr	r0, [pc, #12]	; (8001ec4 <HAL_RCC_GetSysClockFreq+0x5c>)
  return sysclockfreq;
 8001eb8:	e7f9      	b.n	8001eae <HAL_RCC_GetSysClockFreq+0x46>
 8001eba:	46c0      	nop			; (mov r8, r8)
 8001ebc:	08006608 	.word	0x08006608
 8001ec0:	40021000 	.word	0x40021000
 8001ec4:	007a1200 	.word	0x007a1200
 8001ec8:	003d0900 	.word	0x003d0900

08001ecc <HAL_RCC_ClockConfig>:
{
 8001ecc:	b5f7      	push	{r0, r1, r2, r4, r5, r6, r7, lr}
 8001ece:	0005      	movs	r5, r0
 8001ed0:	000f      	movs	r7, r1
  if(RCC_ClkInitStruct == NULL)
 8001ed2:	2800      	cmp	r0, #0
 8001ed4:	d101      	bne.n	8001eda <HAL_RCC_ClockConfig+0xe>
    return HAL_ERROR;
 8001ed6:	2001      	movs	r0, #1
}
 8001ed8:	bdfe      	pop	{r1, r2, r3, r4, r5, r6, r7, pc}
  if(FLatency > __HAL_FLASH_GET_LATENCY())
 8001eda:	2201      	movs	r2, #1
 8001edc:	4c37      	ldr	r4, [pc, #220]	; (8001fbc <HAL_RCC_ClockConfig+0xf0>)
 8001ede:	6823      	ldr	r3, [r4, #0]
 8001ee0:	4013      	ands	r3, r2
 8001ee2:	428b      	cmp	r3, r1
 8001ee4:	d31c      	bcc.n	8001f20 <HAL_RCC_ClockConfig+0x54>
  if(((RCC_ClkInitStruct->ClockType) & RCC_CLOCKTYPE_HCLK) == RCC_CLOCKTYPE_HCLK)
 8001ee6:	6829      	ldr	r1, [r5, #0]
 8001ee8:	078b      	lsls	r3, r1, #30
 8001eea:	d422      	bmi.n	8001f32 <HAL_RCC_ClockConfig+0x66>
  if(((RCC_ClkInitStruct->ClockType) & RCC_CLOCKTYPE_SYSCLK) == RCC_CLOCKTYPE_SYSCLK)
 8001eec:	07cb      	lsls	r3, r1, #31
 8001eee:	d42f      	bmi.n	8001f50 <HAL_RCC_ClockConfig+0x84>
  if(FLatency < __HAL_FLASH_GET_LATENCY())
 8001ef0:	2301      	movs	r3, #1
 8001ef2:	6822      	ldr	r2, [r4, #0]
 8001ef4:	401a      	ands	r2, r3
 8001ef6:	4297      	cmp	r7, r2
 8001ef8:	d351      	bcc.n	8001f9e <HAL_RCC_ClockConfig+0xd2>
  if(((RCC_ClkInitStruct->ClockType) & RCC_CLOCKTYPE_PCLK1) == RCC_CLOCKTYPE_PCLK1)
 8001efa:	682b      	ldr	r3, [r5, #0]
 8001efc:	4c30      	ldr	r4, [pc, #192]	; (8001fc0 <HAL_RCC_ClockConfig+0xf4>)
 8001efe:	075b      	lsls	r3, r3, #29
 8001f00:	d454      	bmi.n	8001fac <HAL_RCC_ClockConfig+0xe0>
  SystemCoreClock = HAL_RCC_GetSysClockFreq() >> AHBPrescTable[(RCC->CFGR & RCC_CFGR_HPRE)>> RCC_CFGR_HPRE_BITNUMBER];
 8001f02:	f7ff ffb1 	bl	8001e68 <HAL_RCC_GetSysClockFreq>
 8001f06:	6863      	ldr	r3, [r4, #4]
 8001f08:	4a2e      	ldr	r2, [pc, #184]	; (8001fc4 <HAL_RCC_ClockConfig+0xf8>)
 8001f0a:	061b      	lsls	r3, r3, #24
 8001f0c:	0f1b      	lsrs	r3, r3, #28
 8001f0e:	5cd3      	ldrb	r3, [r2, r3]
 8001f10:	40d8      	lsrs	r0, r3
 8001f12:	4b2d      	ldr	r3, [pc, #180]	; (8001fc8 <HAL_RCC_ClockConfig+0xfc>)
 8001f14:	6018      	str	r0, [r3, #0]
  HAL_InitTick (TICK_INT_PRIORITY);
 8001f16:	2000      	movs	r0, #0
 8001f18:	f7ff f91a 	bl	8001150 <HAL_InitTick>
  return HAL_OK;
 8001f1c:	2000      	movs	r0, #0
 8001f1e:	e7db      	b.n	8001ed8 <HAL_RCC_ClockConfig+0xc>
    __HAL_FLASH_SET_LATENCY(FLatency);
 8001f20:	6823      	ldr	r3, [r4, #0]
 8001f22:	4393      	bics	r3, r2
 8001f24:	430b      	orrs	r3, r1
 8001f26:	6023      	str	r3, [r4, #0]
    if(__HAL_FLASH_GET_LATENCY() != FLatency)
 8001f28:	6823      	ldr	r3, [r4, #0]
 8001f2a:	4013      	ands	r3, r2
 8001f2c:	4299      	cmp	r1, r3
 8001f2e:	d1d2      	bne.n	8001ed6 <HAL_RCC_ClockConfig+0xa>
 8001f30:	e7d9      	b.n	8001ee6 <HAL_RCC_ClockConfig+0x1a>
 8001f32:	4a23      	ldr	r2, [pc, #140]	; (8001fc0 <HAL_RCC_ClockConfig+0xf4>)
    if(((RCC_ClkInitStruct->ClockType) & RCC_CLOCKTYPE_PCLK1) == RCC_CLOCKTYPE_PCLK1)
 8001f34:	074b      	lsls	r3, r1, #29
 8001f36:	d504      	bpl.n	8001f42 <HAL_RCC_ClockConfig+0x76>
      MODIFY_REG(RCC->CFGR, RCC_CFGR_PPRE, RCC_HCLK_DIV16);
 8001f38:	23e0      	movs	r3, #224	; 0xe0
 8001f3a:	6850      	ldr	r0, [r2, #4]
 8001f3c:	00db      	lsls	r3, r3, #3
 8001f3e:	4303      	orrs	r3, r0
 8001f40:	6053      	str	r3, [r2, #4]
    MODIFY_REG(RCC->CFGR, RCC_CFGR_HPRE, RCC_ClkInitStruct->AHBCLKDivider);
 8001f42:	20f0      	movs	r0, #240	; 0xf0
 8001f44:	6853      	ldr	r3, [r2, #4]
 8001f46:	4383      	bics	r3, r0
 8001f48:	68a8      	ldr	r0, [r5, #8]
 8001f4a:	4303      	orrs	r3, r0
 8001f4c:	6053      	str	r3, [r2, #4]
 8001f4e:	e7cd      	b.n	8001eec <HAL_RCC_ClockConfig+0x20>
 8001f50:	4e1b      	ldr	r6, [pc, #108]	; (8001fc0 <HAL_RCC_ClockConfig+0xf4>)
    if(RCC_ClkInitStruct->SYSCLKSource == RCC_SYSCLKSOURCE_HSE)
 8001f52:	686a      	ldr	r2, [r5, #4]
      if(__HAL_RCC_GET_FLAG(RCC_FLAG_HSERDY) == RESET)
 8001f54:	6833      	ldr	r3, [r6, #0]
    if(RCC_ClkInitStruct->SYSCLKSource == RCC_SYSCLKSOURCE_HSE)
 8001f56:	2a01      	cmp	r2, #1
 8001f58:	d119      	bne.n	8001f8e <HAL_RCC_ClockConfig+0xc2>
      if(__HAL_RCC_GET_FLAG(RCC_FLAG_HSERDY) == RESET)
 8001f5a:	039b      	lsls	r3, r3, #14
 8001f5c:	d5bb      	bpl.n	8001ed6 <HAL_RCC_ClockConfig+0xa>
    __HAL_RCC_SYSCLK_CONFIG(RCC_ClkInitStruct->SYSCLKSource);
 8001f5e:	2103      	movs	r1, #3
 8001f60:	6873      	ldr	r3, [r6, #4]
 8001f62:	438b      	bics	r3, r1
 8001f64:	4313      	orrs	r3, r2
 8001f66:	6073      	str	r3, [r6, #4]
    tickstart = HAL_GetTick();
 8001f68:	f7ff f932 	bl	80011d0 <HAL_GetTick>
 8001f6c:	9001      	str	r0, [sp, #4]
    while (__HAL_RCC_GET_SYSCLK_SOURCE() != (RCC_ClkInitStruct->SYSCLKSource << RCC_CFGR_SWS_Pos))
 8001f6e:	230c      	movs	r3, #12
 8001f70:	6872      	ldr	r2, [r6, #4]
 8001f72:	401a      	ands	r2, r3
 8001f74:	686b      	ldr	r3, [r5, #4]
 8001f76:	009b      	lsls	r3, r3, #2
 8001f78:	429a      	cmp	r2, r3
 8001f7a:	d0b9      	beq.n	8001ef0 <HAL_RCC_ClockConfig+0x24>
      if((HAL_GetTick() - tickstart ) > CLOCKSWITCH_TIMEOUT_VALUE)
 8001f7c:	f7ff f928 	bl	80011d0 <HAL_GetTick>
 8001f80:	9b01      	ldr	r3, [sp, #4]
 8001f82:	1ac0      	subs	r0, r0, r3
 8001f84:	4b11      	ldr	r3, [pc, #68]	; (8001fcc <HAL_RCC_ClockConfig+0x100>)
 8001f86:	4298      	cmp	r0, r3
 8001f88:	d9f1      	bls.n	8001f6e <HAL_RCC_ClockConfig+0xa2>
        return HAL_TIMEOUT;
 8001f8a:	2003      	movs	r0, #3
 8001f8c:	e7a4      	b.n	8001ed8 <HAL_RCC_ClockConfig+0xc>
    else if(RCC_ClkInitStruct->SYSCLKSource == RCC_SYSCLKSOURCE_PLLCLK)
 8001f8e:	2a02      	cmp	r2, #2
 8001f90:	d102      	bne.n	8001f98 <HAL_RCC_ClockConfig+0xcc>
      if(__HAL_RCC_GET_FLAG(RCC_FLAG_PLLRDY) == RESET)
 8001f92:	019b      	lsls	r3, r3, #6
 8001f94:	d4e3      	bmi.n	8001f5e <HAL_RCC_ClockConfig+0x92>
 8001f96:	e79e      	b.n	8001ed6 <HAL_RCC_ClockConfig+0xa>
      if(__HAL_RCC_GET_FLAG(RCC_FLAG_HSIRDY) == RESET)
 8001f98:	079b      	lsls	r3, r3, #30
 8001f9a:	d4e0      	bmi.n	8001f5e <HAL_RCC_ClockConfig+0x92>
 8001f9c:	e79b      	b.n	8001ed6 <HAL_RCC_ClockConfig+0xa>
    __HAL_FLASH_SET_LATENCY(FLatency);
 8001f9e:	6822      	ldr	r2, [r4, #0]
 8001fa0:	439a      	bics	r2, r3
 8001fa2:	6022      	str	r2, [r4, #0]
    if(__HAL_FLASH_GET_LATENCY() != FLatency)
 8001fa4:	6822      	ldr	r2, [r4, #0]
 8001fa6:	421a      	tst	r2, r3
 8001fa8:	d195      	bne.n	8001ed6 <HAL_RCC_ClockConfig+0xa>
 8001faa:	e7a6      	b.n	8001efa <HAL_RCC_ClockConfig+0x2e>
    MODIFY_REG(RCC->CFGR, RCC_CFGR_PPRE, RCC_ClkInitStruct->APB1CLKDivider);
 8001fac:	6863      	ldr	r3, [r4, #4]
 8001fae:	4a08      	ldr	r2, [pc, #32]	; (8001fd0 <HAL_RCC_ClockConfig+0x104>)
 8001fb0:	4013      	ands	r3, r2
 8001fb2:	68ea      	ldr	r2, [r5, #12]
 8001fb4:	4313      	orrs	r3, r2
 8001fb6:	6063      	str	r3, [r4, #4]
 8001fb8:	e7a3      	b.n	8001f02 <HAL_RCC_ClockConfig+0x36>
 8001fba:	46c0      	nop			; (mov r8, r8)
 8001fbc:	40022000 	.word	0x40022000
 8001fc0:	40021000 	.word	0x40021000
 8001fc4:	08006d33 	.word	0x08006d33
 8001fc8:	2000000c 	.word	0x2000000c
 8001fcc:	00001388 	.word	0x00001388
 8001fd0:	fffff8ff 	.word	0xfffff8ff

08001fd4 <HAL_RCC_GetPCLK1Freq>:
  * @retval PCLK1 frequency
  */
uint32_t HAL_RCC_GetPCLK1Freq(void)
{
  /* Get HCLK source and Compute PCLK1 frequency ---------------------------*/
  return (HAL_RCC_GetHCLKFreq() >> APBPrescTable[(RCC->CFGR & RCC_CFGR_PPRE) >> RCC_CFGR_PPRE_BITNUMBER]);
 8001fd4:	4b04      	ldr	r3, [pc, #16]	; (8001fe8 <HAL_RCC_GetPCLK1Freq+0x14>)
 8001fd6:	4a05      	ldr	r2, [pc, #20]	; (8001fec <HAL_RCC_GetPCLK1Freq+0x18>)
 8001fd8:	685b      	ldr	r3, [r3, #4]
 8001fda:	055b      	lsls	r3, r3, #21
 8001fdc:	0f5b      	lsrs	r3, r3, #29
 8001fde:	5cd3      	ldrb	r3, [r2, r3]
 8001fe0:	4a03      	ldr	r2, [pc, #12]	; (8001ff0 <HAL_RCC_GetPCLK1Freq+0x1c>)
 8001fe2:	6810      	ldr	r0, [r2, #0]
 8001fe4:	40d8      	lsrs	r0, r3
}    
 8001fe6:	4770      	bx	lr
 8001fe8:	40021000 	.word	0x40021000
 8001fec:	08006d43 	.word	0x08006d43
 8001ff0:	2000000c 	.word	0x2000000c

08001ff4 <HAL_RCCEx_PeriphCLKConfig>:
  *         the backup registers) and RCC_BDCR register are set to their reset values.
  *
  * @retval HAL status
  */
HAL_StatusTypeDef HAL_RCCEx_PeriphCLKConfig(RCC_PeriphCLKInitTypeDef  *PeriphClkInit)
{
 8001ff4:	b5f0      	push	{r4, r5, r6, r7, lr}

  /* Check the parameters */
  assert_param(IS_RCC_PERIPHCLOCK(PeriphClkInit->PeriphClockSelection));
  
  /*---------------------------- RTC configuration -------------------------------*/
  if(((PeriphClkInit->PeriphClockSelection) & RCC_PERIPHCLK_RTC) == (RCC_PERIPHCLK_RTC))
 8001ff6:	6803      	ldr	r3, [r0, #0]
{
 8001ff8:	b085      	sub	sp, #20
 8001ffa:	0005      	movs	r5, r0
  if(((PeriphClkInit->PeriphClockSelection) & RCC_PERIPHCLK_RTC) == (RCC_PERIPHCLK_RTC))
 8001ffc:	03db      	lsls	r3, r3, #15
 8001ffe:	d528      	bpl.n	8002052 <HAL_RCCEx_PeriphCLKConfig+0x5e>
    FlagStatus       pwrclkchanged = RESET;

    /* As soon as function is called to change RTC clock source, activation of the 
       power domain is done. */
    /* Requires to enable write access to Backup Domain of necessary */
    if(__HAL_RCC_PWR_IS_CLK_DISABLED())
 8002000:	2280      	movs	r2, #128	; 0x80
    FlagStatus       pwrclkchanged = RESET;
 8002002:	2100      	movs	r1, #0
    if(__HAL_RCC_PWR_IS_CLK_DISABLED())
 8002004:	4c3b      	ldr	r4, [pc, #236]	; (80020f4 <HAL_RCCEx_PeriphCLKConfig+0x100>)
 8002006:	0552      	lsls	r2, r2, #21
 8002008:	69e3      	ldr	r3, [r4, #28]
    FlagStatus       pwrclkchanged = RESET;
 800200a:	9100      	str	r1, [sp, #0]
    if(__HAL_RCC_PWR_IS_CLK_DISABLED())
 800200c:	4213      	tst	r3, r2
 800200e:	d108      	bne.n	8002022 <HAL_RCCEx_PeriphCLKConfig+0x2e>
    {
    __HAL_RCC_PWR_CLK_ENABLE();
 8002010:	69e3      	ldr	r3, [r4, #28]
 8002012:	4313      	orrs	r3, r2
 8002014:	61e3      	str	r3, [r4, #28]
 8002016:	69e3      	ldr	r3, [r4, #28]
 8002018:	4013      	ands	r3, r2
 800201a:	9303      	str	r3, [sp, #12]
 800201c:	9b03      	ldr	r3, [sp, #12]
      pwrclkchanged = SET;
 800201e:	2301      	movs	r3, #1
 8002020:	9300      	str	r3, [sp, #0]
    }
    
    if(HAL_IS_BIT_CLR(PWR->CR, PWR_CR_DBP))
 8002022:	2780      	movs	r7, #128	; 0x80
 8002024:	4e34      	ldr	r6, [pc, #208]	; (80020f8 <HAL_RCCEx_PeriphCLKConfig+0x104>)
 8002026:	007f      	lsls	r7, r7, #1
 8002028:	6833      	ldr	r3, [r6, #0]
 800202a:	423b      	tst	r3, r7
 800202c:	d02f      	beq.n	800208e <HAL_RCCEx_PeriphCLKConfig+0x9a>
        }
      }
    }
    
    /* Reset the Backup domain only if the RTC Clock source selection is modified from reset value */ 
    temp_reg = (RCC->BDCR & RCC_BDCR_RTCSEL);
 800202e:	22c0      	movs	r2, #192	; 0xc0
 8002030:	6a23      	ldr	r3, [r4, #32]
 8002032:	0092      	lsls	r2, r2, #2
 8002034:	4013      	ands	r3, r2
 8002036:	4e31      	ldr	r6, [pc, #196]	; (80020fc <HAL_RCCEx_PeriphCLKConfig+0x108>)
    if((temp_reg != 0x00000000U) && (temp_reg != (PeriphClkInit->RTCClockSelection & RCC_BDCR_RTCSEL)))
 8002038:	d13b      	bne.n	80020b2 <HAL_RCCEx_PeriphCLKConfig+0xbe>
            return HAL_TIMEOUT;
          }
        }
      }
    }
    __HAL_RCC_RTC_CONFIG(PeriphClkInit->RTCClockSelection);
 800203a:	6a23      	ldr	r3, [r4, #32]
 800203c:	401e      	ands	r6, r3
 800203e:	686b      	ldr	r3, [r5, #4]
 8002040:	431e      	orrs	r6, r3

    /* Require to disable power clock if necessary */
    if(pwrclkchanged == SET)
 8002042:	9b00      	ldr	r3, [sp, #0]
    __HAL_RCC_RTC_CONFIG(PeriphClkInit->RTCClockSelection);
 8002044:	6226      	str	r6, [r4, #32]
    if(pwrclkchanged == SET)
 8002046:	2b01      	cmp	r3, #1
 8002048:	d103      	bne.n	8002052 <HAL_RCCEx_PeriphCLKConfig+0x5e>
    {
      __HAL_RCC_PWR_CLK_DISABLE();
 800204a:	69e3      	ldr	r3, [r4, #28]
 800204c:	4a2c      	ldr	r2, [pc, #176]	; (8002100 <HAL_RCCEx_PeriphCLKConfig+0x10c>)
 800204e:	4013      	ands	r3, r2
 8002050:	61e3      	str	r3, [r4, #28]
    }
  }

  /*------------------------------- USART1 Configuration ------------------------*/ 
  if(((PeriphClkInit->PeriphClockSelection) & RCC_PERIPHCLK_USART1) == RCC_PERIPHCLK_USART1)
 8002052:	682a      	ldr	r2, [r5, #0]
 8002054:	07d3      	lsls	r3, r2, #31
 8002056:	d506      	bpl.n	8002066 <HAL_RCCEx_PeriphCLKConfig+0x72>
  {
    /* Check the parameters */
    assert_param(IS_RCC_USART1CLKSOURCE(PeriphClkInit->Usart1ClockSelection));
    
    /* Configure the USART1 clock source */
    __HAL_RCC_USART1_CONFIG(PeriphClkInit->Usart1ClockSelection);
 8002058:	2003      	movs	r0, #3
 800205a:	4926      	ldr	r1, [pc, #152]	; (80020f4 <HAL_RCCEx_PeriphCLKConfig+0x100>)
 800205c:	6b0b      	ldr	r3, [r1, #48]	; 0x30
 800205e:	4383      	bics	r3, r0
 8002060:	68a8      	ldr	r0, [r5, #8]
 8002062:	4303      	orrs	r3, r0
 8002064:	630b      	str	r3, [r1, #48]	; 0x30
    __HAL_RCC_USART3_CONFIG(PeriphClkInit->Usart3ClockSelection);
  }
#endif /* STM32F091xC || STM32F098xx */  

  /*------------------------------ I2C1 Configuration ------------------------*/ 
  if(((PeriphClkInit->PeriphClockSelection) & RCC_PERIPHCLK_I2C1) == RCC_PERIPHCLK_I2C1)
 8002066:	0693      	lsls	r3, r2, #26
 8002068:	d506      	bpl.n	8002078 <HAL_RCCEx_PeriphCLKConfig+0x84>
  {
    /* Check the parameters */
    assert_param(IS_RCC_I2C1CLKSOURCE(PeriphClkInit->I2c1ClockSelection));
    
    /* Configure the I2C1 clock source */
    __HAL_RCC_I2C1_CONFIG(PeriphClkInit->I2c1ClockSelection);
 800206a:	2010      	movs	r0, #16
 800206c:	4921      	ldr	r1, [pc, #132]	; (80020f4 <HAL_RCCEx_PeriphCLKConfig+0x100>)
 800206e:	6b0b      	ldr	r3, [r1, #48]	; 0x30
 8002070:	4383      	bics	r3, r0
 8002072:	68e8      	ldr	r0, [r5, #12]
 8002074:	4303      	orrs	r3, r0
 8002076:	630b      	str	r3, [r1, #48]	; 0x30
#endif /* STM32F042x6 || STM32F048xx ||                */
       /* STM32F051x8 || STM32F058xx ||                */
       /* STM32F071xB || STM32F072xB || STM32F078xx || */
       /* STM32F091xC || STM32F098xx */
  
  return HAL_OK;
 8002078:	2000      	movs	r0, #0
  if(((PeriphClkInit->PeriphClockSelection) & RCC_PERIPHCLK_CEC) == RCC_PERIPHCLK_CEC)
 800207a:	0553      	lsls	r3, r2, #21
 800207c:	d517      	bpl.n	80020ae <HAL_RCCEx_PeriphCLKConfig+0xba>
    __HAL_RCC_CEC_CONFIG(PeriphClkInit->CecClockSelection);
 800207e:	2140      	movs	r1, #64	; 0x40
 8002080:	4a1c      	ldr	r2, [pc, #112]	; (80020f4 <HAL_RCCEx_PeriphCLKConfig+0x100>)
 8002082:	6b13      	ldr	r3, [r2, #48]	; 0x30
 8002084:	438b      	bics	r3, r1
 8002086:	6929      	ldr	r1, [r5, #16]
 8002088:	430b      	orrs	r3, r1
 800208a:	6313      	str	r3, [r2, #48]	; 0x30
 800208c:	e00f      	b.n	80020ae <HAL_RCCEx_PeriphCLKConfig+0xba>
      SET_BIT(PWR->CR, PWR_CR_DBP);
 800208e:	6833      	ldr	r3, [r6, #0]
 8002090:	433b      	orrs	r3, r7
 8002092:	6033      	str	r3, [r6, #0]
      tickstart = HAL_GetTick();
 8002094:	f7ff f89c 	bl	80011d0 <HAL_GetTick>
 8002098:	9001      	str	r0, [sp, #4]
      while(HAL_IS_BIT_CLR(PWR->CR, PWR_CR_DBP))
 800209a:	6833      	ldr	r3, [r6, #0]
 800209c:	423b      	tst	r3, r7
 800209e:	d1c6      	bne.n	800202e <HAL_RCCEx_PeriphCLKConfig+0x3a>
        if((HAL_GetTick() - tickstart) > RCC_DBP_TIMEOUT_VALUE)
 80020a0:	f7ff f896 	bl	80011d0 <HAL_GetTick>
 80020a4:	9b01      	ldr	r3, [sp, #4]
 80020a6:	1ac0      	subs	r0, r0, r3
 80020a8:	2864      	cmp	r0, #100	; 0x64
 80020aa:	d9f6      	bls.n	800209a <HAL_RCCEx_PeriphCLKConfig+0xa6>
          return HAL_TIMEOUT;
 80020ac:	2003      	movs	r0, #3
}
 80020ae:	b005      	add	sp, #20
 80020b0:	bdf0      	pop	{r4, r5, r6, r7, pc}
    if((temp_reg != 0x00000000U) && (temp_reg != (PeriphClkInit->RTCClockSelection & RCC_BDCR_RTCSEL)))
 80020b2:	6869      	ldr	r1, [r5, #4]
 80020b4:	400a      	ands	r2, r1
 80020b6:	4293      	cmp	r3, r2
 80020b8:	d0bf      	beq.n	800203a <HAL_RCCEx_PeriphCLKConfig+0x46>
      __HAL_RCC_BACKUPRESET_FORCE();
 80020ba:	2380      	movs	r3, #128	; 0x80
      temp_reg = (RCC->BDCR & ~(RCC_BDCR_RTCSEL));
 80020bc:	6a22      	ldr	r2, [r4, #32]
      __HAL_RCC_BACKUPRESET_FORCE();
 80020be:	6a20      	ldr	r0, [r4, #32]
      temp_reg = (RCC->BDCR & ~(RCC_BDCR_RTCSEL));
 80020c0:	0011      	movs	r1, r2
      __HAL_RCC_BACKUPRESET_FORCE();
 80020c2:	025b      	lsls	r3, r3, #9
 80020c4:	4303      	orrs	r3, r0
 80020c6:	6223      	str	r3, [r4, #32]
      __HAL_RCC_BACKUPRESET_RELEASE();
 80020c8:	6a23      	ldr	r3, [r4, #32]
 80020ca:	480e      	ldr	r0, [pc, #56]	; (8002104 <HAL_RCCEx_PeriphCLKConfig+0x110>)
      temp_reg = (RCC->BDCR & ~(RCC_BDCR_RTCSEL));
 80020cc:	4031      	ands	r1, r6
      __HAL_RCC_BACKUPRESET_RELEASE();
 80020ce:	4003      	ands	r3, r0
 80020d0:	6223      	str	r3, [r4, #32]
      RCC->BDCR = temp_reg;
 80020d2:	6221      	str	r1, [r4, #32]
      if (HAL_IS_BIT_SET(temp_reg, RCC_BDCR_LSEON))
 80020d4:	07d3      	lsls	r3, r2, #31
 80020d6:	d5b0      	bpl.n	800203a <HAL_RCCEx_PeriphCLKConfig+0x46>
        tickstart = HAL_GetTick();
 80020d8:	f7ff f87a 	bl	80011d0 <HAL_GetTick>
 80020dc:	0007      	movs	r7, r0
        while(__HAL_RCC_GET_FLAG(RCC_FLAG_LSERDY) == RESET)
 80020de:	2202      	movs	r2, #2
 80020e0:	6a23      	ldr	r3, [r4, #32]
 80020e2:	4213      	tst	r3, r2
 80020e4:	d1a9      	bne.n	800203a <HAL_RCCEx_PeriphCLKConfig+0x46>
          if((HAL_GetTick() - tickstart) > RCC_LSE_TIMEOUT_VALUE)
 80020e6:	f7ff f873 	bl	80011d0 <HAL_GetTick>
 80020ea:	4b07      	ldr	r3, [pc, #28]	; (8002108 <HAL_RCCEx_PeriphCLKConfig+0x114>)
 80020ec:	1bc0      	subs	r0, r0, r7
 80020ee:	4298      	cmp	r0, r3
 80020f0:	d9f5      	bls.n	80020de <HAL_RCCEx_PeriphCLKConfig+0xea>
 80020f2:	e7db      	b.n	80020ac <HAL_RCCEx_PeriphCLKConfig+0xb8>
 80020f4:	40021000 	.word	0x40021000
 80020f8:	40007000 	.word	0x40007000
 80020fc:	fffffcff 	.word	0xfffffcff
 8002100:	efffffff 	.word	0xefffffff
 8002104:	fffeffff 	.word	0xfffeffff
 8002108:	00001388 	.word	0x00001388

0800210c <SPI_WaitFifoStateUntilTimeout.part.1>:
        /* Disable the SPI and reset the CRC: the CRC value should be cleared
           on both master and slave sides in order to resynchronize the master
           and slave for their respective CRC calculation */

        /* Disable TXE, RXNE and ERR interrupts for the interrupt process */
        __HAL_SPI_DISABLE_IT(hspi, (SPI_IT_TXE | SPI_IT_RXNE | SPI_IT_ERR));
 800210c:	21e0      	movs	r1, #224	; 0xe0
 800210e:	6803      	ldr	r3, [r0, #0]
static HAL_StatusTypeDef SPI_WaitFifoStateUntilTimeout(SPI_HandleTypeDef *hspi, uint32_t Fifo, uint32_t State,
 8002110:	b510      	push	{r4, lr}
        __HAL_SPI_DISABLE_IT(hspi, (SPI_IT_TXE | SPI_IT_RXNE | SPI_IT_ERR));
 8002112:	685a      	ldr	r2, [r3, #4]
 8002114:	438a      	bics	r2, r1
 8002116:	605a      	str	r2, [r3, #4]

        if ((hspi->Init.Mode == SPI_MODE_MASTER) && ((hspi->Init.Direction == SPI_DIRECTION_1LINE)
 8002118:	2282      	movs	r2, #130	; 0x82
 800211a:	6841      	ldr	r1, [r0, #4]
 800211c:	0052      	lsls	r2, r2, #1
 800211e:	4291      	cmp	r1, r2
 8002120:	d10c      	bne.n	800213c <SPI_WaitFifoStateUntilTimeout.part.1+0x30>
 8002122:	2180      	movs	r1, #128	; 0x80
 8002124:	6882      	ldr	r2, [r0, #8]
 8002126:	0209      	lsls	r1, r1, #8
 8002128:	428a      	cmp	r2, r1
 800212a:	d003      	beq.n	8002134 <SPI_WaitFifoStateUntilTimeout.part.1+0x28>
                                                     || (hspi->Init.Direction == SPI_DIRECTION_2LINES_RXONLY)))
 800212c:	2180      	movs	r1, #128	; 0x80
 800212e:	00c9      	lsls	r1, r1, #3
 8002130:	428a      	cmp	r2, r1
 8002132:	d103      	bne.n	800213c <SPI_WaitFifoStateUntilTimeout.part.1+0x30>
        {
          /* Disable SPI peripheral */
          __HAL_SPI_DISABLE(hspi);
 8002134:	2140      	movs	r1, #64	; 0x40
 8002136:	681a      	ldr	r2, [r3, #0]
 8002138:	438a      	bics	r2, r1
 800213a:	601a      	str	r2, [r3, #0]
        }

        /* Reset CRC Calculation */
        if (hspi->Init.CRCCalculation == SPI_CRCCALCULATION_ENABLE)
 800213c:	2180      	movs	r1, #128	; 0x80
 800213e:	6a82      	ldr	r2, [r0, #40]	; 0x28
 8002140:	0189      	lsls	r1, r1, #6
 8002142:	428a      	cmp	r2, r1
 8002144:	d106      	bne.n	8002154 <SPI_WaitFifoStateUntilTimeout.part.1+0x48>
        {
          SPI_RESET_CRC(hspi);
 8002146:	6819      	ldr	r1, [r3, #0]
 8002148:	4c07      	ldr	r4, [pc, #28]	; (8002168 <SPI_WaitFifoStateUntilTimeout.part.1+0x5c>)
 800214a:	4021      	ands	r1, r4
 800214c:	6019      	str	r1, [r3, #0]
 800214e:	6819      	ldr	r1, [r3, #0]
 8002150:	430a      	orrs	r2, r1
 8002152:	601a      	str	r2, [r3, #0]
        }

        hspi->State = HAL_SPI_STATE_READY;
 8002154:	0003      	movs	r3, r0
 8002156:	2201      	movs	r2, #1
 8002158:	335d      	adds	r3, #93	; 0x5d
 800215a:	701a      	strb	r2, [r3, #0]

        /* Process Unlocked */
        __HAL_UNLOCK(hspi);
 800215c:	2300      	movs	r3, #0
 800215e:	305c      	adds	r0, #92	; 0x5c
 8002160:	7003      	strb	r3, [r0, #0]
      }
    }
  }

  return HAL_OK;
}
 8002162:	2003      	movs	r0, #3
 8002164:	bd10      	pop	{r4, pc}
 8002166:	46c0      	nop			; (mov r8, r8)
 8002168:	ffffdfff 	.word	0xffffdfff

0800216c <SPI_WaitFlagStateUntilTimeout.constprop.9>:
static HAL_StatusTypeDef SPI_WaitFlagStateUntilTimeout(SPI_HandleTypeDef *hspi, uint32_t Flag, FlagStatus State,
 800216c:	b5f8      	push	{r3, r4, r5, r6, r7, lr}
 800216e:	0004      	movs	r4, r0
 8002170:	000d      	movs	r5, r1
 8002172:	0017      	movs	r7, r2
  while ((__HAL_SPI_GET_FLAG(hspi, Flag) ? SET : RESET) != State)
 8002174:	2680      	movs	r6, #128	; 0x80
 8002176:	6823      	ldr	r3, [r4, #0]
 8002178:	6898      	ldr	r0, [r3, #8]
 800217a:	4030      	ands	r0, r6
 800217c:	d009      	beq.n	8002192 <SPI_WaitFlagStateUntilTimeout.constprop.9+0x26>
    if (Timeout != HAL_MAX_DELAY)
 800217e:	1c6a      	adds	r2, r5, #1
 8002180:	d0fa      	beq.n	8002178 <SPI_WaitFlagStateUntilTimeout.constprop.9+0xc>
      if (((HAL_GetTick() - Tickstart) >= Timeout) || (Timeout == 0U))
 8002182:	f7ff f825 	bl	80011d0 <HAL_GetTick>
 8002186:	1bc0      	subs	r0, r0, r7
 8002188:	4285      	cmp	r5, r0
 800218a:	d8f4      	bhi.n	8002176 <SPI_WaitFlagStateUntilTimeout.constprop.9+0xa>
 800218c:	0020      	movs	r0, r4
 800218e:	f7ff ffbd 	bl	800210c <SPI_WaitFifoStateUntilTimeout.part.1>
}
 8002192:	bdf8      	pop	{r3, r4, r5, r6, r7, pc}

08002194 <SPI_WaitFifoStateUntilTimeout.constprop.10>:
static HAL_StatusTypeDef SPI_WaitFifoStateUntilTimeout(SPI_HandleTypeDef *hspi, uint32_t Fifo, uint32_t State,
 8002194:	b5f7      	push	{r0, r1, r2, r4, r5, r6, r7, lr}
    if ((Fifo == SPI_SR_FRLVL) && (State == SPI_FRLVL_EMPTY))
 8002196:	27c0      	movs	r7, #192	; 0xc0
static HAL_StatusTypeDef SPI_WaitFifoStateUntilTimeout(SPI_HandleTypeDef *hspi, uint32_t Fifo, uint32_t State,
 8002198:	0005      	movs	r5, r0
 800219a:	000c      	movs	r4, r1
 800219c:	0016      	movs	r6, r2
 800219e:	9301      	str	r3, [sp, #4]
    if ((Fifo == SPI_SR_FRLVL) && (State == SPI_FRLVL_EMPTY))
 80021a0:	00ff      	lsls	r7, r7, #3
  while ((hspi->Instance->SR & Fifo) != State)
 80021a2:	682b      	ldr	r3, [r5, #0]
 80021a4:	6898      	ldr	r0, [r3, #8]
 80021a6:	4020      	ands	r0, r4
 80021a8:	d00d      	beq.n	80021c6 <SPI_WaitFifoStateUntilTimeout.constprop.10+0x32>
    if ((Fifo == SPI_SR_FRLVL) && (State == SPI_FRLVL_EMPTY))
 80021aa:	42bc      	cmp	r4, r7
 80021ac:	d100      	bne.n	80021b0 <SPI_WaitFifoStateUntilTimeout.constprop.10+0x1c>
      READ_REG(*((__IO uint8_t *)&hspi->Instance->DR));
 80021ae:	7b1a      	ldrb	r2, [r3, #12]
    if (Timeout != HAL_MAX_DELAY)
 80021b0:	1c72      	adds	r2, r6, #1
 80021b2:	d0f7      	beq.n	80021a4 <SPI_WaitFifoStateUntilTimeout.constprop.10+0x10>
      if (((HAL_GetTick() - Tickstart) >= Timeout) || (Timeout == 0U))
 80021b4:	f7ff f80c 	bl	80011d0 <HAL_GetTick>
 80021b8:	9b01      	ldr	r3, [sp, #4]
 80021ba:	1ac0      	subs	r0, r0, r3
 80021bc:	4286      	cmp	r6, r0
 80021be:	d8f0      	bhi.n	80021a2 <SPI_WaitFifoStateUntilTimeout.constprop.10+0xe>
 80021c0:	0028      	movs	r0, r5
 80021c2:	f7ff ffa3 	bl	800210c <SPI_WaitFifoStateUntilTimeout.part.1>
}
 80021c6:	bdfe      	pop	{r1, r2, r3, r4, r5, r6, r7, pc}

080021c8 <SPI_EndRxTxTransaction>:
  * @param  Timeout Timeout duration
  * @param  Tickstart tick start value
  * @retval HAL status
  */
static HAL_StatusTypeDef SPI_EndRxTxTransaction(SPI_HandleTypeDef *hspi, uint32_t Timeout, uint32_t Tickstart)
{
 80021c8:	b570      	push	{r4, r5, r6, lr}
  /* Control if the TX fifo is empty */
  if (SPI_WaitFifoStateUntilTimeout(hspi, SPI_FLAG_FTLVL, SPI_FTLVL_EMPTY, Timeout, Tickstart) != HAL_OK)
 80021ca:	0013      	movs	r3, r2
{
 80021cc:	000d      	movs	r5, r1
 80021ce:	0016      	movs	r6, r2
  if (SPI_WaitFifoStateUntilTimeout(hspi, SPI_FLAG_FTLVL, SPI_FTLVL_EMPTY, Timeout, Tickstart) != HAL_OK)
 80021d0:	000a      	movs	r2, r1
 80021d2:	21c0      	movs	r1, #192	; 0xc0
 80021d4:	0149      	lsls	r1, r1, #5
{
 80021d6:	0004      	movs	r4, r0
  if (SPI_WaitFifoStateUntilTimeout(hspi, SPI_FLAG_FTLVL, SPI_FTLVL_EMPTY, Timeout, Tickstart) != HAL_OK)
 80021d8:	f7ff ffdc 	bl	8002194 <SPI_WaitFifoStateUntilTimeout.constprop.10>
 80021dc:	2800      	cmp	r0, #0
 80021de:	d005      	beq.n	80021ec <SPI_EndRxTxTransaction+0x24>
      SET_BIT(hspi->ErrorCode, HAL_SPI_ERROR_FLAG);
 80021e0:	2320      	movs	r3, #32
 80021e2:	6e22      	ldr	r2, [r4, #96]	; 0x60
      return HAL_TIMEOUT;
 80021e4:	2003      	movs	r0, #3
      SET_BIT(hspi->ErrorCode, HAL_SPI_ERROR_FLAG);
 80021e6:	4313      	orrs	r3, r2
 80021e8:	6623      	str	r3, [r4, #96]	; 0x60
 80021ea:	e00f      	b.n	800220c <SPI_EndRxTxTransaction+0x44>
    SET_BIT(hspi->ErrorCode, HAL_SPI_ERROR_FLAG);
    return HAL_TIMEOUT;
  }

  /* Control the BSY flag */
  if (SPI_WaitFlagStateUntilTimeout(hspi, SPI_FLAG_BSY, RESET, Timeout, Tickstart) != HAL_OK)
 80021ec:	0032      	movs	r2, r6
 80021ee:	0029      	movs	r1, r5
 80021f0:	0020      	movs	r0, r4
 80021f2:	f7ff ffbb 	bl	800216c <SPI_WaitFlagStateUntilTimeout.constprop.9>
 80021f6:	2800      	cmp	r0, #0
 80021f8:	d1f2      	bne.n	80021e0 <SPI_EndRxTxTransaction+0x18>
    if (SPI_WaitFifoStateUntilTimeout(hspi, SPI_FLAG_FRLVL, SPI_FRLVL_EMPTY, Timeout, Tickstart) != HAL_OK)
 80021fa:	21c0      	movs	r1, #192	; 0xc0
 80021fc:	0033      	movs	r3, r6
 80021fe:	002a      	movs	r2, r5
 8002200:	00c9      	lsls	r1, r1, #3
 8002202:	0020      	movs	r0, r4
 8002204:	f7ff ffc6 	bl	8002194 <SPI_WaitFifoStateUntilTimeout.constprop.10>
 8002208:	2800      	cmp	r0, #0
 800220a:	d1e9      	bne.n	80021e0 <SPI_EndRxTxTransaction+0x18>
    SET_BIT(hspi->ErrorCode, HAL_SPI_ERROR_FLAG);
    return HAL_TIMEOUT;
  }

  return HAL_OK;
}
 800220c:	bd70      	pop	{r4, r5, r6, pc}
	...

08002210 <HAL_SPI_Init>:
{
 8002210:	b5f8      	push	{r3, r4, r5, r6, r7, lr}
 8002212:	0004      	movs	r4, r0
    return HAL_ERROR;
 8002214:	2001      	movs	r0, #1
  if (hspi == NULL)
 8002216:	2c00      	cmp	r4, #0
 8002218:	d04b      	beq.n	80022b2 <HAL_SPI_Init+0xa2>
  hspi->Init.CRCCalculation = SPI_CRCCALCULATION_DISABLE;
 800221a:	2300      	movs	r3, #0
  if (hspi->State == HAL_SPI_STATE_RESET)
 800221c:	0025      	movs	r5, r4
  hspi->Init.CRCCalculation = SPI_CRCCALCULATION_DISABLE;
 800221e:	62a3      	str	r3, [r4, #40]	; 0x28
  if (hspi->State == HAL_SPI_STATE_RESET)
 8002220:	355d      	adds	r5, #93	; 0x5d
 8002222:	782b      	ldrb	r3, [r5, #0]
 8002224:	b2db      	uxtb	r3, r3
 8002226:	2b00      	cmp	r3, #0
 8002228:	d105      	bne.n	8002236 <HAL_SPI_Init+0x26>
    hspi->Lock = HAL_UNLOCKED;
 800222a:	0022      	movs	r2, r4
 800222c:	325c      	adds	r2, #92	; 0x5c
 800222e:	7013      	strb	r3, [r2, #0]
    HAL_SPI_MspInit(hspi);
 8002230:	0020      	movs	r0, r4
 8002232:	f003 fc8b 	bl	8005b4c <HAL_SPI_MspInit>
  hspi->State = HAL_SPI_STATE_BUSY;
 8002236:	2302      	movs	r3, #2
  __HAL_SPI_DISABLE(hspi);
 8002238:	2240      	movs	r2, #64	; 0x40
 800223a:	6821      	ldr	r1, [r4, #0]
  hspi->State = HAL_SPI_STATE_BUSY;
 800223c:	702b      	strb	r3, [r5, #0]
  __HAL_SPI_DISABLE(hspi);
 800223e:	680b      	ldr	r3, [r1, #0]
 8002240:	2000      	movs	r0, #0
 8002242:	4393      	bics	r3, r2
 8002244:	600b      	str	r3, [r1, #0]
 8002246:	23e0      	movs	r3, #224	; 0xe0
  if (hspi->Init.DataSize > SPI_DATASIZE_8BIT)
 8002248:	68e2      	ldr	r2, [r4, #12]
 800224a:	00db      	lsls	r3, r3, #3
 800224c:	429a      	cmp	r2, r3
 800224e:	d931      	bls.n	80022b4 <HAL_SPI_Init+0xa4>
  if ((hspi->Init.DataSize != SPI_DATASIZE_16BIT) && (hspi->Init.DataSize != SPI_DATASIZE_8BIT))
 8002250:	26f0      	movs	r6, #240	; 0xf0
 8002252:	0136      	lsls	r6, r6, #4
 8002254:	42b2      	cmp	r2, r6
 8002256:	d133      	bne.n	80022c0 <HAL_SPI_Init+0xb0>
    frxth = SPI_RXFIFO_THRESHOLD_HF;
 8002258:	0006      	movs	r6, r0
  if (hspi->Init.CRCLength == SPI_CRC_LENGTH_DATASIZE)
 800225a:	6b20      	ldr	r0, [r4, #48]	; 0x30
 800225c:	2800      	cmp	r0, #0
 800225e:	d103      	bne.n	8002268 <HAL_SPI_Init+0x58>
    if (hspi->Init.DataSize > SPI_DATASIZE_8BIT)
 8002260:	429a      	cmp	r2, r3
 8002262:	d92f      	bls.n	80022c4 <HAL_SPI_Init+0xb4>
      hspi->Init.CRCLength = SPI_CRC_LENGTH_16BIT;
 8002264:	2302      	movs	r3, #2
      hspi->Init.CRCLength = SPI_CRC_LENGTH_8BIT;
 8002266:	6323      	str	r3, [r4, #48]	; 0x30
  WRITE_REG(hspi->Instance->CR1, (hspi->Init.Mode | hspi->Init.Direction |
 8002268:	68a7      	ldr	r7, [r4, #8]
 800226a:	6863      	ldr	r3, [r4, #4]
 800226c:	69a0      	ldr	r0, [r4, #24]
 800226e:	433b      	orrs	r3, r7
 8002270:	6927      	ldr	r7, [r4, #16]
 8002272:	433b      	orrs	r3, r7
 8002274:	6967      	ldr	r7, [r4, #20]
 8002276:	433b      	orrs	r3, r7
 8002278:	69e7      	ldr	r7, [r4, #28]
 800227a:	433b      	orrs	r3, r7
 800227c:	6a27      	ldr	r7, [r4, #32]
 800227e:	433b      	orrs	r3, r7
 8002280:	6aa7      	ldr	r7, [r4, #40]	; 0x28
 8002282:	433b      	orrs	r3, r7
 8002284:	2780      	movs	r7, #128	; 0x80
 8002286:	00bf      	lsls	r7, r7, #2
 8002288:	4007      	ands	r7, r0
 800228a:	433b      	orrs	r3, r7
 800228c:	600b      	str	r3, [r1, #0]
  WRITE_REG(hspi->Instance->CR2, (((hspi->Init.NSS >> 16U) & SPI_CR2_SSOE) | hspi->Init.TIMode |
 800228e:	6a63      	ldr	r3, [r4, #36]	; 0x24
 8002290:	0c00      	lsrs	r0, r0, #16
 8002292:	431a      	orrs	r2, r3
 8002294:	6b63      	ldr	r3, [r4, #52]	; 0x34
 8002296:	431a      	orrs	r2, r3
 8002298:	2304      	movs	r3, #4
 800229a:	4018      	ands	r0, r3
 800229c:	4310      	orrs	r0, r2
 800229e:	4306      	orrs	r6, r0
 80022a0:	604e      	str	r6, [r1, #4]
  CLEAR_BIT(hspi->Instance->I2SCFGR, SPI_I2SCFGR_I2SMOD);
 80022a2:	69cb      	ldr	r3, [r1, #28]
 80022a4:	4a08      	ldr	r2, [pc, #32]	; (80022c8 <HAL_SPI_Init+0xb8>)
  hspi->ErrorCode = HAL_SPI_ERROR_NONE;
 80022a6:	2000      	movs	r0, #0
  CLEAR_BIT(hspi->Instance->I2SCFGR, SPI_I2SCFGR_I2SMOD);
 80022a8:	4013      	ands	r3, r2
 80022aa:	61cb      	str	r3, [r1, #28]
  hspi->State     = HAL_SPI_STATE_READY;
 80022ac:	2301      	movs	r3, #1
  hspi->ErrorCode = HAL_SPI_ERROR_NONE;
 80022ae:	6620      	str	r0, [r4, #96]	; 0x60
  hspi->State     = HAL_SPI_STATE_READY;
 80022b0:	702b      	strb	r3, [r5, #0]
}
 80022b2:	bdf8      	pop	{r3, r4, r5, r6, r7, pc}
    frxth = SPI_RXFIFO_THRESHOLD_QF;
 80022b4:	2680      	movs	r6, #128	; 0x80
 80022b6:	0176      	lsls	r6, r6, #5
  if ((hspi->Init.DataSize != SPI_DATASIZE_16BIT) && (hspi->Init.DataSize != SPI_DATASIZE_8BIT))
 80022b8:	429a      	cmp	r2, r3
 80022ba:	d0ce      	beq.n	800225a <HAL_SPI_Init+0x4a>
    hspi->Init.CRCCalculation = SPI_CRCCALCULATION_DISABLE;
 80022bc:	62a0      	str	r0, [r4, #40]	; 0x28
 80022be:	e7cc      	b.n	800225a <HAL_SPI_Init+0x4a>
    frxth = SPI_RXFIFO_THRESHOLD_HF;
 80022c0:	0006      	movs	r6, r0
 80022c2:	e7fb      	b.n	80022bc <HAL_SPI_Init+0xac>
      hspi->Init.CRCLength = SPI_CRC_LENGTH_8BIT;
 80022c4:	2301      	movs	r3, #1
 80022c6:	e7ce      	b.n	8002266 <HAL_SPI_Init+0x56>
 80022c8:	fffff7ff 	.word	0xfffff7ff

080022cc <HAL_SPI_Transmit>:
{
 80022cc:	b5f0      	push	{r4, r5, r6, r7, lr}
 80022ce:	b087      	sub	sp, #28
 80022d0:	9301      	str	r3, [sp, #4]
  __HAL_LOCK(hspi);
 80022d2:	0003      	movs	r3, r0
 80022d4:	335c      	adds	r3, #92	; 0x5c
 80022d6:	9303      	str	r3, [sp, #12]
 80022d8:	781b      	ldrb	r3, [r3, #0]
{
 80022da:	0004      	movs	r4, r0
 80022dc:	000d      	movs	r5, r1
 80022de:	0017      	movs	r7, r2
  __HAL_LOCK(hspi);
 80022e0:	2602      	movs	r6, #2
 80022e2:	2b01      	cmp	r3, #1
 80022e4:	d100      	bne.n	80022e8 <HAL_SPI_Transmit+0x1c>
 80022e6:	e07c      	b.n	80023e2 <HAL_SPI_Transmit+0x116>
 80022e8:	2301      	movs	r3, #1
 80022ea:	9a03      	ldr	r2, [sp, #12]
 80022ec:	7013      	strb	r3, [r2, #0]
  tickstart = HAL_GetTick();
 80022ee:	f7fe ff6f 	bl	80011d0 <HAL_GetTick>
  if (hspi->State != HAL_SPI_STATE_READY)
 80022f2:	0022      	movs	r2, r4
  tickstart = HAL_GetTick();
 80022f4:	9002      	str	r0, [sp, #8]
  if (hspi->State != HAL_SPI_STATE_READY)
 80022f6:	325d      	adds	r2, #93	; 0x5d
 80022f8:	7813      	ldrb	r3, [r2, #0]
 80022fa:	b2db      	uxtb	r3, r3
 80022fc:	2b01      	cmp	r3, #1
 80022fe:	d16a      	bne.n	80023d6 <HAL_SPI_Transmit+0x10a>
    errorcode = HAL_ERROR;
 8002300:	001e      	movs	r6, r3
  if ((pData == NULL) || (Size == 0U))
 8002302:	2d00      	cmp	r5, #0
 8002304:	d067      	beq.n	80023d6 <HAL_SPI_Transmit+0x10a>
 8002306:	2f00      	cmp	r7, #0
 8002308:	d065      	beq.n	80023d6 <HAL_SPI_Transmit+0x10a>
  hspi->State       = HAL_SPI_STATE_BUSY_TX;
 800230a:	3302      	adds	r3, #2
 800230c:	7013      	strb	r3, [r2, #0]
  hspi->ErrorCode   = HAL_SPI_ERROR_NONE;
 800230e:	2300      	movs	r3, #0
  hspi->RxXferSize  = 0U;
 8002310:	1da2      	adds	r2, r4, #6
  hspi->ErrorCode   = HAL_SPI_ERROR_NONE;
 8002312:	6623      	str	r3, [r4, #96]	; 0x60
  hspi->pRxBuffPtr  = (uint8_t *)NULL;
 8002314:	6423      	str	r3, [r4, #64]	; 0x40
  hspi->pTxBuffPtr  = (uint8_t *)pData;
 8002316:	63a5      	str	r5, [r4, #56]	; 0x38
  hspi->TxXferSize  = Size;
 8002318:	87a7      	strh	r7, [r4, #60]	; 0x3c
  hspi->TxXferCount = Size;
 800231a:	87e7      	strh	r7, [r4, #62]	; 0x3e
  hspi->RxXferCount = 0U;
 800231c:	3202      	adds	r2, #2
  hspi->RxXferSize  = 0U;
 800231e:	8793      	strh	r3, [r2, #60]	; 0x3c
  hspi->RxXferCount = 0U;
 8002320:	87d3      	strh	r3, [r2, #62]	; 0x3e
  hspi->TxISR       = NULL;
 8002322:	6523      	str	r3, [r4, #80]	; 0x50
  hspi->RxISR       = NULL;
 8002324:	64e3      	str	r3, [r4, #76]	; 0x4c
  if (hspi->Init.Direction == SPI_DIRECTION_1LINE)
 8002326:	2380      	movs	r3, #128	; 0x80
 8002328:	68a2      	ldr	r2, [r4, #8]
 800232a:	021b      	lsls	r3, r3, #8
 800232c:	429a      	cmp	r2, r3
 800232e:	d105      	bne.n	800233c <HAL_SPI_Transmit+0x70>
    SPI_1LINE_TX(hspi);
 8002330:	2380      	movs	r3, #128	; 0x80
 8002332:	6822      	ldr	r2, [r4, #0]
 8002334:	01db      	lsls	r3, r3, #7
 8002336:	6811      	ldr	r1, [r2, #0]
 8002338:	430b      	orrs	r3, r1
 800233a:	6013      	str	r3, [r2, #0]
  if ((hspi->Instance->CR1 & SPI_CR1_SPE) != SPI_CR1_SPE)
 800233c:	2240      	movs	r2, #64	; 0x40
 800233e:	6823      	ldr	r3, [r4, #0]
 8002340:	6819      	ldr	r1, [r3, #0]
 8002342:	4211      	tst	r1, r2
 8002344:	d102      	bne.n	800234c <HAL_SPI_Transmit+0x80>
    __HAL_SPI_ENABLE(hspi);
 8002346:	6819      	ldr	r1, [r3, #0]
 8002348:	430a      	orrs	r2, r1
 800234a:	601a      	str	r2, [r3, #0]
  if (hspi->Init.DataSize > SPI_DATASIZE_8BIT)
 800234c:	21e0      	movs	r1, #224	; 0xe0
 800234e:	68e0      	ldr	r0, [r4, #12]
 8002350:	00c9      	lsls	r1, r1, #3
 8002352:	6862      	ldr	r2, [r4, #4]
 8002354:	4288      	cmp	r0, r1
 8002356:	d947      	bls.n	80023e8 <HAL_SPI_Transmit+0x11c>
    if ((hspi->Init.Mode == SPI_MODE_SLAVE) || (initial_TxXferCount == 0x01U))
 8002358:	2a00      	cmp	r2, #0
 800235a:	d001      	beq.n	8002360 <HAL_SPI_Transmit+0x94>
 800235c:	2f01      	cmp	r7, #1
 800235e:	d107      	bne.n	8002370 <HAL_SPI_Transmit+0xa4>
      hspi->Instance->DR = *((uint16_t *)hspi->pTxBuffPtr);
 8002360:	882a      	ldrh	r2, [r5, #0]
      hspi->pTxBuffPtr += sizeof(uint16_t);
 8002362:	3502      	adds	r5, #2
      hspi->Instance->DR = *((uint16_t *)hspi->pTxBuffPtr);
 8002364:	60da      	str	r2, [r3, #12]
      hspi->TxXferCount--;
 8002366:	8fe3      	ldrh	r3, [r4, #62]	; 0x3e
      hspi->pTxBuffPtr += sizeof(uint16_t);
 8002368:	63a5      	str	r5, [r4, #56]	; 0x38
      hspi->TxXferCount--;
 800236a:	3b01      	subs	r3, #1
 800236c:	b29b      	uxth	r3, r3
 800236e:	87e3      	strh	r3, [r4, #62]	; 0x3e
      if (__HAL_SPI_GET_FLAG(hspi, SPI_FLAG_TXE))
 8002370:	2502      	movs	r5, #2
    while (hspi->TxXferCount > 0U)
 8002372:	8fe3      	ldrh	r3, [r4, #62]	; 0x3e
 8002374:	2b00      	cmp	r3, #0
 8002376:	d116      	bne.n	80023a6 <HAL_SPI_Transmit+0xda>
  if (SPI_EndRxTxTransaction(hspi, Timeout, tickstart) != HAL_OK)
 8002378:	9a02      	ldr	r2, [sp, #8]
 800237a:	9901      	ldr	r1, [sp, #4]
 800237c:	0020      	movs	r0, r4
 800237e:	f7ff ff23 	bl	80021c8 <SPI_EndRxTxTransaction>
 8002382:	2800      	cmp	r0, #0
 8002384:	d000      	beq.n	8002388 <HAL_SPI_Transmit+0xbc>
 8002386:	e06d      	b.n	8002464 <HAL_SPI_Transmit+0x198>
  if (hspi->Init.Direction == SPI_DIRECTION_2LINES)
 8002388:	68a3      	ldr	r3, [r4, #8]
 800238a:	2b00      	cmp	r3, #0
 800238c:	d106      	bne.n	800239c <HAL_SPI_Transmit+0xd0>
    __HAL_SPI_CLEAR_OVRFLAG(hspi);
 800238e:	9305      	str	r3, [sp, #20]
 8002390:	6823      	ldr	r3, [r4, #0]
 8002392:	68da      	ldr	r2, [r3, #12]
 8002394:	9205      	str	r2, [sp, #20]
 8002396:	689b      	ldr	r3, [r3, #8]
 8002398:	9305      	str	r3, [sp, #20]
 800239a:	9b05      	ldr	r3, [sp, #20]
  if (hspi->ErrorCode != HAL_SPI_ERROR_NONE)
 800239c:	6e26      	ldr	r6, [r4, #96]	; 0x60
 800239e:	1e73      	subs	r3, r6, #1
 80023a0:	419e      	sbcs	r6, r3
    errorcode = HAL_BUSY;
 80023a2:	b2f6      	uxtb	r6, r6
 80023a4:	e017      	b.n	80023d6 <HAL_SPI_Transmit+0x10a>
      if (__HAL_SPI_GET_FLAG(hspi, SPI_FLAG_TXE))
 80023a6:	6822      	ldr	r2, [r4, #0]
 80023a8:	6893      	ldr	r3, [r2, #8]
 80023aa:	422b      	tst	r3, r5
 80023ac:	d009      	beq.n	80023c2 <HAL_SPI_Transmit+0xf6>
        hspi->Instance->DR = *((uint16_t *)hspi->pTxBuffPtr);
 80023ae:	6ba3      	ldr	r3, [r4, #56]	; 0x38
 80023b0:	8819      	ldrh	r1, [r3, #0]
        hspi->pTxBuffPtr += sizeof(uint16_t);
 80023b2:	3302      	adds	r3, #2
        hspi->Instance->DR = *((uint16_t *)hspi->pTxBuffPtr);
 80023b4:	60d1      	str	r1, [r2, #12]
        hspi->pTxBuffPtr += sizeof(uint16_t);
 80023b6:	63a3      	str	r3, [r4, #56]	; 0x38
        hspi->TxXferCount--;
 80023b8:	8fe3      	ldrh	r3, [r4, #62]	; 0x3e
 80023ba:	3b01      	subs	r3, #1
 80023bc:	b29b      	uxth	r3, r3
 80023be:	87e3      	strh	r3, [r4, #62]	; 0x3e
 80023c0:	e7d7      	b.n	8002372 <HAL_SPI_Transmit+0xa6>
        if ((((HAL_GetTick() - tickstart) >=  Timeout) && (Timeout != HAL_MAX_DELAY)) || (Timeout == 0U))
 80023c2:	f7fe ff05 	bl	80011d0 <HAL_GetTick>
 80023c6:	9b02      	ldr	r3, [sp, #8]
 80023c8:	1ac0      	subs	r0, r0, r3
 80023ca:	9b01      	ldr	r3, [sp, #4]
 80023cc:	4298      	cmp	r0, r3
 80023ce:	d3d0      	bcc.n	8002372 <HAL_SPI_Transmit+0xa6>
 80023d0:	3301      	adds	r3, #1
 80023d2:	d0ce      	beq.n	8002372 <HAL_SPI_Transmit+0xa6>
          errorcode = HAL_TIMEOUT;
 80023d4:	2603      	movs	r6, #3
  hspi->State = HAL_SPI_STATE_READY;
 80023d6:	2301      	movs	r3, #1
 80023d8:	345d      	adds	r4, #93	; 0x5d
 80023da:	7023      	strb	r3, [r4, #0]
  __HAL_UNLOCK(hspi);
 80023dc:	2300      	movs	r3, #0
 80023de:	9a03      	ldr	r2, [sp, #12]
 80023e0:	7013      	strb	r3, [r2, #0]
}
 80023e2:	0030      	movs	r0, r6
 80023e4:	b007      	add	sp, #28
 80023e6:	bdf0      	pop	{r4, r5, r6, r7, pc}
    if ((hspi->Init.Mode == SPI_MODE_SLAVE) || (initial_TxXferCount == 0x01U))
 80023e8:	2a00      	cmp	r2, #0
 80023ea:	d001      	beq.n	80023f0 <HAL_SPI_Transmit+0x124>
 80023ec:	2f01      	cmp	r7, #1
 80023ee:	d10a      	bne.n	8002406 <HAL_SPI_Transmit+0x13a>
      if (hspi->TxXferCount > 1U)
 80023f0:	8fe2      	ldrh	r2, [r4, #62]	; 0x3e
 80023f2:	2a01      	cmp	r2, #1
 80023f4:	d91c      	bls.n	8002430 <HAL_SPI_Transmit+0x164>
        hspi->Instance->DR = *((uint16_t *)hspi->pTxBuffPtr);
 80023f6:	882a      	ldrh	r2, [r5, #0]
        hspi->pTxBuffPtr += sizeof(uint16_t);
 80023f8:	3502      	adds	r5, #2
        hspi->Instance->DR = *((uint16_t *)hspi->pTxBuffPtr);
 80023fa:	60da      	str	r2, [r3, #12]
        hspi->TxXferCount -= 2U;
 80023fc:	8fe3      	ldrh	r3, [r4, #62]	; 0x3e
        hspi->pTxBuffPtr += sizeof(uint16_t);
 80023fe:	63a5      	str	r5, [r4, #56]	; 0x38
        hspi->TxXferCount -= 2U;
 8002400:	3b02      	subs	r3, #2
        hspi->TxXferCount--;
 8002402:	b29b      	uxth	r3, r3
 8002404:	87e3      	strh	r3, [r4, #62]	; 0x3e
      if (__HAL_SPI_GET_FLAG(hspi, SPI_FLAG_TXE))
 8002406:	2502      	movs	r5, #2
    while (hspi->TxXferCount > 0U)
 8002408:	8fe3      	ldrh	r3, [r4, #62]	; 0x3e
 800240a:	2b00      	cmp	r3, #0
 800240c:	d0b4      	beq.n	8002378 <HAL_SPI_Transmit+0xac>
      if (__HAL_SPI_GET_FLAG(hspi, SPI_FLAG_TXE))
 800240e:	6822      	ldr	r2, [r4, #0]
 8002410:	6893      	ldr	r3, [r2, #8]
 8002412:	422b      	tst	r3, r5
 8002414:	d01c      	beq.n	8002450 <HAL_SPI_Transmit+0x184>
        if (hspi->TxXferCount > 1U)
 8002416:	8fe1      	ldrh	r1, [r4, #62]	; 0x3e
 8002418:	6ba3      	ldr	r3, [r4, #56]	; 0x38
 800241a:	2901      	cmp	r1, #1
 800241c:	d910      	bls.n	8002440 <HAL_SPI_Transmit+0x174>
          hspi->Instance->DR = *((uint16_t *)hspi->pTxBuffPtr);
 800241e:	8819      	ldrh	r1, [r3, #0]
          hspi->pTxBuffPtr += sizeof(uint16_t);
 8002420:	3302      	adds	r3, #2
          hspi->Instance->DR = *((uint16_t *)hspi->pTxBuffPtr);
 8002422:	60d1      	str	r1, [r2, #12]
          hspi->pTxBuffPtr += sizeof(uint16_t);
 8002424:	63a3      	str	r3, [r4, #56]	; 0x38
          hspi->TxXferCount -= 2U;
 8002426:	8fe3      	ldrh	r3, [r4, #62]	; 0x3e
 8002428:	3b02      	subs	r3, #2
          hspi->TxXferCount--;
 800242a:	b29b      	uxth	r3, r3
 800242c:	87e3      	strh	r3, [r4, #62]	; 0x3e
 800242e:	e7eb      	b.n	8002408 <HAL_SPI_Transmit+0x13c>
        *((__IO uint8_t *)&hspi->Instance->DR) = (*hspi->pTxBuffPtr);
 8002430:	782a      	ldrb	r2, [r5, #0]
 8002432:	731a      	strb	r2, [r3, #12]
        hspi->pTxBuffPtr ++;
 8002434:	6ba3      	ldr	r3, [r4, #56]	; 0x38
 8002436:	3301      	adds	r3, #1
 8002438:	63a3      	str	r3, [r4, #56]	; 0x38
        hspi->TxXferCount--;
 800243a:	8fe3      	ldrh	r3, [r4, #62]	; 0x3e
 800243c:	3b01      	subs	r3, #1
 800243e:	e7e0      	b.n	8002402 <HAL_SPI_Transmit+0x136>
          *((__IO uint8_t *)&hspi->Instance->DR) = (*hspi->pTxBuffPtr);
 8002440:	781b      	ldrb	r3, [r3, #0]
 8002442:	7313      	strb	r3, [r2, #12]
          hspi->pTxBuffPtr++;
 8002444:	6ba3      	ldr	r3, [r4, #56]	; 0x38
 8002446:	3301      	adds	r3, #1
 8002448:	63a3      	str	r3, [r4, #56]	; 0x38
          hspi->TxXferCount--;
 800244a:	8fe3      	ldrh	r3, [r4, #62]	; 0x3e
 800244c:	3b01      	subs	r3, #1
 800244e:	e7ec      	b.n	800242a <HAL_SPI_Transmit+0x15e>
        if ((((HAL_GetTick() - tickstart) >=  Timeout) && (Timeout != HAL_MAX_DELAY)) || (Timeout == 0U))
 8002450:	f7fe febe 	bl	80011d0 <HAL_GetTick>
 8002454:	9b02      	ldr	r3, [sp, #8]
 8002456:	1ac0      	subs	r0, r0, r3
 8002458:	9b01      	ldr	r3, [sp, #4]
 800245a:	4283      	cmp	r3, r0
 800245c:	d8d4      	bhi.n	8002408 <HAL_SPI_Transmit+0x13c>
 800245e:	3301      	adds	r3, #1
 8002460:	d0d2      	beq.n	8002408 <HAL_SPI_Transmit+0x13c>
 8002462:	e7b7      	b.n	80023d4 <HAL_SPI_Transmit+0x108>
    hspi->ErrorCode = HAL_SPI_ERROR_FLAG;
 8002464:	2320      	movs	r3, #32
 8002466:	6623      	str	r3, [r4, #96]	; 0x60
 8002468:	e78e      	b.n	8002388 <HAL_SPI_Transmit+0xbc>
	...

0800246c <HAL_SPI_TransmitReceive>:
{
 800246c:	b5f7      	push	{r0, r1, r2, r4, r5, r6, r7, lr}
 800246e:	001e      	movs	r6, r3
  __HAL_LOCK(hspi);
 8002470:	0003      	movs	r3, r0
{
 8002472:	9201      	str	r2, [sp, #4]
  __HAL_LOCK(hspi);
 8002474:	335c      	adds	r3, #92	; 0x5c
 8002476:	781a      	ldrb	r2, [r3, #0]
{
 8002478:	0004      	movs	r4, r0
 800247a:	000f      	movs	r7, r1
  __HAL_LOCK(hspi);
 800247c:	2502      	movs	r5, #2
 800247e:	2a01      	cmp	r2, #1
 8002480:	d100      	bne.n	8002484 <HAL_SPI_TransmitReceive+0x18>
 8002482:	e0ac      	b.n	80025de <HAL_SPI_TransmitReceive+0x172>
 8002484:	2201      	movs	r2, #1
 8002486:	701a      	strb	r2, [r3, #0]
  tickstart = HAL_GetTick();
 8002488:	f7fe fea2 	bl	80011d0 <HAL_GetTick>
  tmp_state           = hspi->State;
 800248c:	0023      	movs	r3, r4
  tickstart = HAL_GetTick();
 800248e:	9000      	str	r0, [sp, #0]
  tmp_state           = hspi->State;
 8002490:	335d      	adds	r3, #93	; 0x5d
 8002492:	781b      	ldrb	r3, [r3, #0]
  tmp_mode            = hspi->Init.Mode;
 8002494:	6861      	ldr	r1, [r4, #4]
  tmp_state           = hspi->State;
 8002496:	b2db      	uxtb	r3, r3
  if (!((tmp_state == HAL_SPI_STATE_READY) || \
 8002498:	2b01      	cmp	r3, #1
 800249a:	d00b      	beq.n	80024b4 <HAL_SPI_TransmitReceive+0x48>
 800249c:	2282      	movs	r2, #130	; 0x82
 800249e:	0052      	lsls	r2, r2, #1
 80024a0:	4291      	cmp	r1, r2
 80024a2:	d000      	beq.n	80024a6 <HAL_SPI_TransmitReceive+0x3a>
 80024a4:	e094      	b.n	80025d0 <HAL_SPI_TransmitReceive+0x164>
        ((tmp_mode == SPI_MODE_MASTER) && (hspi->Init.Direction == SPI_DIRECTION_2LINES) && (tmp_state == HAL_SPI_STATE_BUSY_RX))))
 80024a6:	68a2      	ldr	r2, [r4, #8]
 80024a8:	2a00      	cmp	r2, #0
 80024aa:	d000      	beq.n	80024ae <HAL_SPI_TransmitReceive+0x42>
 80024ac:	e090      	b.n	80025d0 <HAL_SPI_TransmitReceive+0x164>
 80024ae:	2b04      	cmp	r3, #4
 80024b0:	d000      	beq.n	80024b4 <HAL_SPI_TransmitReceive+0x48>
 80024b2:	e08d      	b.n	80025d0 <HAL_SPI_TransmitReceive+0x164>
    errorcode = HAL_ERROR;
 80024b4:	2501      	movs	r5, #1
  if ((pTxData == NULL) || (pRxData == NULL) || (Size == 0U))
 80024b6:	2f00      	cmp	r7, #0
 80024b8:	d100      	bne.n	80024bc <HAL_SPI_TransmitReceive+0x50>
 80024ba:	e089      	b.n	80025d0 <HAL_SPI_TransmitReceive+0x164>
 80024bc:	9b01      	ldr	r3, [sp, #4]
 80024be:	2b00      	cmp	r3, #0
 80024c0:	d100      	bne.n	80024c4 <HAL_SPI_TransmitReceive+0x58>
 80024c2:	e085      	b.n	80025d0 <HAL_SPI_TransmitReceive+0x164>
 80024c4:	2e00      	cmp	r6, #0
 80024c6:	d100      	bne.n	80024ca <HAL_SPI_TransmitReceive+0x5e>
 80024c8:	e082      	b.n	80025d0 <HAL_SPI_TransmitReceive+0x164>
  if (hspi->State != HAL_SPI_STATE_BUSY_RX)
 80024ca:	0023      	movs	r3, r4
 80024cc:	335d      	adds	r3, #93	; 0x5d
 80024ce:	781a      	ldrb	r2, [r3, #0]
 80024d0:	2a04      	cmp	r2, #4
 80024d2:	d001      	beq.n	80024d8 <HAL_SPI_TransmitReceive+0x6c>
    hspi->State = HAL_SPI_STATE_BUSY_TX_RX;
 80024d4:	2205      	movs	r2, #5
 80024d6:	701a      	strb	r2, [r3, #0]
  hspi->pRxBuffPtr  = (uint8_t *)pRxData;
 80024d8:	9a01      	ldr	r2, [sp, #4]
  hspi->ErrorCode   = HAL_SPI_ERROR_NONE;
 80024da:	2300      	movs	r3, #0
  hspi->pRxBuffPtr  = (uint8_t *)pRxData;
 80024dc:	6422      	str	r2, [r4, #64]	; 0x40
  hspi->RxXferCount = Size;
 80024de:	0022      	movs	r2, r4
 80024e0:	3208      	adds	r2, #8
  hspi->ErrorCode   = HAL_SPI_ERROR_NONE;
 80024e2:	6623      	str	r3, [r4, #96]	; 0x60
  hspi->RxXferCount = Size;
 80024e4:	87d6      	strh	r6, [r2, #62]	; 0x3e
  hspi->RxXferSize  = Size;
 80024e6:	1da2      	adds	r2, r4, #6
 80024e8:	87d6      	strh	r6, [r2, #62]	; 0x3e
  if ((hspi->Init.DataSize > SPI_DATASIZE_8BIT) || (initial_RxXferCount > 1U))
 80024ea:	22e0      	movs	r2, #224	; 0xe0
 80024ec:	68e0      	ldr	r0, [r4, #12]
  hspi->RxISR       = NULL;
 80024ee:	64e3      	str	r3, [r4, #76]	; 0x4c
  hspi->TxISR       = NULL;
 80024f0:	6523      	str	r3, [r4, #80]	; 0x50
  hspi->pTxBuffPtr  = (uint8_t *)pTxData;
 80024f2:	63a7      	str	r7, [r4, #56]	; 0x38
  hspi->TxXferCount = Size;
 80024f4:	87e6      	strh	r6, [r4, #62]	; 0x3e
  hspi->TxXferSize  = Size;
 80024f6:	87a6      	strh	r6, [r4, #60]	; 0x3c
  if ((hspi->Init.DataSize > SPI_DATASIZE_8BIT) || (initial_RxXferCount > 1U))
 80024f8:	00d2      	lsls	r2, r2, #3
 80024fa:	6823      	ldr	r3, [r4, #0]
 80024fc:	4290      	cmp	r0, r2
 80024fe:	d801      	bhi.n	8002504 <HAL_SPI_TransmitReceive+0x98>
 8002500:	2e01      	cmp	r6, #1
 8002502:	d931      	bls.n	8002568 <HAL_SPI_TransmitReceive+0xfc>
    CLEAR_BIT(hspi->Instance->CR2, SPI_RXFIFO_THRESHOLD);
 8002504:	685a      	ldr	r2, [r3, #4]
 8002506:	4d71      	ldr	r5, [pc, #452]	; (80026cc <HAL_SPI_TransmitReceive+0x260>)
 8002508:	402a      	ands	r2, r5
    SET_BIT(hspi->Instance->CR2, SPI_RXFIFO_THRESHOLD);
 800250a:	605a      	str	r2, [r3, #4]
  if ((hspi->Instance->CR1 & SPI_CR1_SPE) != SPI_CR1_SPE)
 800250c:	2240      	movs	r2, #64	; 0x40
 800250e:	6823      	ldr	r3, [r4, #0]
 8002510:	681d      	ldr	r5, [r3, #0]
 8002512:	4215      	tst	r5, r2
 8002514:	d102      	bne.n	800251c <HAL_SPI_TransmitReceive+0xb0>
    __HAL_SPI_ENABLE(hspi);
 8002516:	681d      	ldr	r5, [r3, #0]
 8002518:	432a      	orrs	r2, r5
 800251a:	601a      	str	r2, [r3, #0]
  if (hspi->Init.DataSize > SPI_DATASIZE_8BIT)
 800251c:	22e0      	movs	r2, #224	; 0xe0
 800251e:	00d2      	lsls	r2, r2, #3
 8002520:	4290      	cmp	r0, r2
 8002522:	d95e      	bls.n	80025e2 <HAL_SPI_TransmitReceive+0x176>
    if ((hspi->Init.Mode == SPI_MODE_SLAVE) || (initial_TxXferCount == 0x01U))
 8002524:	2900      	cmp	r1, #0
 8002526:	d001      	beq.n	800252c <HAL_SPI_TransmitReceive+0xc0>
 8002528:	2e01      	cmp	r6, #1
 800252a:	d107      	bne.n	800253c <HAL_SPI_TransmitReceive+0xd0>
      hspi->Instance->DR = *((uint16_t *)hspi->pTxBuffPtr);
 800252c:	883a      	ldrh	r2, [r7, #0]
      hspi->pTxBuffPtr += sizeof(uint16_t);
 800252e:	3702      	adds	r7, #2
      hspi->Instance->DR = *((uint16_t *)hspi->pTxBuffPtr);
 8002530:	60da      	str	r2, [r3, #12]
      hspi->TxXferCount--;
 8002532:	8fe3      	ldrh	r3, [r4, #62]	; 0x3e
      hspi->pTxBuffPtr += sizeof(uint16_t);
 8002534:	63a7      	str	r7, [r4, #56]	; 0x38
      hspi->TxXferCount--;
 8002536:	3b01      	subs	r3, #1
 8002538:	b29b      	uxth	r3, r3
 800253a:	87e3      	strh	r3, [r4, #62]	; 0x3e
        txallowed = 1U;
 800253c:	2501      	movs	r5, #1
      if ((__HAL_SPI_GET_FLAG(hspi, SPI_FLAG_TXE)) && (hspi->TxXferCount > 0U) && (txallowed == 1U))
 800253e:	2702      	movs	r7, #2
      if ((__HAL_SPI_GET_FLAG(hspi, SPI_FLAG_RXNE)) && (hspi->RxXferCount > 0U))
 8002540:	002e      	movs	r6, r5
    while ((hspi->TxXferCount > 0U) || (hspi->RxXferCount > 0U))
 8002542:	8fe3      	ldrh	r3, [r4, #62]	; 0x3e
 8002544:	2b00      	cmp	r3, #0
 8002546:	d114      	bne.n	8002572 <HAL_SPI_TransmitReceive+0x106>
 8002548:	0023      	movs	r3, r4
 800254a:	3308      	adds	r3, #8
 800254c:	8fdb      	ldrh	r3, [r3, #62]	; 0x3e
 800254e:	2b00      	cmp	r3, #0
 8002550:	d10f      	bne.n	8002572 <HAL_SPI_TransmitReceive+0x106>
  if (SPI_EndRxTxTransaction(hspi, Timeout, tickstart) != HAL_OK)
 8002552:	9a00      	ldr	r2, [sp, #0]
 8002554:	9908      	ldr	r1, [sp, #32]
 8002556:	0020      	movs	r0, r4
 8002558:	f7ff fe36 	bl	80021c8 <SPI_EndRxTxTransaction>
 800255c:	1e05      	subs	r5, r0, #0
 800255e:	d037      	beq.n	80025d0 <HAL_SPI_TransmitReceive+0x164>
    hspi->ErrorCode = HAL_SPI_ERROR_FLAG;
 8002560:	2320      	movs	r3, #32
    errorcode = HAL_ERROR;
 8002562:	2501      	movs	r5, #1
    hspi->ErrorCode = HAL_SPI_ERROR_FLAG;
 8002564:	6623      	str	r3, [r4, #96]	; 0x60
 8002566:	e033      	b.n	80025d0 <HAL_SPI_TransmitReceive+0x164>
    SET_BIT(hspi->Instance->CR2, SPI_RXFIFO_THRESHOLD);
 8002568:	2280      	movs	r2, #128	; 0x80
 800256a:	685d      	ldr	r5, [r3, #4]
 800256c:	0152      	lsls	r2, r2, #5
 800256e:	432a      	orrs	r2, r5
 8002570:	e7cb      	b.n	800250a <HAL_SPI_TransmitReceive+0x9e>
      if ((__HAL_SPI_GET_FLAG(hspi, SPI_FLAG_TXE)) && (hspi->TxXferCount > 0U) && (txallowed == 1U))
 8002572:	6822      	ldr	r2, [r4, #0]
 8002574:	6893      	ldr	r3, [r2, #8]
 8002576:	423b      	tst	r3, r7
 8002578:	d00e      	beq.n	8002598 <HAL_SPI_TransmitReceive+0x12c>
 800257a:	8fe3      	ldrh	r3, [r4, #62]	; 0x3e
 800257c:	2b00      	cmp	r3, #0
 800257e:	d00b      	beq.n	8002598 <HAL_SPI_TransmitReceive+0x12c>
 8002580:	2d01      	cmp	r5, #1
 8002582:	d109      	bne.n	8002598 <HAL_SPI_TransmitReceive+0x12c>
        txallowed = 0U;
 8002584:	2500      	movs	r5, #0
        hspi->Instance->DR = *((uint16_t *)hspi->pTxBuffPtr);
 8002586:	6ba3      	ldr	r3, [r4, #56]	; 0x38
 8002588:	8819      	ldrh	r1, [r3, #0]
        hspi->pTxBuffPtr += sizeof(uint16_t);
 800258a:	3302      	adds	r3, #2
        hspi->Instance->DR = *((uint16_t *)hspi->pTxBuffPtr);
 800258c:	60d1      	str	r1, [r2, #12]
        hspi->pTxBuffPtr += sizeof(uint16_t);
 800258e:	63a3      	str	r3, [r4, #56]	; 0x38
        hspi->TxXferCount--;
 8002590:	8fe3      	ldrh	r3, [r4, #62]	; 0x3e
 8002592:	3b01      	subs	r3, #1
 8002594:	b29b      	uxth	r3, r3
 8002596:	87e3      	strh	r3, [r4, #62]	; 0x3e
      if ((__HAL_SPI_GET_FLAG(hspi, SPI_FLAG_RXNE)) && (hspi->RxXferCount > 0U))
 8002598:	6893      	ldr	r3, [r2, #8]
 800259a:	4233      	tst	r3, r6
 800259c:	d00e      	beq.n	80025bc <HAL_SPI_TransmitReceive+0x150>
 800259e:	0021      	movs	r1, r4
 80025a0:	3108      	adds	r1, #8
 80025a2:	8fcb      	ldrh	r3, [r1, #62]	; 0x3e
 80025a4:	2b00      	cmp	r3, #0
 80025a6:	d009      	beq.n	80025bc <HAL_SPI_TransmitReceive+0x150>
        txallowed = 1U;
 80025a8:	0035      	movs	r5, r6
        *((uint16_t *)hspi->pRxBuffPtr) = (uint16_t)hspi->Instance->DR;
 80025aa:	6c23      	ldr	r3, [r4, #64]	; 0x40
 80025ac:	68d2      	ldr	r2, [r2, #12]
 80025ae:	801a      	strh	r2, [r3, #0]
        hspi->pRxBuffPtr += sizeof(uint16_t);
 80025b0:	3302      	adds	r3, #2
 80025b2:	6423      	str	r3, [r4, #64]	; 0x40
        hspi->RxXferCount--;
 80025b4:	8fcb      	ldrh	r3, [r1, #62]	; 0x3e
 80025b6:	3b01      	subs	r3, #1
 80025b8:	b29b      	uxth	r3, r3
 80025ba:	87cb      	strh	r3, [r1, #62]	; 0x3e
      if (((HAL_GetTick() - tickstart) >=  Timeout) && (Timeout != HAL_MAX_DELAY))
 80025bc:	f7fe fe08 	bl	80011d0 <HAL_GetTick>
 80025c0:	9b00      	ldr	r3, [sp, #0]
 80025c2:	1ac0      	subs	r0, r0, r3
 80025c4:	9b08      	ldr	r3, [sp, #32]
 80025c6:	4283      	cmp	r3, r0
 80025c8:	d8bb      	bhi.n	8002542 <HAL_SPI_TransmitReceive+0xd6>
 80025ca:	3301      	adds	r3, #1
 80025cc:	d0b9      	beq.n	8002542 <HAL_SPI_TransmitReceive+0xd6>
        errorcode = HAL_TIMEOUT;
 80025ce:	2503      	movs	r5, #3
  hspi->State = HAL_SPI_STATE_READY;
 80025d0:	0023      	movs	r3, r4
 80025d2:	2201      	movs	r2, #1
 80025d4:	335d      	adds	r3, #93	; 0x5d
 80025d6:	701a      	strb	r2, [r3, #0]
  __HAL_UNLOCK(hspi);
 80025d8:	2300      	movs	r3, #0
 80025da:	345c      	adds	r4, #92	; 0x5c
 80025dc:	7023      	strb	r3, [r4, #0]
}
 80025de:	0028      	movs	r0, r5
 80025e0:	bdfe      	pop	{r1, r2, r3, r4, r5, r6, r7, pc}
    if ((hspi->Init.Mode == SPI_MODE_SLAVE) || (initial_TxXferCount == 0x01U))
 80025e2:	2900      	cmp	r1, #0
 80025e4:	d001      	beq.n	80025ea <HAL_SPI_TransmitReceive+0x17e>
 80025e6:	2e01      	cmp	r6, #1
 80025e8:	d10a      	bne.n	8002600 <HAL_SPI_TransmitReceive+0x194>
      if (hspi->TxXferCount > 1U)
 80025ea:	8fe2      	ldrh	r2, [r4, #62]	; 0x3e
 80025ec:	2a01      	cmp	r2, #1
 80025ee:	d951      	bls.n	8002694 <HAL_SPI_TransmitReceive+0x228>
        hspi->Instance->DR = *((uint16_t *)hspi->pTxBuffPtr);
 80025f0:	883a      	ldrh	r2, [r7, #0]
        hspi->pTxBuffPtr += sizeof(uint16_t);
 80025f2:	3702      	adds	r7, #2
        hspi->Instance->DR = *((uint16_t *)hspi->pTxBuffPtr);
 80025f4:	60da      	str	r2, [r3, #12]
        hspi->TxXferCount -= 2U;
 80025f6:	8fe3      	ldrh	r3, [r4, #62]	; 0x3e
        hspi->pTxBuffPtr += sizeof(uint16_t);
 80025f8:	63a7      	str	r7, [r4, #56]	; 0x38
        hspi->TxXferCount -= 2U;
 80025fa:	3b02      	subs	r3, #2
        hspi->TxXferCount--;
 80025fc:	b29b      	uxth	r3, r3
 80025fe:	87e3      	strh	r3, [r4, #62]	; 0x3e
        txallowed = 1U;
 8002600:	2501      	movs	r5, #1
      if ((__HAL_SPI_GET_FLAG(hspi, SPI_FLAG_TXE)) && (hspi->TxXferCount > 0U) && (txallowed == 1U))
 8002602:	2702      	movs	r7, #2
      if ((__HAL_SPI_GET_FLAG(hspi, SPI_FLAG_RXNE)) && (hspi->RxXferCount > 0U))
 8002604:	002e      	movs	r6, r5
    while ((hspi->TxXferCount > 0U) || (hspi->RxXferCount > 0U))
 8002606:	8fe3      	ldrh	r3, [r4, #62]	; 0x3e
 8002608:	2b00      	cmp	r3, #0
 800260a:	d105      	bne.n	8002618 <HAL_SPI_TransmitReceive+0x1ac>
 800260c:	0023      	movs	r3, r4
 800260e:	3308      	adds	r3, #8
 8002610:	8fdb      	ldrh	r3, [r3, #62]	; 0x3e
 8002612:	2b00      	cmp	r3, #0
 8002614:	d100      	bne.n	8002618 <HAL_SPI_TransmitReceive+0x1ac>
 8002616:	e79c      	b.n	8002552 <HAL_SPI_TransmitReceive+0xe6>
      if ((__HAL_SPI_GET_FLAG(hspi, SPI_FLAG_TXE)) && (hspi->TxXferCount > 0U) && (txallowed == 1U))
 8002618:	6822      	ldr	r2, [r4, #0]
 800261a:	6893      	ldr	r3, [r2, #8]
 800261c:	423b      	tst	r3, r7
 800261e:	d011      	beq.n	8002644 <HAL_SPI_TransmitReceive+0x1d8>
 8002620:	8fe3      	ldrh	r3, [r4, #62]	; 0x3e
 8002622:	2b00      	cmp	r3, #0
 8002624:	d00e      	beq.n	8002644 <HAL_SPI_TransmitReceive+0x1d8>
 8002626:	2d01      	cmp	r5, #1
 8002628:	d10c      	bne.n	8002644 <HAL_SPI_TransmitReceive+0x1d8>
        if (hspi->TxXferCount > 1U)
 800262a:	8fe1      	ldrh	r1, [r4, #62]	; 0x3e
 800262c:	6ba3      	ldr	r3, [r4, #56]	; 0x38
 800262e:	2901      	cmp	r1, #1
 8002630:	d938      	bls.n	80026a4 <HAL_SPI_TransmitReceive+0x238>
          hspi->Instance->DR = *((uint16_t *)hspi->pTxBuffPtr);
 8002632:	8819      	ldrh	r1, [r3, #0]
          hspi->pTxBuffPtr += sizeof(uint16_t);
 8002634:	3302      	adds	r3, #2
          hspi->Instance->DR = *((uint16_t *)hspi->pTxBuffPtr);
 8002636:	60d1      	str	r1, [r2, #12]
          hspi->pTxBuffPtr += sizeof(uint16_t);
 8002638:	63a3      	str	r3, [r4, #56]	; 0x38
          hspi->TxXferCount -= 2U;
 800263a:	8fe3      	ldrh	r3, [r4, #62]	; 0x3e
 800263c:	3b02      	subs	r3, #2
        txallowed = 0U;
 800263e:	2500      	movs	r5, #0
          hspi->TxXferCount--;
 8002640:	b29b      	uxth	r3, r3
 8002642:	87e3      	strh	r3, [r4, #62]	; 0x3e
      if ((__HAL_SPI_GET_FLAG(hspi, SPI_FLAG_RXNE)) && (hspi->RxXferCount > 0U))
 8002644:	6821      	ldr	r1, [r4, #0]
 8002646:	688b      	ldr	r3, [r1, #8]
 8002648:	4233      	tst	r3, r6
 800264a:	d019      	beq.n	8002680 <HAL_SPI_TransmitReceive+0x214>
 800264c:	0023      	movs	r3, r4
 800264e:	3308      	adds	r3, #8
 8002650:	8fda      	ldrh	r2, [r3, #62]	; 0x3e
 8002652:	2a00      	cmp	r2, #0
 8002654:	d014      	beq.n	8002680 <HAL_SPI_TransmitReceive+0x214>
        if (hspi->RxXferCount > 1U)
 8002656:	8fd8      	ldrh	r0, [r3, #62]	; 0x3e
 8002658:	6c22      	ldr	r2, [r4, #64]	; 0x40
 800265a:	2801      	cmp	r0, #1
 800265c:	d92a      	bls.n	80026b4 <HAL_SPI_TransmitReceive+0x248>
          *((uint16_t *)hspi->pRxBuffPtr) = (uint16_t)hspi->Instance->DR;
 800265e:	68c8      	ldr	r0, [r1, #12]
        txallowed = 1U;
 8002660:	0035      	movs	r5, r6
          *((uint16_t *)hspi->pRxBuffPtr) = (uint16_t)hspi->Instance->DR;
 8002662:	8010      	strh	r0, [r2, #0]
          hspi->pRxBuffPtr += sizeof(uint16_t);
 8002664:	3202      	adds	r2, #2
 8002666:	6422      	str	r2, [r4, #64]	; 0x40
          hspi->RxXferCount -= 2U;
 8002668:	8fda      	ldrh	r2, [r3, #62]	; 0x3e
 800266a:	3a02      	subs	r2, #2
 800266c:	b292      	uxth	r2, r2
 800266e:	87da      	strh	r2, [r3, #62]	; 0x3e
          if (hspi->RxXferCount <= 1U)
 8002670:	8fdb      	ldrh	r3, [r3, #62]	; 0x3e
 8002672:	2b01      	cmp	r3, #1
 8002674:	d804      	bhi.n	8002680 <HAL_SPI_TransmitReceive+0x214>
            SET_BIT(hspi->Instance->CR2, SPI_RXFIFO_THRESHOLD);
 8002676:	2380      	movs	r3, #128	; 0x80
 8002678:	684a      	ldr	r2, [r1, #4]
 800267a:	015b      	lsls	r3, r3, #5
 800267c:	4313      	orrs	r3, r2
 800267e:	604b      	str	r3, [r1, #4]
      if ((((HAL_GetTick() - tickstart) >=  Timeout) && ((Timeout != HAL_MAX_DELAY))) || (Timeout == 0U))
 8002680:	f7fe fda6 	bl	80011d0 <HAL_GetTick>
 8002684:	9b00      	ldr	r3, [sp, #0]
 8002686:	1ac0      	subs	r0, r0, r3
 8002688:	9b08      	ldr	r3, [sp, #32]
 800268a:	4283      	cmp	r3, r0
 800268c:	d8bb      	bhi.n	8002606 <HAL_SPI_TransmitReceive+0x19a>
 800268e:	3301      	adds	r3, #1
 8002690:	d0b9      	beq.n	8002606 <HAL_SPI_TransmitReceive+0x19a>
 8002692:	e79c      	b.n	80025ce <HAL_SPI_TransmitReceive+0x162>
        *(__IO uint8_t *)&hspi->Instance->DR = (*hspi->pTxBuffPtr);
 8002694:	783a      	ldrb	r2, [r7, #0]
 8002696:	731a      	strb	r2, [r3, #12]
        hspi->pTxBuffPtr++;
 8002698:	6ba3      	ldr	r3, [r4, #56]	; 0x38
 800269a:	3301      	adds	r3, #1
 800269c:	63a3      	str	r3, [r4, #56]	; 0x38
        hspi->TxXferCount--;
 800269e:	8fe3      	ldrh	r3, [r4, #62]	; 0x3e
 80026a0:	3b01      	subs	r3, #1
 80026a2:	e7ab      	b.n	80025fc <HAL_SPI_TransmitReceive+0x190>
          *(__IO uint8_t *)&hspi->Instance->DR = (*hspi->pTxBuffPtr);
 80026a4:	781b      	ldrb	r3, [r3, #0]
 80026a6:	7313      	strb	r3, [r2, #12]
          hspi->pTxBuffPtr++;
 80026a8:	6ba3      	ldr	r3, [r4, #56]	; 0x38
 80026aa:	3301      	adds	r3, #1
 80026ac:	63a3      	str	r3, [r4, #56]	; 0x38
          hspi->TxXferCount--;
 80026ae:	8fe3      	ldrh	r3, [r4, #62]	; 0x3e
 80026b0:	3b01      	subs	r3, #1
 80026b2:	e7c4      	b.n	800263e <HAL_SPI_TransmitReceive+0x1d2>
          (*(uint8_t *)hspi->pRxBuffPtr) = *(__IO uint8_t *)&hspi->Instance->DR;
 80026b4:	7b09      	ldrb	r1, [r1, #12]
        txallowed = 1U;
 80026b6:	0035      	movs	r5, r6
          (*(uint8_t *)hspi->pRxBuffPtr) = *(__IO uint8_t *)&hspi->Instance->DR;
 80026b8:	7011      	strb	r1, [r2, #0]
          hspi->pRxBuffPtr++;
 80026ba:	6c22      	ldr	r2, [r4, #64]	; 0x40
 80026bc:	3201      	adds	r2, #1
 80026be:	6422      	str	r2, [r4, #64]	; 0x40
          hspi->RxXferCount--;
 80026c0:	8fda      	ldrh	r2, [r3, #62]	; 0x3e
 80026c2:	3a01      	subs	r2, #1
 80026c4:	b292      	uxth	r2, r2
 80026c6:	87da      	strh	r2, [r3, #62]	; 0x3e
 80026c8:	e7da      	b.n	8002680 <HAL_SPI_TransmitReceive+0x214>
 80026ca:	46c0      	nop			; (mov r8, r8)
 80026cc:	ffffefff 	.word	0xffffefff

080026d0 <HAL_SPI_GetState>:
  return hspi->State;
 80026d0:	305d      	adds	r0, #93	; 0x5d
 80026d2:	7800      	ldrb	r0, [r0, #0]
 80026d4:	b2c0      	uxtb	r0, r0
}
 80026d6:	4770      	bx	lr

080026d8 <UART_SetConfig>:
  * @brief Configure the UART peripheral.
  * @param huart UART handle.
  * @retval HAL status
  */
HAL_StatusTypeDef UART_SetConfig(UART_HandleTypeDef *huart)
{
 80026d8:	b570      	push	{r4, r5, r6, lr}
 80026da:	0004      	movs	r4, r0
  *  the UART Word Length, Parity, Mode and oversampling:
  *  set the M bits according to huart->Init.WordLength value
  *  set PCE and PS bits according to huart->Init.Parity value
  *  set TE and RE bits according to huart->Init.Mode value
  *  set OVER8 bit according to huart->Init.OverSampling value */
  tmpreg = (uint32_t)huart->Init.WordLength | huart->Init.Parity | huart->Init.Mode | huart->Init.OverSampling ;
 80026dc:	6925      	ldr	r5, [r4, #16]
 80026de:	68a3      	ldr	r3, [r4, #8]
  MODIFY_REG(huart->Instance->CR1, USART_CR1_FIELDS, tmpreg);
 80026e0:	6802      	ldr	r2, [r0, #0]
  tmpreg = (uint32_t)huart->Init.WordLength | huart->Init.Parity | huart->Init.Mode | huart->Init.OverSampling ;
 80026e2:	432b      	orrs	r3, r5
 80026e4:	6965      	ldr	r5, [r4, #20]
 80026e6:	69c1      	ldr	r1, [r0, #28]
 80026e8:	432b      	orrs	r3, r5
  MODIFY_REG(huart->Instance->CR1, USART_CR1_FIELDS, tmpreg);
 80026ea:	6810      	ldr	r0, [r2, #0]
 80026ec:	4d43      	ldr	r5, [pc, #268]	; (80027fc <UART_SetConfig+0x124>)
  tmpreg = (uint32_t)huart->Init.WordLength | huart->Init.Parity | huart->Init.Mode | huart->Init.OverSampling ;
 80026ee:	430b      	orrs	r3, r1
  MODIFY_REG(huart->Instance->CR1, USART_CR1_FIELDS, tmpreg);
 80026f0:	4028      	ands	r0, r5
 80026f2:	4303      	orrs	r3, r0
 80026f4:	6013      	str	r3, [r2, #0]

  /*-------------------------- USART CR2 Configuration -----------------------*/
  /* Configure the UART Stop Bits: Set STOP[13:12] bits according
  * to huart->Init.StopBits value */
  MODIFY_REG(huart->Instance->CR2, USART_CR2_STOP, huart->Init.StopBits);
 80026f6:	6853      	ldr	r3, [r2, #4]
 80026f8:	4841      	ldr	r0, [pc, #260]	; (8002800 <UART_SetConfig+0x128>)
  *   to huart->Init.HwFlowCtl value
  * - one-bit sampling method versus three samples' majority rule according
  *   to huart->Init.OneBitSampling (not applicable to LPUART) */
  tmpreg = (uint32_t)huart->Init.HwFlowCtl;

  tmpreg |= huart->Init.OneBitSampling;
 80026fa:	6a25      	ldr	r5, [r4, #32]
  MODIFY_REG(huart->Instance->CR2, USART_CR2_STOP, huart->Init.StopBits);
 80026fc:	4003      	ands	r3, r0
 80026fe:	68e0      	ldr	r0, [r4, #12]
 8002700:	4303      	orrs	r3, r0
 8002702:	6053      	str	r3, [r2, #4]
  tmpreg |= huart->Init.OneBitSampling;
 8002704:	69a3      	ldr	r3, [r4, #24]
  MODIFY_REG(huart->Instance->CR3, USART_CR3_FIELDS, tmpreg);
 8002706:	6890      	ldr	r0, [r2, #8]
  tmpreg |= huart->Init.OneBitSampling;
 8002708:	432b      	orrs	r3, r5
  MODIFY_REG(huart->Instance->CR3, USART_CR3_FIELDS, tmpreg);
 800270a:	4d3e      	ldr	r5, [pc, #248]	; (8002804 <UART_SetConfig+0x12c>)
 800270c:	4028      	ands	r0, r5
 800270e:	4303      	orrs	r3, r0
 8002710:	6093      	str	r3, [r2, #8]
 8002712:	2380      	movs	r3, #128	; 0x80


  /*-------------------------- USART BRR Configuration -----------------------*/
  UART_GETCLOCKSOURCE(huart, clocksource);
 8002714:	483c      	ldr	r0, [pc, #240]	; (8002808 <UART_SetConfig+0x130>)
 8002716:	021b      	lsls	r3, r3, #8
 8002718:	4282      	cmp	r2, r0
 800271a:	d110      	bne.n	800273e <UART_SetConfig+0x66>
 800271c:	2003      	movs	r0, #3
 800271e:	4a3b      	ldr	r2, [pc, #236]	; (800280c <UART_SetConfig+0x134>)
 8002720:	6b12      	ldr	r2, [r2, #48]	; 0x30
 8002722:	4002      	ands	r2, r0
 8002724:	483a      	ldr	r0, [pc, #232]	; (8002810 <UART_SetConfig+0x138>)
 8002726:	5c80      	ldrb	r0, [r0, r2]

  if (huart->Init.OverSampling == UART_OVERSAMPLING_8)
 8002728:	4299      	cmp	r1, r3
 800272a:	d013      	beq.n	8002754 <UART_SetConfig+0x7c>
      ret = HAL_ERROR;
    }
  }
  else
  {
    switch (clocksource)
 800272c:	2808      	cmp	r0, #8
 800272e:	d828      	bhi.n	8002782 <UART_SetConfig+0xaa>
 8002730:	f7fd fcfc 	bl	800012c <__gnu_thumb1_case_uqi>
 8002734:	27462741 	.word	0x27462741
 8002738:	27272757 	.word	0x27272757
 800273c:	5a          	.byte	0x5a
 800273d:	00          	.byte	0x00
  UART_GETCLOCKSOURCE(huart, clocksource);
 800273e:	4835      	ldr	r0, [pc, #212]	; (8002814 <UART_SetConfig+0x13c>)
 8002740:	4282      	cmp	r2, r0
 8002742:	d156      	bne.n	80027f2 <UART_SetConfig+0x11a>
  if (huart->Init.OverSampling == UART_OVERSAMPLING_8)
 8002744:	4299      	cmp	r1, r3
 8002746:	d136      	bne.n	80027b6 <UART_SetConfig+0xde>
        pclk = HAL_RCC_GetPCLK1Freq();
 8002748:	f7ff fc44 	bl	8001fd4 <HAL_RCC_GetPCLK1Freq>
        usartdiv = (uint16_t)(UART_DIV_SAMPLING8(pclk, huart->Init.BaudRate));
 800274c:	6863      	ldr	r3, [r4, #4]
 800274e:	0040      	lsls	r0, r0, #1
 8002750:	085b      	lsrs	r3, r3, #1
 8002752:	e00b      	b.n	800276c <UART_SetConfig+0x94>
    switch (clocksource)
 8002754:	2808      	cmp	r0, #8
 8002756:	d81e      	bhi.n	8002796 <UART_SetConfig+0xbe>
 8002758:	f7fd fcde 	bl	8000118 <__gnu_thumb1_case_sqi>
 800275c:	1d051df6 	.word	0x1d051df6
 8002760:	1d1d1d15 	.word	0x1d1d1d15
 8002764:	18          	.byte	0x18
 8002765:	00          	.byte	0x00
        usartdiv = (uint16_t)(UART_DIV_SAMPLING8(HSI_VALUE, huart->Init.BaudRate));
 8002766:	6863      	ldr	r3, [r4, #4]
 8002768:	0858      	lsrs	r0, r3, #1
 800276a:	4b2b      	ldr	r3, [pc, #172]	; (8002818 <UART_SetConfig+0x140>)
        usartdiv = (uint16_t)(UART_DIV_SAMPLING8(LSE_VALUE, huart->Init.BaudRate));
 800276c:	18c0      	adds	r0, r0, r3
 800276e:	6861      	ldr	r1, [r4, #4]
 8002770:	f7fd fce6 	bl	8000140 <__udivsi3>
 8002774:	b283      	uxth	r3, r0
  HAL_StatusTypeDef ret               = HAL_OK;
 8002776:	2000      	movs	r0, #0
    if ((usartdiv >= UART_BRR_MIN) && (usartdiv <= UART_BRR_MAX))
 8002778:	001a      	movs	r2, r3
 800277a:	4928      	ldr	r1, [pc, #160]	; (800281c <UART_SetConfig+0x144>)
 800277c:	3a10      	subs	r2, #16
 800277e:	428a      	cmp	r2, r1
 8002780:	d90c      	bls.n	800279c <UART_SetConfig+0xc4>
    {
      huart->Instance->BRR = usartdiv;
    }
    else
    {
      ret = HAL_ERROR;
 8002782:	2001      	movs	r0, #1
 8002784:	e013      	b.n	80027ae <UART_SetConfig+0xd6>
        pclk = HAL_RCC_GetSysClockFreq();
 8002786:	f7ff fb6f 	bl	8001e68 <HAL_RCC_GetSysClockFreq>
 800278a:	e7df      	b.n	800274c <UART_SetConfig+0x74>
        usartdiv = (uint16_t)(UART_DIV_SAMPLING8(LSE_VALUE, huart->Init.BaudRate));
 800278c:	6863      	ldr	r3, [r4, #4]
 800278e:	0858      	lsrs	r0, r3, #1
 8002790:	2380      	movs	r3, #128	; 0x80
 8002792:	025b      	lsls	r3, r3, #9
 8002794:	e7ea      	b.n	800276c <UART_SetConfig+0x94>
        ret = HAL_ERROR;
 8002796:	2001      	movs	r0, #1
  uint32_t usartdiv                   = 0x00000000U;
 8002798:	2300      	movs	r3, #0
 800279a:	e7ed      	b.n	8002778 <UART_SetConfig+0xa0>
      brrtemp = (uint16_t)(usartdiv & 0xFFF0U);
 800279c:	220f      	movs	r2, #15
 800279e:	0019      	movs	r1, r3
 80027a0:	4391      	bics	r1, r2
 80027a2:	000a      	movs	r2, r1
      brrtemp |= (uint16_t)((usartdiv & (uint16_t)0x000FU) >> 1U);
 80027a4:	071b      	lsls	r3, r3, #28
      huart->Instance->BRR = brrtemp;
 80027a6:	6821      	ldr	r1, [r4, #0]
      brrtemp |= (uint16_t)((usartdiv & (uint16_t)0x000FU) >> 1U);
 80027a8:	0f5b      	lsrs	r3, r3, #29
      huart->Instance->BRR = brrtemp;
 80027aa:	4313      	orrs	r3, r2
 80027ac:	60cb      	str	r3, [r1, #12]
    }
  }


  /* Clear ISR function pointers */
  huart->RxISR = NULL;
 80027ae:	2300      	movs	r3, #0
 80027b0:	6623      	str	r3, [r4, #96]	; 0x60
  huart->TxISR = NULL;
 80027b2:	6663      	str	r3, [r4, #100]	; 0x64

  return ret;
}
 80027b4:	bd70      	pop	{r4, r5, r6, pc}
        pclk = HAL_RCC_GetPCLK1Freq();
 80027b6:	f7ff fc0d 	bl	8001fd4 <HAL_RCC_GetPCLK1Freq>
        usartdiv = (uint16_t)(UART_DIV_SAMPLING16(pclk, huart->Init.BaudRate));
 80027ba:	6863      	ldr	r3, [r4, #4]
 80027bc:	085b      	lsrs	r3, r3, #1
 80027be:	e002      	b.n	80027c6 <UART_SetConfig+0xee>
        usartdiv = (uint16_t)(UART_DIV_SAMPLING16(HSI_VALUE, huart->Init.BaudRate));
 80027c0:	6863      	ldr	r3, [r4, #4]
 80027c2:	0858      	lsrs	r0, r3, #1
 80027c4:	4b16      	ldr	r3, [pc, #88]	; (8002820 <UART_SetConfig+0x148>)
        usartdiv = (uint16_t)(UART_DIV_SAMPLING16(LSE_VALUE, huart->Init.BaudRate));
 80027c6:	18c0      	adds	r0, r0, r3
 80027c8:	6861      	ldr	r1, [r4, #4]
 80027ca:	f7fd fcb9 	bl	8000140 <__udivsi3>
 80027ce:	b283      	uxth	r3, r0
  HAL_StatusTypeDef ret               = HAL_OK;
 80027d0:	2000      	movs	r0, #0
    if ((usartdiv >= UART_BRR_MIN) && (usartdiv <= UART_BRR_MAX))
 80027d2:	001a      	movs	r2, r3
 80027d4:	4911      	ldr	r1, [pc, #68]	; (800281c <UART_SetConfig+0x144>)
 80027d6:	3a10      	subs	r2, #16
 80027d8:	428a      	cmp	r2, r1
 80027da:	d8d2      	bhi.n	8002782 <UART_SetConfig+0xaa>
      huart->Instance->BRR = usartdiv;
 80027dc:	6822      	ldr	r2, [r4, #0]
 80027de:	60d3      	str	r3, [r2, #12]
 80027e0:	e7e5      	b.n	80027ae <UART_SetConfig+0xd6>
        pclk = HAL_RCC_GetSysClockFreq();
 80027e2:	f7ff fb41 	bl	8001e68 <HAL_RCC_GetSysClockFreq>
 80027e6:	e7e8      	b.n	80027ba <UART_SetConfig+0xe2>
        usartdiv = (uint16_t)(UART_DIV_SAMPLING16(LSE_VALUE, huart->Init.BaudRate));
 80027e8:	6863      	ldr	r3, [r4, #4]
 80027ea:	0858      	lsrs	r0, r3, #1
 80027ec:	2380      	movs	r3, #128	; 0x80
 80027ee:	021b      	lsls	r3, r3, #8
 80027f0:	e7e9      	b.n	80027c6 <UART_SetConfig+0xee>
  if (huart->Init.OverSampling == UART_OVERSAMPLING_8)
 80027f2:	4299      	cmp	r1, r3
 80027f4:	d0cf      	beq.n	8002796 <UART_SetConfig+0xbe>
        ret = HAL_ERROR;
 80027f6:	2001      	movs	r0, #1
  uint32_t usartdiv                   = 0x00000000U;
 80027f8:	2300      	movs	r3, #0
 80027fa:	e7ea      	b.n	80027d2 <UART_SetConfig+0xfa>
 80027fc:	ffff69f3 	.word	0xffff69f3
 8002800:	ffffcfff 	.word	0xffffcfff
 8002804:	fffff4ff 	.word	0xfffff4ff
 8002808:	40013800 	.word	0x40013800
 800280c:	40021000 	.word	0x40021000
 8002810:	08006668 	.word	0x08006668
 8002814:	40004400 	.word	0x40004400
 8002818:	00f42400 	.word	0x00f42400
 800281c:	0000ffef 	.word	0x0000ffef
 8002820:	007a1200 	.word	0x007a1200

08002824 <UART_AdvFeatureConfig>:
{
  /* Check whether the set of advanced features to configure is properly set */
  assert_param(IS_UART_ADVFEATURE_INIT(huart->AdvancedInit.AdvFeatureInit));

  /* if required, configure TX pin active level inversion */
  if (HAL_IS_BIT_SET(huart->AdvancedInit.AdvFeatureInit, UART_ADVFEATURE_TXINVERT_INIT))
 8002824:	6a43      	ldr	r3, [r0, #36]	; 0x24
{
 8002826:	b530      	push	{r4, r5, lr}
  if (HAL_IS_BIT_SET(huart->AdvancedInit.AdvFeatureInit, UART_ADVFEATURE_TXINVERT_INIT))
 8002828:	07da      	lsls	r2, r3, #31
 800282a:	d506      	bpl.n	800283a <UART_AdvFeatureConfig+0x16>
  {
    assert_param(IS_UART_ADVFEATURE_TXINV(huart->AdvancedInit.TxPinLevelInvert));
    MODIFY_REG(huart->Instance->CR2, USART_CR2_TXINV, huart->AdvancedInit.TxPinLevelInvert);
 800282c:	6801      	ldr	r1, [r0, #0]
 800282e:	4c28      	ldr	r4, [pc, #160]	; (80028d0 <UART_AdvFeatureConfig+0xac>)
 8002830:	684a      	ldr	r2, [r1, #4]
 8002832:	4022      	ands	r2, r4
 8002834:	6a84      	ldr	r4, [r0, #40]	; 0x28
 8002836:	4322      	orrs	r2, r4
 8002838:	604a      	str	r2, [r1, #4]
  }

  /* if required, configure RX pin active level inversion */
  if (HAL_IS_BIT_SET(huart->AdvancedInit.AdvFeatureInit, UART_ADVFEATURE_RXINVERT_INIT))
 800283a:	079a      	lsls	r2, r3, #30
 800283c:	d506      	bpl.n	800284c <UART_AdvFeatureConfig+0x28>
  {
    assert_param(IS_UART_ADVFEATURE_RXINV(huart->AdvancedInit.RxPinLevelInvert));
    MODIFY_REG(huart->Instance->CR2, USART_CR2_RXINV, huart->AdvancedInit.RxPinLevelInvert);
 800283e:	6801      	ldr	r1, [r0, #0]
 8002840:	4c24      	ldr	r4, [pc, #144]	; (80028d4 <UART_AdvFeatureConfig+0xb0>)
 8002842:	684a      	ldr	r2, [r1, #4]
 8002844:	4022      	ands	r2, r4
 8002846:	6ac4      	ldr	r4, [r0, #44]	; 0x2c
 8002848:	4322      	orrs	r2, r4
 800284a:	604a      	str	r2, [r1, #4]
  }

  /* if required, configure data inversion */
  if (HAL_IS_BIT_SET(huart->AdvancedInit.AdvFeatureInit, UART_ADVFEATURE_DATAINVERT_INIT))
 800284c:	075a      	lsls	r2, r3, #29
 800284e:	d506      	bpl.n	800285e <UART_AdvFeatureConfig+0x3a>
  {
    assert_param(IS_UART_ADVFEATURE_DATAINV(huart->AdvancedInit.DataInvert));
    MODIFY_REG(huart->Instance->CR2, USART_CR2_DATAINV, huart->AdvancedInit.DataInvert);
 8002850:	6801      	ldr	r1, [r0, #0]
 8002852:	4c21      	ldr	r4, [pc, #132]	; (80028d8 <UART_AdvFeatureConfig+0xb4>)
 8002854:	684a      	ldr	r2, [r1, #4]
 8002856:	4022      	ands	r2, r4
 8002858:	6b04      	ldr	r4, [r0, #48]	; 0x30
 800285a:	4322      	orrs	r2, r4
 800285c:	604a      	str	r2, [r1, #4]
  }

  /* if required, configure RX/TX pins swap */
  if (HAL_IS_BIT_SET(huart->AdvancedInit.AdvFeatureInit, UART_ADVFEATURE_SWAP_INIT))
 800285e:	071a      	lsls	r2, r3, #28
 8002860:	d506      	bpl.n	8002870 <UART_AdvFeatureConfig+0x4c>
  {
    assert_param(IS_UART_ADVFEATURE_SWAP(huart->AdvancedInit.Swap));
    MODIFY_REG(huart->Instance->CR2, USART_CR2_SWAP, huart->AdvancedInit.Swap);
 8002862:	6801      	ldr	r1, [r0, #0]
 8002864:	4c1d      	ldr	r4, [pc, #116]	; (80028dc <UART_AdvFeatureConfig+0xb8>)
 8002866:	684a      	ldr	r2, [r1, #4]
 8002868:	4022      	ands	r2, r4
 800286a:	6b44      	ldr	r4, [r0, #52]	; 0x34
 800286c:	4322      	orrs	r2, r4
 800286e:	604a      	str	r2, [r1, #4]
  }

  /* if required, configure RX overrun detection disabling */
  if (HAL_IS_BIT_SET(huart->AdvancedInit.AdvFeatureInit, UART_ADVFEATURE_RXOVERRUNDISABLE_INIT))
 8002870:	06da      	lsls	r2, r3, #27
 8002872:	d506      	bpl.n	8002882 <UART_AdvFeatureConfig+0x5e>
  {
    assert_param(IS_UART_OVERRUN(huart->AdvancedInit.OverrunDisable));
    MODIFY_REG(huart->Instance->CR3, USART_CR3_OVRDIS, huart->AdvancedInit.OverrunDisable);
 8002874:	6801      	ldr	r1, [r0, #0]
 8002876:	4c1a      	ldr	r4, [pc, #104]	; (80028e0 <UART_AdvFeatureConfig+0xbc>)
 8002878:	688a      	ldr	r2, [r1, #8]
 800287a:	4022      	ands	r2, r4
 800287c:	6b84      	ldr	r4, [r0, #56]	; 0x38
 800287e:	4322      	orrs	r2, r4
 8002880:	608a      	str	r2, [r1, #8]
  }

  /* if required, configure DMA disabling on reception error */
  if (HAL_IS_BIT_SET(huart->AdvancedInit.AdvFeatureInit, UART_ADVFEATURE_DMADISABLEONERROR_INIT))
 8002882:	069a      	lsls	r2, r3, #26
 8002884:	d506      	bpl.n	8002894 <UART_AdvFeatureConfig+0x70>
  {
    assert_param(IS_UART_ADVFEATURE_DMAONRXERROR(huart->AdvancedInit.DMADisableonRxError));
    MODIFY_REG(huart->Instance->CR3, USART_CR3_DDRE, huart->AdvancedInit.DMADisableonRxError);
 8002886:	6801      	ldr	r1, [r0, #0]
 8002888:	4c16      	ldr	r4, [pc, #88]	; (80028e4 <UART_AdvFeatureConfig+0xc0>)
 800288a:	688a      	ldr	r2, [r1, #8]
 800288c:	4022      	ands	r2, r4
 800288e:	6bc4      	ldr	r4, [r0, #60]	; 0x3c
 8002890:	4322      	orrs	r2, r4
 8002892:	608a      	str	r2, [r1, #8]
  }

  /* if required, configure auto Baud rate detection scheme */
  if (HAL_IS_BIT_SET(huart->AdvancedInit.AdvFeatureInit, UART_ADVFEATURE_AUTOBAUDRATE_INIT))
 8002894:	065a      	lsls	r2, r3, #25
 8002896:	d510      	bpl.n	80028ba <UART_AdvFeatureConfig+0x96>
  {
    assert_param(IS_USART_AUTOBAUDRATE_DETECTION_INSTANCE(huart->Instance));
    assert_param(IS_UART_ADVFEATURE_AUTOBAUDRATE(huart->AdvancedInit.AutoBaudRateEnable));
    MODIFY_REG(huart->Instance->CR2, USART_CR2_ABREN, huart->AdvancedInit.AutoBaudRateEnable);
 8002898:	6801      	ldr	r1, [r0, #0]
 800289a:	4d13      	ldr	r5, [pc, #76]	; (80028e8 <UART_AdvFeatureConfig+0xc4>)
 800289c:	684a      	ldr	r2, [r1, #4]
 800289e:	6c04      	ldr	r4, [r0, #64]	; 0x40
 80028a0:	402a      	ands	r2, r5
 80028a2:	4322      	orrs	r2, r4
 80028a4:	604a      	str	r2, [r1, #4]
    /* set auto Baudrate detection parameters if detection is enabled */
    if (huart->AdvancedInit.AutoBaudRateEnable == UART_ADVFEATURE_AUTOBAUDRATE_ENABLE)
 80028a6:	2280      	movs	r2, #128	; 0x80
 80028a8:	0352      	lsls	r2, r2, #13
 80028aa:	4294      	cmp	r4, r2
 80028ac:	d105      	bne.n	80028ba <UART_AdvFeatureConfig+0x96>
    {
      assert_param(IS_UART_ADVFEATURE_AUTOBAUDRATEMODE(huart->AdvancedInit.AutoBaudRateMode));
      MODIFY_REG(huart->Instance->CR2, USART_CR2_ABRMODE, huart->AdvancedInit.AutoBaudRateMode);
 80028ae:	684a      	ldr	r2, [r1, #4]
 80028b0:	4c0e      	ldr	r4, [pc, #56]	; (80028ec <UART_AdvFeatureConfig+0xc8>)
 80028b2:	4022      	ands	r2, r4
 80028b4:	6c44      	ldr	r4, [r0, #68]	; 0x44
 80028b6:	4322      	orrs	r2, r4
 80028b8:	604a      	str	r2, [r1, #4]
    }
  }

  /* if required, configure MSB first on communication line */
  if (HAL_IS_BIT_SET(huart->AdvancedInit.AdvFeatureInit, UART_ADVFEATURE_MSBFIRST_INIT))
 80028ba:	061b      	lsls	r3, r3, #24
 80028bc:	d506      	bpl.n	80028cc <UART_AdvFeatureConfig+0xa8>
  {
    assert_param(IS_UART_ADVFEATURE_MSBFIRST(huart->AdvancedInit.MSBFirst));
    MODIFY_REG(huart->Instance->CR2, USART_CR2_MSBFIRST, huart->AdvancedInit.MSBFirst);
 80028be:	6802      	ldr	r2, [r0, #0]
 80028c0:	490b      	ldr	r1, [pc, #44]	; (80028f0 <UART_AdvFeatureConfig+0xcc>)
 80028c2:	6853      	ldr	r3, [r2, #4]
 80028c4:	400b      	ands	r3, r1
 80028c6:	6c81      	ldr	r1, [r0, #72]	; 0x48
 80028c8:	430b      	orrs	r3, r1
 80028ca:	6053      	str	r3, [r2, #4]
  }
}
 80028cc:	bd30      	pop	{r4, r5, pc}
 80028ce:	46c0      	nop			; (mov r8, r8)
 80028d0:	fffdffff 	.word	0xfffdffff
 80028d4:	fffeffff 	.word	0xfffeffff
 80028d8:	fffbffff 	.word	0xfffbffff
 80028dc:	ffff7fff 	.word	0xffff7fff
 80028e0:	ffffefff 	.word	0xffffefff
 80028e4:	ffffdfff 	.word	0xffffdfff
 80028e8:	ffefffff 	.word	0xffefffff
 80028ec:	ff9fffff 	.word	0xff9fffff
 80028f0:	fff7ffff 	.word	0xfff7ffff

080028f4 <UART_WaitOnFlagUntilTimeout>:
  * @param Timeout   Timeout duration
  * @retval HAL status
  */
HAL_StatusTypeDef UART_WaitOnFlagUntilTimeout(UART_HandleTypeDef *huart, uint32_t Flag, FlagStatus Status,
                                              uint32_t Tickstart, uint32_t Timeout)
{
 80028f4:	b5f7      	push	{r0, r1, r2, r4, r5, r6, r7, lr}
        return HAL_TIMEOUT;
      }

      if (READ_BIT(huart->Instance->CR1, USART_CR1_RE) != 0U)
      {
        if (__HAL_UART_GET_FLAG(huart, UART_FLAG_RTOF) == SET)
 80028f6:	2780      	movs	r7, #128	; 0x80
{
 80028f8:	0004      	movs	r4, r0
 80028fa:	000e      	movs	r6, r1
 80028fc:	0015      	movs	r5, r2
 80028fe:	9301      	str	r3, [sp, #4]
        if (__HAL_UART_GET_FLAG(huart, UART_FLAG_RTOF) == SET)
 8002900:	013f      	lsls	r7, r7, #4
  while ((__HAL_UART_GET_FLAG(huart, Flag) ? SET : RESET) == Status)
 8002902:	6822      	ldr	r2, [r4, #0]
 8002904:	69d3      	ldr	r3, [r2, #28]
 8002906:	4033      	ands	r3, r6
 8002908:	1b9b      	subs	r3, r3, r6
 800290a:	4259      	negs	r1, r3
 800290c:	414b      	adcs	r3, r1
 800290e:	42ab      	cmp	r3, r5
 8002910:	d001      	beq.n	8002916 <UART_WaitOnFlagUntilTimeout+0x22>
          return HAL_TIMEOUT;
        }
      }
    }
  }
  return HAL_OK;
 8002912:	2000      	movs	r0, #0
 8002914:	e01c      	b.n	8002950 <UART_WaitOnFlagUntilTimeout+0x5c>
    if (Timeout != HAL_MAX_DELAY)
 8002916:	9b08      	ldr	r3, [sp, #32]
 8002918:	3301      	adds	r3, #1
 800291a:	d0f3      	beq.n	8002904 <UART_WaitOnFlagUntilTimeout+0x10>
      if (((HAL_GetTick() - Tickstart) > Timeout) || (Timeout == 0U))
 800291c:	f7fe fc58 	bl	80011d0 <HAL_GetTick>
 8002920:	9b01      	ldr	r3, [sp, #4]
 8002922:	9a08      	ldr	r2, [sp, #32]
 8002924:	1ac0      	subs	r0, r0, r3
 8002926:	6823      	ldr	r3, [r4, #0]
 8002928:	4282      	cmp	r2, r0
 800292a:	d301      	bcc.n	8002930 <UART_WaitOnFlagUntilTimeout+0x3c>
 800292c:	2a00      	cmp	r2, #0
 800292e:	d110      	bne.n	8002952 <UART_WaitOnFlagUntilTimeout+0x5e>
        CLEAR_BIT(huart->Instance->CR1, (USART_CR1_RXNEIE | USART_CR1_PEIE | USART_CR1_TXEIE));
 8002930:	681a      	ldr	r2, [r3, #0]
 8002932:	4913      	ldr	r1, [pc, #76]	; (8002980 <UART_WaitOnFlagUntilTimeout+0x8c>)
 8002934:	400a      	ands	r2, r1
 8002936:	601a      	str	r2, [r3, #0]
        CLEAR_BIT(huart->Instance->CR3, USART_CR3_EIE);
 8002938:	689a      	ldr	r2, [r3, #8]
 800293a:	31a3      	adds	r1, #163	; 0xa3
 800293c:	31ff      	adds	r1, #255	; 0xff
 800293e:	438a      	bics	r2, r1
 8002940:	609a      	str	r2, [r3, #8]
        huart->gState = HAL_UART_STATE_READY;
 8002942:	2320      	movs	r3, #32
 8002944:	6763      	str	r3, [r4, #116]	; 0x74
        huart->RxState = HAL_UART_STATE_READY;
 8002946:	67a3      	str	r3, [r4, #120]	; 0x78
          __HAL_UNLOCK(huart);
 8002948:	2300      	movs	r3, #0
          return HAL_TIMEOUT;
 800294a:	2003      	movs	r0, #3
          __HAL_UNLOCK(huart);
 800294c:	3470      	adds	r4, #112	; 0x70
 800294e:	7023      	strb	r3, [r4, #0]
}
 8002950:	bdfe      	pop	{r1, r2, r3, r4, r5, r6, r7, pc}
      if (READ_BIT(huart->Instance->CR1, USART_CR1_RE) != 0U)
 8002952:	2104      	movs	r1, #4
 8002954:	681a      	ldr	r2, [r3, #0]
 8002956:	420a      	tst	r2, r1
 8002958:	d0d3      	beq.n	8002902 <UART_WaitOnFlagUntilTimeout+0xe>
        if (__HAL_UART_GET_FLAG(huart, UART_FLAG_RTOF) == SET)
 800295a:	69da      	ldr	r2, [r3, #28]
 800295c:	423a      	tst	r2, r7
 800295e:	d0d0      	beq.n	8002902 <UART_WaitOnFlagUntilTimeout+0xe>
          __HAL_UART_CLEAR_FLAG(huart, UART_CLEAR_RTOF);
 8002960:	621f      	str	r7, [r3, #32]
          CLEAR_BIT(huart->Instance->CR1, (USART_CR1_RXNEIE | USART_CR1_PEIE | USART_CR1_TXEIE));
 8002962:	681a      	ldr	r2, [r3, #0]
 8002964:	4906      	ldr	r1, [pc, #24]	; (8002980 <UART_WaitOnFlagUntilTimeout+0x8c>)
 8002966:	400a      	ands	r2, r1
 8002968:	601a      	str	r2, [r3, #0]
          CLEAR_BIT(huart->Instance->CR3, USART_CR3_EIE);
 800296a:	689a      	ldr	r2, [r3, #8]
 800296c:	31a3      	adds	r1, #163	; 0xa3
 800296e:	31ff      	adds	r1, #255	; 0xff
 8002970:	438a      	bics	r2, r1
 8002972:	609a      	str	r2, [r3, #8]
          huart->gState = HAL_UART_STATE_READY;
 8002974:	2320      	movs	r3, #32
 8002976:	6763      	str	r3, [r4, #116]	; 0x74
          huart->RxState = HAL_UART_STATE_READY;
 8002978:	67a3      	str	r3, [r4, #120]	; 0x78
          huart->ErrorCode = HAL_UART_ERROR_RTO;
 800297a:	67e3      	str	r3, [r4, #124]	; 0x7c
 800297c:	e7e4      	b.n	8002948 <UART_WaitOnFlagUntilTimeout+0x54>
 800297e:	46c0      	nop			; (mov r8, r8)
 8002980:	fffffe5f 	.word	0xfffffe5f

08002984 <HAL_UART_Transmit>:
{
 8002984:	b5f0      	push	{r4, r5, r6, r7, lr}
 8002986:	b087      	sub	sp, #28
 8002988:	9305      	str	r3, [sp, #20]
  if (huart->gState == HAL_UART_STATE_READY)
 800298a:	6f43      	ldr	r3, [r0, #116]	; 0x74
{
 800298c:	0004      	movs	r4, r0
 800298e:	000d      	movs	r5, r1
 8002990:	0017      	movs	r7, r2
    return HAL_BUSY;
 8002992:	2002      	movs	r0, #2
  if (huart->gState == HAL_UART_STATE_READY)
 8002994:	2b20      	cmp	r3, #32
 8002996:	d149      	bne.n	8002a2c <HAL_UART_Transmit+0xa8>
      return  HAL_ERROR;
 8002998:	3801      	subs	r0, #1
    if ((pData == NULL) || (Size == 0U))
 800299a:	2900      	cmp	r1, #0
 800299c:	d046      	beq.n	8002a2c <HAL_UART_Transmit+0xa8>
 800299e:	2a00      	cmp	r2, #0
 80029a0:	d044      	beq.n	8002a2c <HAL_UART_Transmit+0xa8>
    if ((huart->Init.WordLength == UART_WORDLENGTH_9B) && (huart->Init.Parity == UART_PARITY_NONE))
 80029a2:	2380      	movs	r3, #128	; 0x80
 80029a4:	68a2      	ldr	r2, [r4, #8]
 80029a6:	015b      	lsls	r3, r3, #5
 80029a8:	429a      	cmp	r2, r3
 80029aa:	d104      	bne.n	80029b6 <HAL_UART_Transmit+0x32>
 80029ac:	6923      	ldr	r3, [r4, #16]
 80029ae:	2b00      	cmp	r3, #0
 80029b0:	d101      	bne.n	80029b6 <HAL_UART_Transmit+0x32>
      if ((((uint32_t)pData) & 1U) != 0U)
 80029b2:	4201      	tst	r1, r0
 80029b4:	d13a      	bne.n	8002a2c <HAL_UART_Transmit+0xa8>
    __HAL_LOCK(huart);
 80029b6:	0023      	movs	r3, r4
 80029b8:	3370      	adds	r3, #112	; 0x70
 80029ba:	781a      	ldrb	r2, [r3, #0]
    return HAL_BUSY;
 80029bc:	2002      	movs	r0, #2
    __HAL_LOCK(huart);
 80029be:	2a01      	cmp	r2, #1
 80029c0:	d034      	beq.n	8002a2c <HAL_UART_Transmit+0xa8>
 80029c2:	2201      	movs	r2, #1
    huart->ErrorCode = HAL_UART_ERROR_NONE;
 80029c4:	2600      	movs	r6, #0
    __HAL_LOCK(huart);
 80029c6:	701a      	strb	r2, [r3, #0]
    huart->gState = HAL_UART_STATE_BUSY_TX;
 80029c8:	2321      	movs	r3, #33	; 0x21
    huart->ErrorCode = HAL_UART_ERROR_NONE;
 80029ca:	67e6      	str	r6, [r4, #124]	; 0x7c
    huart->gState = HAL_UART_STATE_BUSY_TX;
 80029cc:	6763      	str	r3, [r4, #116]	; 0x74
    tickstart = HAL_GetTick();
 80029ce:	f7fe fbff 	bl	80011d0 <HAL_GetTick>
    huart->TxXferSize  = Size;
 80029d2:	0023      	movs	r3, r4
 80029d4:	3350      	adds	r3, #80	; 0x50
 80029d6:	801f      	strh	r7, [r3, #0]
    huart->TxXferCount = Size;
 80029d8:	3302      	adds	r3, #2
 80029da:	9303      	str	r3, [sp, #12]
 80029dc:	801f      	strh	r7, [r3, #0]
    if ((huart->Init.WordLength == UART_WORDLENGTH_9B) && (huart->Init.Parity == UART_PARITY_NONE))
 80029de:	2380      	movs	r3, #128	; 0x80
 80029e0:	68a2      	ldr	r2, [r4, #8]
    tickstart = HAL_GetTick();
 80029e2:	9004      	str	r0, [sp, #16]
    if ((huart->Init.WordLength == UART_WORDLENGTH_9B) && (huart->Init.Parity == UART_PARITY_NONE))
 80029e4:	015b      	lsls	r3, r3, #5
 80029e6:	429a      	cmp	r2, r3
 80029e8:	d104      	bne.n	80029f4 <HAL_UART_Transmit+0x70>
 80029ea:	6923      	ldr	r3, [r4, #16]
 80029ec:	42b3      	cmp	r3, r6
 80029ee:	d101      	bne.n	80029f4 <HAL_UART_Transmit+0x70>
 80029f0:	002e      	movs	r6, r5
      pdata8bits  = NULL;
 80029f2:	001d      	movs	r5, r3
    while (huart->TxXferCount > 0U)
 80029f4:	0023      	movs	r3, r4
 80029f6:	3352      	adds	r3, #82	; 0x52
 80029f8:	881a      	ldrh	r2, [r3, #0]
      if (UART_WaitOnFlagUntilTimeout(huart, UART_FLAG_TXE, RESET, tickstart, Timeout) != HAL_OK)
 80029fa:	9b05      	ldr	r3, [sp, #20]
    while (huart->TxXferCount > 0U)
 80029fc:	b292      	uxth	r2, r2
      if (UART_WaitOnFlagUntilTimeout(huart, UART_FLAG_TXE, RESET, tickstart, Timeout) != HAL_OK)
 80029fe:	9300      	str	r3, [sp, #0]
 8002a00:	9b04      	ldr	r3, [sp, #16]
    while (huart->TxXferCount > 0U)
 8002a02:	2a00      	cmp	r2, #0
 8002a04:	d10a      	bne.n	8002a1c <HAL_UART_Transmit+0x98>
    if (UART_WaitOnFlagUntilTimeout(huart, UART_FLAG_TC, RESET, tickstart, Timeout) != HAL_OK)
 8002a06:	2140      	movs	r1, #64	; 0x40
 8002a08:	0020      	movs	r0, r4
 8002a0a:	f7ff ff73 	bl	80028f4 <UART_WaitOnFlagUntilTimeout>
 8002a0e:	2800      	cmp	r0, #0
 8002a10:	d10b      	bne.n	8002a2a <HAL_UART_Transmit+0xa6>
    huart->gState = HAL_UART_STATE_READY;
 8002a12:	2320      	movs	r3, #32
    __HAL_UNLOCK(huart);
 8002a14:	3470      	adds	r4, #112	; 0x70
    huart->gState = HAL_UART_STATE_READY;
 8002a16:	6063      	str	r3, [r4, #4]
    __HAL_UNLOCK(huart);
 8002a18:	7020      	strb	r0, [r4, #0]
    return HAL_OK;
 8002a1a:	e007      	b.n	8002a2c <HAL_UART_Transmit+0xa8>
      if (UART_WaitOnFlagUntilTimeout(huart, UART_FLAG_TXE, RESET, tickstart, Timeout) != HAL_OK)
 8002a1c:	2200      	movs	r2, #0
 8002a1e:	2180      	movs	r1, #128	; 0x80
 8002a20:	0020      	movs	r0, r4
 8002a22:	f7ff ff67 	bl	80028f4 <UART_WaitOnFlagUntilTimeout>
 8002a26:	2800      	cmp	r0, #0
 8002a28:	d002      	beq.n	8002a30 <HAL_UART_Transmit+0xac>
        return HAL_TIMEOUT;
 8002a2a:	2003      	movs	r0, #3
}
 8002a2c:	b007      	add	sp, #28
 8002a2e:	bdf0      	pop	{r4, r5, r6, r7, pc}
 8002a30:	6822      	ldr	r2, [r4, #0]
      if (pdata8bits == NULL)
 8002a32:	2d00      	cmp	r5, #0
 8002a34:	d10b      	bne.n	8002a4e <HAL_UART_Transmit+0xca>
        huart->Instance->TDR = (uint16_t)(*pdata16bits & 0x01FFU);
 8002a36:	8833      	ldrh	r3, [r6, #0]
        pdata16bits++;
 8002a38:	3602      	adds	r6, #2
        huart->Instance->TDR = (uint16_t)(*pdata16bits & 0x01FFU);
 8002a3a:	05db      	lsls	r3, r3, #23
 8002a3c:	0ddb      	lsrs	r3, r3, #23
 8002a3e:	8513      	strh	r3, [r2, #40]	; 0x28
      huart->TxXferCount--;
 8002a40:	9b03      	ldr	r3, [sp, #12]
 8002a42:	9a03      	ldr	r2, [sp, #12]
 8002a44:	881b      	ldrh	r3, [r3, #0]
 8002a46:	3b01      	subs	r3, #1
 8002a48:	b29b      	uxth	r3, r3
 8002a4a:	8013      	strh	r3, [r2, #0]
 8002a4c:	e7d2      	b.n	80029f4 <HAL_UART_Transmit+0x70>
        huart->Instance->TDR = (uint8_t)(*pdata8bits & 0xFFU);
 8002a4e:	782b      	ldrb	r3, [r5, #0]
        pdata8bits++;
 8002a50:	3501      	adds	r5, #1
        huart->Instance->TDR = (uint8_t)(*pdata8bits & 0xFFU);
 8002a52:	8513      	strh	r3, [r2, #40]	; 0x28
 8002a54:	e7f4      	b.n	8002a40 <HAL_UART_Transmit+0xbc>
	...

08002a58 <UART_CheckIdleState>:
{
 8002a58:	b573      	push	{r0, r1, r4, r5, r6, lr}
  huart->ErrorCode = HAL_UART_ERROR_NONE;
 8002a5a:	2600      	movs	r6, #0
{
 8002a5c:	0004      	movs	r4, r0
  huart->ErrorCode = HAL_UART_ERROR_NONE;
 8002a5e:	67c6      	str	r6, [r0, #124]	; 0x7c
  tickstart = HAL_GetTick();
 8002a60:	f7fe fbb6 	bl	80011d0 <HAL_GetTick>
  if ((huart->Instance->CR1 & USART_CR1_TE) == USART_CR1_TE)
 8002a64:	6823      	ldr	r3, [r4, #0]
  tickstart = HAL_GetTick();
 8002a66:	0005      	movs	r5, r0
  if ((huart->Instance->CR1 & USART_CR1_TE) == USART_CR1_TE)
 8002a68:	681b      	ldr	r3, [r3, #0]
 8002a6a:	071b      	lsls	r3, r3, #28
 8002a6c:	d415      	bmi.n	8002a9a <UART_CheckIdleState+0x42>
  if ((huart->Instance->CR1 & USART_CR1_RE) == USART_CR1_RE)
 8002a6e:	6823      	ldr	r3, [r4, #0]
 8002a70:	681b      	ldr	r3, [r3, #0]
 8002a72:	075b      	lsls	r3, r3, #29
 8002a74:	d50a      	bpl.n	8002a8c <UART_CheckIdleState+0x34>
    if (UART_WaitOnFlagUntilTimeout(huart, USART_ISR_REACK, RESET, tickstart, HAL_UART_TIMEOUT_VALUE) != HAL_OK)
 8002a76:	2180      	movs	r1, #128	; 0x80
 8002a78:	4b0e      	ldr	r3, [pc, #56]	; (8002ab4 <UART_CheckIdleState+0x5c>)
 8002a7a:	2200      	movs	r2, #0
 8002a7c:	9300      	str	r3, [sp, #0]
 8002a7e:	03c9      	lsls	r1, r1, #15
 8002a80:	002b      	movs	r3, r5
 8002a82:	0020      	movs	r0, r4
 8002a84:	f7ff ff36 	bl	80028f4 <UART_WaitOnFlagUntilTimeout>
 8002a88:	2800      	cmp	r0, #0
 8002a8a:	d111      	bne.n	8002ab0 <UART_CheckIdleState+0x58>
  huart->gState = HAL_UART_STATE_READY;
 8002a8c:	2320      	movs	r3, #32
  __HAL_UNLOCK(huart);
 8002a8e:	2000      	movs	r0, #0
  huart->gState = HAL_UART_STATE_READY;
 8002a90:	6763      	str	r3, [r4, #116]	; 0x74
  huart->RxState = HAL_UART_STATE_READY;
 8002a92:	67a3      	str	r3, [r4, #120]	; 0x78
  __HAL_UNLOCK(huart);
 8002a94:	3470      	adds	r4, #112	; 0x70
 8002a96:	7020      	strb	r0, [r4, #0]
  return HAL_OK;
 8002a98:	e00b      	b.n	8002ab2 <UART_CheckIdleState+0x5a>
    if (UART_WaitOnFlagUntilTimeout(huart, USART_ISR_TEACK, RESET, tickstart, HAL_UART_TIMEOUT_VALUE) != HAL_OK)
 8002a9a:	2180      	movs	r1, #128	; 0x80
 8002a9c:	4b05      	ldr	r3, [pc, #20]	; (8002ab4 <UART_CheckIdleState+0x5c>)
 8002a9e:	0032      	movs	r2, r6
 8002aa0:	9300      	str	r3, [sp, #0]
 8002aa2:	0389      	lsls	r1, r1, #14
 8002aa4:	0003      	movs	r3, r0
 8002aa6:	0020      	movs	r0, r4
 8002aa8:	f7ff ff24 	bl	80028f4 <UART_WaitOnFlagUntilTimeout>
 8002aac:	2800      	cmp	r0, #0
 8002aae:	d0de      	beq.n	8002a6e <UART_CheckIdleState+0x16>
      return HAL_TIMEOUT;
 8002ab0:	2003      	movs	r0, #3
}
 8002ab2:	bd76      	pop	{r1, r2, r4, r5, r6, pc}
 8002ab4:	01ffffff 	.word	0x01ffffff

08002ab8 <HAL_UART_Init>:
{
 8002ab8:	b510      	push	{r4, lr}
 8002aba:	1e04      	subs	r4, r0, #0
  if (huart == NULL)
 8002abc:	d101      	bne.n	8002ac2 <HAL_UART_Init+0xa>
    return HAL_ERROR;
 8002abe:	2001      	movs	r0, #1
}
 8002ac0:	bd10      	pop	{r4, pc}
  if (huart->gState == HAL_UART_STATE_RESET)
 8002ac2:	6f43      	ldr	r3, [r0, #116]	; 0x74
 8002ac4:	2b00      	cmp	r3, #0
 8002ac6:	d104      	bne.n	8002ad2 <HAL_UART_Init+0x1a>
    huart->Lock = HAL_UNLOCKED;
 8002ac8:	0002      	movs	r2, r0
 8002aca:	3270      	adds	r2, #112	; 0x70
 8002acc:	7013      	strb	r3, [r2, #0]
    HAL_UART_MspInit(huart);
 8002ace:	f003 f86f 	bl	8005bb0 <HAL_UART_MspInit>
  huart->gState = HAL_UART_STATE_BUSY;
 8002ad2:	2324      	movs	r3, #36	; 0x24
  __HAL_UART_DISABLE(huart);
 8002ad4:	2101      	movs	r1, #1
 8002ad6:	6822      	ldr	r2, [r4, #0]
  huart->gState = HAL_UART_STATE_BUSY;
 8002ad8:	6763      	str	r3, [r4, #116]	; 0x74
  __HAL_UART_DISABLE(huart);
 8002ada:	6813      	ldr	r3, [r2, #0]
  if (UART_SetConfig(huart) == HAL_ERROR)
 8002adc:	0020      	movs	r0, r4
  __HAL_UART_DISABLE(huart);
 8002ade:	438b      	bics	r3, r1
 8002ae0:	6013      	str	r3, [r2, #0]
  if (UART_SetConfig(huart) == HAL_ERROR)
 8002ae2:	f7ff fdf9 	bl	80026d8 <UART_SetConfig>
 8002ae6:	2801      	cmp	r0, #1
 8002ae8:	d0e9      	beq.n	8002abe <HAL_UART_Init+0x6>
  if (huart->AdvancedInit.AdvFeatureInit != UART_ADVFEATURE_NO_INIT)
 8002aea:	6a63      	ldr	r3, [r4, #36]	; 0x24
 8002aec:	2b00      	cmp	r3, #0
 8002aee:	d002      	beq.n	8002af6 <HAL_UART_Init+0x3e>
    UART_AdvFeatureConfig(huart);
 8002af0:	0020      	movs	r0, r4
 8002af2:	f7ff fe97 	bl	8002824 <UART_AdvFeatureConfig>
  CLEAR_BIT(huart->Instance->CR2, (USART_CR2_LINEN | USART_CR2_CLKEN));
 8002af6:	6823      	ldr	r3, [r4, #0]
 8002af8:	4907      	ldr	r1, [pc, #28]	; (8002b18 <HAL_UART_Init+0x60>)
 8002afa:	685a      	ldr	r2, [r3, #4]
  return (UART_CheckIdleState(huart));
 8002afc:	0020      	movs	r0, r4
  CLEAR_BIT(huart->Instance->CR2, (USART_CR2_LINEN | USART_CR2_CLKEN));
 8002afe:	400a      	ands	r2, r1
  CLEAR_BIT(huart->Instance->CR3, (USART_CR3_SCEN | USART_CR3_HDSEL | USART_CR3_IREN));
 8002b00:	212a      	movs	r1, #42	; 0x2a
  CLEAR_BIT(huart->Instance->CR2, (USART_CR2_LINEN | USART_CR2_CLKEN));
 8002b02:	605a      	str	r2, [r3, #4]
  CLEAR_BIT(huart->Instance->CR3, (USART_CR3_SCEN | USART_CR3_HDSEL | USART_CR3_IREN));
 8002b04:	689a      	ldr	r2, [r3, #8]
 8002b06:	438a      	bics	r2, r1
 8002b08:	609a      	str	r2, [r3, #8]
  __HAL_UART_ENABLE(huart);
 8002b0a:	2201      	movs	r2, #1
 8002b0c:	6819      	ldr	r1, [r3, #0]
 8002b0e:	430a      	orrs	r2, r1
 8002b10:	601a      	str	r2, [r3, #0]
  return (UART_CheckIdleState(huart));
 8002b12:	f7ff ffa1 	bl	8002a58 <UART_CheckIdleState>
 8002b16:	e7d3      	b.n	8002ac0 <HAL_UART_Init+0x8>
 8002b18:	ffffb7ff 	.word	0xffffb7ff

08002b1c <disk_status>:
	BYTE pdrv		/* Physical drive nmuber to identify the drive */
)
{
  DSTATUS stat;
  
  stat = disk.drv[pdrv]->disk_status(disk.lun[pdrv]);
 8002b1c:	4b05      	ldr	r3, [pc, #20]	; (8002b34 <disk_status+0x18>)
{
 8002b1e:	b510      	push	{r4, lr}
  stat = disk.drv[pdrv]->disk_status(disk.lun[pdrv]);
 8002b20:	181a      	adds	r2, r3, r0
 8002b22:	0080      	lsls	r0, r0, #2
 8002b24:	181b      	adds	r3, r3, r0
 8002b26:	7a11      	ldrb	r1, [r2, #8]
 8002b28:	685b      	ldr	r3, [r3, #4]
 8002b2a:	0008      	movs	r0, r1
 8002b2c:	685b      	ldr	r3, [r3, #4]
 8002b2e:	4798      	blx	r3
  return stat;
}
 8002b30:	bd10      	pop	{r4, pc}
 8002b32:	46c0      	nop			; (mov r8, r8)
 8002b34:	200002c4 	.word	0x200002c4

08002b38 <disk_initialize>:
	BYTE pdrv				/* Physical drive nmuber to identify the drive */
)
{
  DSTATUS stat = RES_OK;
  
  if(disk.is_initialized[pdrv] == 0)
 8002b38:	4b08      	ldr	r3, [pc, #32]	; (8002b5c <disk_initialize+0x24>)
{
 8002b3a:	0002      	movs	r2, r0
  if(disk.is_initialized[pdrv] == 0)
 8002b3c:	5c19      	ldrb	r1, [r3, r0]
  DSTATUS stat = RES_OK;
 8002b3e:	2000      	movs	r0, #0
{
 8002b40:	b510      	push	{r4, lr}
  if(disk.is_initialized[pdrv] == 0)
 8002b42:	4281      	cmp	r1, r0
 8002b44:	d108      	bne.n	8002b58 <disk_initialize+0x20>
  { 
    disk.is_initialized[pdrv] = 1;
 8002b46:	2101      	movs	r1, #1
 8002b48:	5499      	strb	r1, [r3, r2]
    stat = disk.drv[pdrv]->disk_initialize(disk.lun[pdrv]);
 8002b4a:	1899      	adds	r1, r3, r2
 8002b4c:	0092      	lsls	r2, r2, #2
 8002b4e:	189b      	adds	r3, r3, r2
 8002b50:	685b      	ldr	r3, [r3, #4]
 8002b52:	7a08      	ldrb	r0, [r1, #8]
 8002b54:	681b      	ldr	r3, [r3, #0]
 8002b56:	4798      	blx	r3
  }
  return stat;
}
 8002b58:	bd10      	pop	{r4, pc}
 8002b5a:	46c0      	nop			; (mov r8, r8)
 8002b5c:	200002c4 	.word	0x200002c4

08002b60 <disk_read>:
	BYTE pdrv,		/* Physical drive nmuber to identify the drive */
	BYTE *buff,		/* Data buffer to store read data */
	DWORD sector,	        /* Sector address in LBA */
	UINT count		/* Number of sectors to read */
)
{
 8002b60:	b570      	push	{r4, r5, r6, lr}
  DRESULT res;
 
  res = disk.drv[pdrv]->disk_read(disk.lun[pdrv], buff, sector, count);
 8002b62:	4c05      	ldr	r4, [pc, #20]	; (8002b78 <disk_read+0x18>)
 8002b64:	1825      	adds	r5, r4, r0
 8002b66:	0080      	lsls	r0, r0, #2
 8002b68:	1824      	adds	r4, r4, r0
 8002b6a:	7a2e      	ldrb	r6, [r5, #8]
 8002b6c:	6860      	ldr	r0, [r4, #4]
 8002b6e:	6884      	ldr	r4, [r0, #8]
 8002b70:	0030      	movs	r0, r6
 8002b72:	47a0      	blx	r4
  return res;
}
 8002b74:	bd70      	pop	{r4, r5, r6, pc}
 8002b76:	46c0      	nop			; (mov r8, r8)
 8002b78:	200002c4 	.word	0x200002c4

08002b7c <disk_write>:
	BYTE pdrv,		/* Physical drive nmuber to identify the drive */
	const BYTE *buff,	/* Data to be written */
	DWORD sector,		/* Sector address in LBA */
	UINT count        	/* Number of sectors to write */
)
{
 8002b7c:	b570      	push	{r4, r5, r6, lr}
  DRESULT res;
  
  res = disk.drv[pdrv]->disk_write(disk.lun[pdrv], buff, sector, count);
 8002b7e:	4c05      	ldr	r4, [pc, #20]	; (8002b94 <disk_write+0x18>)
 8002b80:	1825      	adds	r5, r4, r0
 8002b82:	0080      	lsls	r0, r0, #2
 8002b84:	1824      	adds	r4, r4, r0
 8002b86:	7a2e      	ldrb	r6, [r5, #8]
 8002b88:	6860      	ldr	r0, [r4, #4]
 8002b8a:	68c4      	ldr	r4, [r0, #12]
 8002b8c:	0030      	movs	r0, r6
 8002b8e:	47a0      	blx	r4
  return res;
}
 8002b90:	bd70      	pop	{r4, r5, r6, pc}
 8002b92:	46c0      	nop			; (mov r8, r8)
 8002b94:	200002c4 	.word	0x200002c4

08002b98 <disk_ioctl>:
	void *buff		/* Buffer to send/receive control data */
)
{
  DRESULT res;

  res = disk.drv[pdrv]->disk_ioctl(disk.lun[pdrv], cmd, buff);
 8002b98:	4b05      	ldr	r3, [pc, #20]	; (8002bb0 <disk_ioctl+0x18>)
{
 8002b9a:	b570      	push	{r4, r5, r6, lr}
  res = disk.drv[pdrv]->disk_ioctl(disk.lun[pdrv], cmd, buff);
 8002b9c:	181c      	adds	r4, r3, r0
 8002b9e:	0080      	lsls	r0, r0, #2
 8002ba0:	181b      	adds	r3, r3, r0
 8002ba2:	7a25      	ldrb	r5, [r4, #8]
 8002ba4:	685b      	ldr	r3, [r3, #4]
 8002ba6:	0028      	movs	r0, r5
 8002ba8:	691b      	ldr	r3, [r3, #16]
 8002baa:	4798      	blx	r3
  return res;
}
 8002bac:	bd70      	pop	{r4, r5, r6, pc}
 8002bae:	46c0      	nop			; (mov r8, r8)
 8002bb0:	200002c4 	.word	0x200002c4

08002bb4 <mem_cpy>:
		*(int*)d = *(int*)s;
		d += sizeof (int); s += sizeof (int);
		cnt -= sizeof (int);
	}
#endif
	while (cnt--)
 8002bb4:	2300      	movs	r3, #0
void mem_cpy (void* dst, const void* src, UINT cnt) {
 8002bb6:	b510      	push	{r4, lr}
	while (cnt--)
 8002bb8:	429a      	cmp	r2, r3
 8002bba:	d100      	bne.n	8002bbe <mem_cpy+0xa>
		*d++ = *s++;
}
 8002bbc:	bd10      	pop	{r4, pc}
		*d++ = *s++;
 8002bbe:	5ccc      	ldrb	r4, [r1, r3]
 8002bc0:	54c4      	strb	r4, [r0, r3]
 8002bc2:	3301      	adds	r3, #1
 8002bc4:	e7f8      	b.n	8002bb8 <mem_cpy+0x4>

08002bc6 <mem_set>:

/* Fill memory */
static
void mem_set (void* dst, int val, UINT cnt) {
 8002bc6:	1882      	adds	r2, r0, r2
	BYTE *d = (BYTE*)dst;

	while (cnt--)
 8002bc8:	4290      	cmp	r0, r2
 8002bca:	d100      	bne.n	8002bce <mem_set+0x8>
		*d++ = (BYTE)val;
}
 8002bcc:	4770      	bx	lr
		*d++ = (BYTE)val;
 8002bce:	7001      	strb	r1, [r0, #0]
 8002bd0:	3001      	adds	r0, #1
 8002bd2:	e7f9      	b.n	8002bc8 <mem_set+0x2>

08002bd4 <chk_lock>:
static
FRESULT chk_lock (	/* Check if the file can be accessed */
	DIR* dp,		/* Directory object pointing the file to be checked */
	int acc			/* Desired access type (0:Read, 1:Write, 2:Delete/Rename) */
)
{
 8002bd4:	b5f0      	push	{r4, r5, r6, r7, lr}
	UINT i, be;

	/* Search file semaphore table */
	for (i = be = 0; i < _FS_LOCK; i++) {
 8002bd6:	2400      	movs	r4, #0
		if (Files[i].fs) {	/* Existing entry */
			if (Files[i].fs == dp->fs &&	 	/* Check if the object matched with an open object */
 8002bd8:	2580      	movs	r5, #128	; 0x80
	for (i = be = 0; i < _FS_LOCK; i++) {
 8002bda:	0022      	movs	r2, r4
 8002bdc:	4b16      	ldr	r3, [pc, #88]	; (8002c38 <chk_lock+0x64>)
			if (Files[i].fs == dp->fs &&	 	/* Check if the object matched with an open object */
 8002bde:	00ed      	lsls	r5, r5, #3
		if (Files[i].fs) {	/* Existing entry */
 8002be0:	681f      	ldr	r7, [r3, #0]
 8002be2:	2f00      	cmp	r7, #0
 8002be4:	d01c      	beq.n	8002c20 <chk_lock+0x4c>
			if (Files[i].fs == dp->fs &&	 	/* Check if the object matched with an open object */
 8002be6:	5946      	ldr	r6, [r0, r5]
 8002be8:	42b7      	cmp	r7, r6
 8002bea:	d11a      	bne.n	8002c22 <chk_lock+0x4e>
 8002bec:	2781      	movs	r7, #129	; 0x81
 8002bee:	00ff      	lsls	r7, r7, #3
 8002bf0:	685e      	ldr	r6, [r3, #4]
 8002bf2:	59c7      	ldr	r7, [r0, r7]
 8002bf4:	42be      	cmp	r6, r7
 8002bf6:	d114      	bne.n	8002c22 <chk_lock+0x4e>
				Files[i].clu == dp->sclust &&
 8002bf8:	891e      	ldrh	r6, [r3, #8]
 8002bfa:	46b4      	mov	ip, r6
 8002bfc:	4e0f      	ldr	r6, [pc, #60]	; (8002c3c <chk_lock+0x68>)
 8002bfe:	5b87      	ldrh	r7, [r0, r6]
 8002c00:	45bc      	cmp	ip, r7
 8002c02:	d10e      	bne.n	8002c22 <chk_lock+0x4e>
	}
	if (i == _FS_LOCK)	/* The object is not opened */
		return (be || acc == 2) ? FR_OK : FR_TOO_MANY_OPEN_FILES;	/* Is there a blank entry for new object? */

	/* The object has been opened. Reject any open against writing file and all write mode open */
	return (acc || Files[i].ctr == 0x100) ? FR_LOCKED : FR_OK;
 8002c04:	2010      	movs	r0, #16
 8002c06:	2900      	cmp	r1, #0
 8002c08:	d115      	bne.n	8002c36 <chk_lock+0x62>
 8002c0a:	230c      	movs	r3, #12
 8002c0c:	435a      	muls	r2, r3
 8002c0e:	4b0a      	ldr	r3, [pc, #40]	; (8002c38 <chk_lock+0x64>)
 8002c10:	189a      	adds	r2, r3, r2
 8002c12:	8950      	ldrh	r0, [r2, #10]
 8002c14:	3801      	subs	r0, #1
 8002c16:	38ff      	subs	r0, #255	; 0xff
 8002c18:	4242      	negs	r2, r0
 8002c1a:	4142      	adcs	r2, r0
 8002c1c:	0110      	lsls	r0, r2, #4
 8002c1e:	e00a      	b.n	8002c36 <chk_lock+0x62>
			be = 1;
 8002c20:	2401      	movs	r4, #1
	for (i = be = 0; i < _FS_LOCK; i++) {
 8002c22:	3201      	adds	r2, #1
 8002c24:	330c      	adds	r3, #12
 8002c26:	2a02      	cmp	r2, #2
 8002c28:	d1da      	bne.n	8002be0 <chk_lock+0xc>
	return (acc || Files[i].ctr == 0x100) ? FR_LOCKED : FR_OK;
 8002c2a:	2000      	movs	r0, #0
		return (be || acc == 2) ? FR_OK : FR_TOO_MANY_OPEN_FILES;	/* Is there a blank entry for new object? */
 8002c2c:	4284      	cmp	r4, r0
 8002c2e:	d102      	bne.n	8002c36 <chk_lock+0x62>
 8002c30:	2902      	cmp	r1, #2
 8002c32:	d000      	beq.n	8002c36 <chk_lock+0x62>
 8002c34:	2012      	movs	r0, #18
}
 8002c36:	bdf0      	pop	{r4, r5, r6, r7, pc}
 8002c38:	200000a8 	.word	0x200000a8
 8002c3c:	00000406 	.word	0x00000406

08002c40 <inc_lock>:
{
	UINT i;


	for (i = 0; i < _FS_LOCK; i++) {	/* Find the object */
		if (Files[i].fs == dp->fs &&
 8002c40:	2380      	movs	r3, #128	; 0x80
{
 8002c42:	b5f0      	push	{r4, r5, r6, r7, lr}
 8002c44:	4c24      	ldr	r4, [pc, #144]	; (8002cd8 <inc_lock+0x98>)
		if (Files[i].fs == dp->fs &&
 8002c46:	00db      	lsls	r3, r3, #3
			Files[i].clu == dp->sclust &&
 8002c48:	2581      	movs	r5, #129	; 0x81
		if (Files[i].fs == dp->fs &&
 8002c4a:	58c6      	ldr	r6, [r0, r3]
 8002c4c:	0022      	movs	r2, r4
	for (i = 0; i < _FS_LOCK; i++) {	/* Find the object */
 8002c4e:	2300      	movs	r3, #0
			Files[i].clu == dp->sclust &&
 8002c50:	00ed      	lsls	r5, r5, #3
		if (Files[i].fs == dp->fs &&
 8002c52:	6827      	ldr	r7, [r4, #0]
 8002c54:	42b7      	cmp	r7, r6
 8002c56:	d10a      	bne.n	8002c6e <inc_lock+0x2e>
 8002c58:	6867      	ldr	r7, [r4, #4]
 8002c5a:	46bc      	mov	ip, r7
 8002c5c:	5947      	ldr	r7, [r0, r5]
 8002c5e:	45bc      	cmp	ip, r7
 8002c60:	d105      	bne.n	8002c6e <inc_lock+0x2e>
			Files[i].clu == dp->sclust &&
 8002c62:	8927      	ldrh	r7, [r4, #8]
 8002c64:	46bc      	mov	ip, r7
 8002c66:	4f1d      	ldr	r7, [pc, #116]	; (8002cdc <inc_lock+0x9c>)
 8002c68:	5bc7      	ldrh	r7, [r0, r7]
 8002c6a:	45bc      	cmp	ip, r7
 8002c6c:	d027      	beq.n	8002cbe <inc_lock+0x7e>
	for (i = 0; i < _FS_LOCK; i++) {	/* Find the object */
 8002c6e:	3301      	adds	r3, #1
 8002c70:	340c      	adds	r4, #12
 8002c72:	2b02      	cmp	r3, #2
 8002c74:	d1ed      	bne.n	8002c52 <inc_lock+0x12>
			Files[i].idx == dp->index) break;
	}

	if (i == _FS_LOCK) {				/* Not opened. Register it as new. */
		for (i = 0; i < _FS_LOCK && Files[i].fs; i++) ;
 8002c76:	6813      	ldr	r3, [r2, #0]
 8002c78:	2b00      	cmp	r3, #0
 8002c7a:	d004      	beq.n	8002c86 <inc_lock+0x46>
		if (i == _FS_LOCK) return 0;	/* No free entry to register (int err) */
 8002c7c:	2400      	movs	r4, #0
		for (i = 0; i < _FS_LOCK && Files[i].fs; i++) ;
 8002c7e:	68d3      	ldr	r3, [r2, #12]
 8002c80:	42a3      	cmp	r3, r4
 8002c82:	d11a      	bne.n	8002cba <inc_lock+0x7a>
 8002c84:	2301      	movs	r3, #1
		Files[i].fs = dp->fs;
 8002c86:	240c      	movs	r4, #12
		Files[i].clu = dp->sclust;
 8002c88:	2581      	movs	r5, #129	; 0x81
		Files[i].fs = dp->fs;
 8002c8a:	435c      	muls	r4, r3
		Files[i].clu = dp->sclust;
 8002c8c:	00ed      	lsls	r5, r5, #3
 8002c8e:	5945      	ldr	r5, [r0, r5]
		Files[i].fs = dp->fs;
 8002c90:	5116      	str	r6, [r2, r4]
		Files[i].clu = dp->sclust;
 8002c92:	1914      	adds	r4, r2, r4
 8002c94:	6065      	str	r5, [r4, #4]
		Files[i].idx = dp->index;
 8002c96:	4d11      	ldr	r5, [pc, #68]	; (8002cdc <inc_lock+0x9c>)
 8002c98:	5b40      	ldrh	r0, [r0, r5]
 8002c9a:	8120      	strh	r0, [r4, #8]
		Files[i].ctr = 0;
 8002c9c:	2000      	movs	r0, #0
 8002c9e:	8160      	strh	r0, [r4, #10]
	}

	if (acc && Files[i].ctr) return 0;	/* Access violation (int err) */
 8002ca0:	4281      	cmp	r1, r0
 8002ca2:	d115      	bne.n	8002cd0 <inc_lock+0x90>

	Files[i].ctr = acc ? 0x100 : Files[i].ctr + 1;	/* Set semaphore value */
 8002ca4:	210c      	movs	r1, #12
 8002ca6:	4359      	muls	r1, r3
 8002ca8:	1851      	adds	r1, r2, r1
 8002caa:	8949      	ldrh	r1, [r1, #10]
 8002cac:	3101      	adds	r1, #1
 8002cae:	b289      	uxth	r1, r1
 8002cb0:	200c      	movs	r0, #12
 8002cb2:	4358      	muls	r0, r3
 8002cb4:	1812      	adds	r2, r2, r0
 8002cb6:	8151      	strh	r1, [r2, #10]

	return i + 1;
 8002cb8:	1c5c      	adds	r4, r3, #1
}
 8002cba:	0020      	movs	r0, r4
 8002cbc:	bdf0      	pop	{r4, r5, r6, r7, pc}
	if (acc && Files[i].ctr) return 0;	/* Access violation (int err) */
 8002cbe:	2900      	cmp	r1, #0
 8002cc0:	d0f0      	beq.n	8002ca4 <inc_lock+0x64>
 8002cc2:	210c      	movs	r1, #12
		if (i == _FS_LOCK) return 0;	/* No free entry to register (int err) */
 8002cc4:	2400      	movs	r4, #0
	if (acc && Files[i].ctr) return 0;	/* Access violation (int err) */
 8002cc6:	4359      	muls	r1, r3
 8002cc8:	1851      	adds	r1, r2, r1
 8002cca:	8949      	ldrh	r1, [r1, #10]
 8002ccc:	42a1      	cmp	r1, r4
 8002cce:	d1f4      	bne.n	8002cba <inc_lock+0x7a>
	Files[i].ctr = acc ? 0x100 : Files[i].ctr + 1;	/* Set semaphore value */
 8002cd0:	2180      	movs	r1, #128	; 0x80
 8002cd2:	0049      	lsls	r1, r1, #1
 8002cd4:	e7ec      	b.n	8002cb0 <inc_lock+0x70>
 8002cd6:	46c0      	nop			; (mov r8, r8)
 8002cd8:	200000a8 	.word	0x200000a8
 8002cdc:	00000406 	.word	0x00000406

08002ce0 <dec_lock>:
{
	WORD n;
	FRESULT res;


	if (--i < _FS_LOCK) {	/* Shift index number origin from 0 */
 8002ce0:	1e41      	subs	r1, r0, #1
{
 8002ce2:	b510      	push	{r4, lr}
		if (n) n--;					/* Decrement read mode open count */
		Files[i].ctr = n;
		if (!n) Files[i].fs = 0;	/* Delete the entry if open count gets zero */
		res = FR_OK;
	} else {
		res = FR_INT_ERR;			/* Invalid index nunber */
 8002ce4:	2002      	movs	r0, #2
	if (--i < _FS_LOCK) {	/* Shift index number origin from 0 */
 8002ce6:	2901      	cmp	r1, #1
 8002ce8:	d811      	bhi.n	8002d0e <dec_lock+0x2e>
		n = Files[i].ctr;
 8002cea:	230c      	movs	r3, #12
 8002cec:	001a      	movs	r2, r3
 8002cee:	434a      	muls	r2, r1
 8002cf0:	4c07      	ldr	r4, [pc, #28]	; (8002d10 <dec_lock+0x30>)
 8002cf2:	18a2      	adds	r2, r4, r2
 8002cf4:	8950      	ldrh	r0, [r2, #10]
		if (n) n--;					/* Decrement read mode open count */
 8002cf6:	4a07      	ldr	r2, [pc, #28]	; (8002d14 <dec_lock+0x34>)
 8002cf8:	4002      	ands	r2, r0
 8002cfa:	d001      	beq.n	8002d00 <dec_lock+0x20>
 8002cfc:	3801      	subs	r0, #1
 8002cfe:	b282      	uxth	r2, r0
		res = FR_OK;
 8002d00:	2000      	movs	r0, #0
		Files[i].ctr = n;
 8002d02:	434b      	muls	r3, r1
 8002d04:	18e1      	adds	r1, r4, r3
 8002d06:	814a      	strh	r2, [r1, #10]
		if (!n) Files[i].fs = 0;	/* Delete the entry if open count gets zero */
 8002d08:	4282      	cmp	r2, r0
 8002d0a:	d100      	bne.n	8002d0e <dec_lock+0x2e>
 8002d0c:	50e0      	str	r0, [r4, r3]
	}
	return res;
}
 8002d0e:	bd10      	pop	{r4, pc}
 8002d10:	200000a8 	.word	0x200000a8
 8002d14:	fffffeff 	.word	0xfffffeff

08002d18 <clmt_clust>:
static
DWORD clmt_clust (	/* <2:Error, >=2:Cluster number */
	FIL* fp,		/* Pointer to the file object */
	DWORD ofs		/* File offset to be converted to cluster# */
)
{
 8002d18:	0003      	movs	r3, r0
 8002d1a:	b570      	push	{r4, r5, r6, lr}
	DWORD cl, ncl, *tbl;


	tbl = fp->cltbl + 1;	/* Top of CLMT */
 8002d1c:	4a0c      	ldr	r2, [pc, #48]	; (8002d50 <clmt_clust+0x38>)
{
 8002d1e:	0008      	movs	r0, r1
	tbl = fp->cltbl + 1;	/* Top of CLMT */
 8002d20:	589c      	ldr	r4, [r3, r2]
	cl = ofs / SS(fp->fs) / fp->fs->csize;	/* Cluster order from top of the file */
 8002d22:	3a24      	subs	r2, #36	; 0x24
 8002d24:	589d      	ldr	r5, [r3, r2]
 8002d26:	4b0b      	ldr	r3, [pc, #44]	; (8002d54 <clmt_clust+0x3c>)
	tbl = fp->cltbl + 1;	/* Top of CLMT */
 8002d28:	3404      	adds	r4, #4
	cl = ofs / SS(fp->fs) / fp->fs->csize;	/* Cluster order from top of the file */
 8002d2a:	5ae9      	ldrh	r1, [r5, r3]
 8002d2c:	f7fd fa08 	bl	8000140 <__udivsi3>
 8002d30:	4b09      	ldr	r3, [pc, #36]	; (8002d58 <clmt_clust+0x40>)
 8002d32:	5ce9      	ldrb	r1, [r5, r3]
 8002d34:	f7fd fa04 	bl	8000140 <__udivsi3>
 8002d38:	0002      	movs	r2, r0
	for (;;) {
		ncl = *tbl++;			/* Number of cluters in the fragment */
 8002d3a:	6820      	ldr	r0, [r4, #0]
		if (!ncl) return 0;		/* End of table? (error) */
 8002d3c:	2800      	cmp	r0, #0
 8002d3e:	d006      	beq.n	8002d4e <clmt_clust+0x36>
		if (cl < ncl) break;	/* In this fragment? */
 8002d40:	4282      	cmp	r2, r0
 8002d42:	d302      	bcc.n	8002d4a <clmt_clust+0x32>
		cl -= ncl; tbl++;		/* Next fragment */
 8002d44:	1a12      	subs	r2, r2, r0
 8002d46:	3408      	adds	r4, #8
		ncl = *tbl++;			/* Number of cluters in the fragment */
 8002d48:	e7f7      	b.n	8002d3a <clmt_clust+0x22>
	}
	return cl + *tbl;	/* Return the cluster number */
 8002d4a:	6860      	ldr	r0, [r4, #4]
 8002d4c:	1810      	adds	r0, r2, r0
}
 8002d4e:	bd70      	pop	{r4, r5, r6, pc}
 8002d50:	00000424 	.word	0x00000424
 8002d54:	0000040a 	.word	0x0000040a
 8002d58:	00000402 	.word	0x00000402

08002d5c <sum_sfn>:
#if _USE_LFN
static
BYTE sum_sfn (
	const BYTE* dir		/* Pointer to the SFN entry */
)
{
 8002d5c:	0001      	movs	r1, r0
	BYTE sum = 0;
 8002d5e:	2300      	movs	r3, #0
 8002d60:	310b      	adds	r1, #11
	UINT n = 11;

	do sum = (sum >> 1) + (sum << 7) + *dir++; while (--n);
 8002d62:	085a      	lsrs	r2, r3, #1
 8002d64:	01db      	lsls	r3, r3, #7
 8002d66:	4313      	orrs	r3, r2
 8002d68:	7802      	ldrb	r2, [r0, #0]
 8002d6a:	3001      	adds	r0, #1
 8002d6c:	189b      	adds	r3, r3, r2
 8002d6e:	b2db      	uxtb	r3, r3
 8002d70:	4288      	cmp	r0, r1
 8002d72:	d1f6      	bne.n	8002d62 <sum_sfn+0x6>
	return sum;
}
 8002d74:	0018      	movs	r0, r3
 8002d76:	4770      	bx	lr

08002d78 <get_ldnumber>:
	char c;
	TCHAR tc;
#endif


	if (*path) {	/* If the pointer is not a null */
 8002d78:	6802      	ldr	r2, [r0, #0]
 8002d7a:	1e13      	subs	r3, r2, #0
 8002d7c:	d103      	bne.n	8002d86 <get_ldnumber+0xe>
	int vol = -1;
 8002d7e:	2001      	movs	r0, #1
 8002d80:	4240      	negs	r0, r0
 8002d82:	e00e      	b.n	8002da2 <get_ldnumber+0x2a>
		for (tt = *path; (UINT)*tt >= (_USE_LFN ? ' ' : '!') && *tt != ':'; tt++) ;	/* Find ':' in the path */
 8002d84:	3301      	adds	r3, #1
 8002d86:	7819      	ldrb	r1, [r3, #0]
 8002d88:	291f      	cmp	r1, #31
 8002d8a:	d909      	bls.n	8002da0 <get_ldnumber+0x28>
 8002d8c:	293a      	cmp	r1, #58	; 0x3a
 8002d8e:	d1f9      	bne.n	8002d84 <get_ldnumber+0xc>
		if (*tt == ':') {	/* If a ':' is exist in the path name */
			tp = *path;
			i = *tp++ - '0'; 
 8002d90:	1c51      	adds	r1, r2, #1
			if (i < 10 && tp == tt) {	/* Is there a numeric drive id? */
 8002d92:	428b      	cmp	r3, r1
 8002d94:	d1f3      	bne.n	8002d7e <get_ldnumber+0x6>
				if (i < _VOLUMES) {	/* If a drive id is found, get the value and strip it */
 8002d96:	7812      	ldrb	r2, [r2, #0]
 8002d98:	2a30      	cmp	r2, #48	; 0x30
 8002d9a:	d1f0      	bne.n	8002d7e <get_ldnumber+0x6>
					vol = (int)i;
					*path = ++tt;
 8002d9c:	3301      	adds	r3, #1
 8002d9e:	6003      	str	r3, [r0, #0]
			return vol;
		}
#if _FS_RPATH && _VOLUMES >= 2
		vol = CurrVol;	/* Current drive */
#else
		vol = 0;		/* Drive 0 */
 8002da0:	2000      	movs	r0, #0
#endif
	}
	return vol;
}
 8002da2:	4770      	bx	lr

08002da4 <validate>:

static
FRESULT validate (	/* FR_OK(0): The object is valid, !=0: Invalid */
	void* obj		/* Pointer to the object FIL/DIR to check validity */
)
{
 8002da4:	b510      	push	{r4, lr}
	FIL *fil = (FIL*)obj;	/* Assuming offset of .fs and .id in the FIL/DIR structure is identical */


	if (!fil || !fil->fs || !fil->fs->fs_type || fil->fs->id != fil->id || (disk_status(fil->fs->drv) & STA_NOINIT))
 8002da6:	2800      	cmp	r0, #0
 8002da8:	d015      	beq.n	8002dd6 <validate+0x32>
 8002daa:	2280      	movs	r2, #128	; 0x80
 8002dac:	00d2      	lsls	r2, r2, #3
 8002dae:	5883      	ldr	r3, [r0, r2]
 8002db0:	2b00      	cmp	r3, #0
 8002db2:	d010      	beq.n	8002dd6 <validate+0x32>
 8002db4:	5c9a      	ldrb	r2, [r3, r2]
 8002db6:	2a00      	cmp	r2, #0
 8002db8:	d00d      	beq.n	8002dd6 <validate+0x32>
 8002dba:	4a08      	ldr	r2, [pc, #32]	; (8002ddc <validate+0x38>)
 8002dbc:	5a99      	ldrh	r1, [r3, r2]
 8002dbe:	4a08      	ldr	r2, [pc, #32]	; (8002de0 <validate+0x3c>)
 8002dc0:	5a82      	ldrh	r2, [r0, r2]
 8002dc2:	4291      	cmp	r1, r2
 8002dc4:	d107      	bne.n	8002dd6 <validate+0x32>
 8002dc6:	4a07      	ldr	r2, [pc, #28]	; (8002de4 <validate+0x40>)
 8002dc8:	5c98      	ldrb	r0, [r3, r2]
 8002dca:	f7ff fea7 	bl	8002b1c <disk_status>
 8002dce:	2301      	movs	r3, #1
 8002dd0:	4003      	ands	r3, r0
		return FR_INVALID_OBJECT;

	ENTER_FF(fil->fs);		/* Lock file system */

	return FR_OK;
 8002dd2:	1e18      	subs	r0, r3, #0
	if (!fil || !fil->fs || !fil->fs->fs_type || fil->fs->id != fil->id || (disk_status(fil->fs->drv) & STA_NOINIT))
 8002dd4:	d000      	beq.n	8002dd8 <validate+0x34>
		return FR_INVALID_OBJECT;
 8002dd6:	2009      	movs	r0, #9
}
 8002dd8:	bd10      	pop	{r4, pc}
 8002dda:	46c0      	nop			; (mov r8, r8)
 8002ddc:	00000406 	.word	0x00000406
 8002de0:	00000404 	.word	0x00000404
 8002de4:	00000401 	.word	0x00000401

08002de8 <get_fileinfo>:
{
 8002de8:	b5f8      	push	{r3, r4, r5, r6, r7, lr}
	if (dp->sect) {		/* Get SFN */
 8002dea:	2382      	movs	r3, #130	; 0x82
 8002dec:	00db      	lsls	r3, r3, #3
 8002dee:	58c3      	ldr	r3, [r0, r3]
{
 8002df0:	000c      	movs	r4, r1
	p = fno->fname;
 8002df2:	3109      	adds	r1, #9
	if (dp->sect) {		/* Get SFN */
 8002df4:	2b00      	cmp	r3, #0
 8002df6:	d038      	beq.n	8002e6a <get_fileinfo+0x82>
		i = 0;
 8002df8:	2200      	movs	r2, #0
		dir = dp->dir;
 8002dfa:	4b33      	ldr	r3, [pc, #204]	; (8002ec8 <get_fileinfo+0xe0>)
 8002dfc:	58c3      	ldr	r3, [r0, r3]
			c = (TCHAR)dir[i++];
 8002dfe:	1c55      	adds	r5, r2, #1
 8002e00:	5c9a      	ldrb	r2, [r3, r2]
			if (c == ' ') continue;				/* Skip padding spaces */
 8002e02:	2a20      	cmp	r2, #32
 8002e04:	d017      	beq.n	8002e36 <get_fileinfo+0x4e>
			if (c == RDDEM) c = (TCHAR)DDEM;	/* Restore replaced DDEM character */
 8002e06:	2a05      	cmp	r2, #5
 8002e08:	d059      	beq.n	8002ebe <get_fileinfo+0xd6>
			if (i == 9) *p++ = '.';				/* Insert a . if extension is exist */
 8002e0a:	2d09      	cmp	r5, #9
 8002e0c:	d102      	bne.n	8002e14 <get_fileinfo+0x2c>
 8002e0e:	272e      	movs	r7, #46	; 0x2e
 8002e10:	700f      	strb	r7, [r1, #0]
 8002e12:	3101      	adds	r1, #1
			if (IsUpper(c) && (dir[DIR_NTres] & (i >= 9 ? NS_EXT : NS_BODY)))
 8002e14:	0017      	movs	r7, r2
 8002e16:	3f41      	subs	r7, #65	; 0x41
 8002e18:	2f19      	cmp	r7, #25
 8002e1a:	d80a      	bhi.n	8002e32 <get_fileinfo+0x4a>
 8002e1c:	7b1f      	ldrb	r7, [r3, #12]
 8002e1e:	46bc      	mov	ip, r7
 8002e20:	2710      	movs	r7, #16
 8002e22:	2d08      	cmp	r5, #8
 8002e24:	d800      	bhi.n	8002e28 <get_fileinfo+0x40>
 8002e26:	3f08      	subs	r7, #8
 8002e28:	4666      	mov	r6, ip
 8002e2a:	423e      	tst	r6, r7
 8002e2c:	d001      	beq.n	8002e32 <get_fileinfo+0x4a>
				c += 0x20;			/* To lower */
 8002e2e:	3220      	adds	r2, #32
 8002e30:	b2d2      	uxtb	r2, r2
			*p++ = c;
 8002e32:	700a      	strb	r2, [r1, #0]
 8002e34:	3101      	adds	r1, #1
 8002e36:	002a      	movs	r2, r5
		while (i < 11) {		/* Copy name body and extension */
 8002e38:	2d0b      	cmp	r5, #11
 8002e3a:	d1e0      	bne.n	8002dfe <get_fileinfo+0x16>
		fno->fattrib = dir[DIR_Attr];				/* Attribute */
 8002e3c:	7ada      	ldrb	r2, [r3, #11]
 8002e3e:	7222      	strb	r2, [r4, #8]
		fno->fsize = LD_DWORD(dir + DIR_FileSize);	/* Size */
 8002e40:	7f5d      	ldrb	r5, [r3, #29]
 8002e42:	7f1a      	ldrb	r2, [r3, #28]
 8002e44:	022d      	lsls	r5, r5, #8
 8002e46:	4315      	orrs	r5, r2
 8002e48:	7f9a      	ldrb	r2, [r3, #30]
 8002e4a:	0412      	lsls	r2, r2, #16
 8002e4c:	4315      	orrs	r5, r2
 8002e4e:	7fda      	ldrb	r2, [r3, #31]
 8002e50:	0612      	lsls	r2, r2, #24
 8002e52:	432a      	orrs	r2, r5
 8002e54:	6022      	str	r2, [r4, #0]
		fno->fdate = LD_WORD(dir + DIR_WrtDate);	/* Date */
 8002e56:	7e5d      	ldrb	r5, [r3, #25]
 8002e58:	7e1a      	ldrb	r2, [r3, #24]
 8002e5a:	022d      	lsls	r5, r5, #8
 8002e5c:	432a      	orrs	r2, r5
 8002e5e:	80a2      	strh	r2, [r4, #4]
		fno->ftime = LD_WORD(dir + DIR_WrtTime);	/* Time */
 8002e60:	7dda      	ldrb	r2, [r3, #23]
 8002e62:	7d9b      	ldrb	r3, [r3, #22]
 8002e64:	0212      	lsls	r2, r2, #8
 8002e66:	4313      	orrs	r3, r2
 8002e68:	80e3      	strh	r3, [r4, #6]
	*p = 0;		/* Terminate SFN string by a \0 */
 8002e6a:	2500      	movs	r5, #0
 8002e6c:	700d      	strb	r5, [r1, #0]
	if (fno->lfname) {
 8002e6e:	69a6      	ldr	r6, [r4, #24]
 8002e70:	42ae      	cmp	r6, r5
 8002e72:	d007      	beq.n	8002e84 <get_fileinfo+0x9c>
		if (dp->sect && fno->lfsize && dp->lfn_idx != 0xFFFF) {	/* Get LFN if available */
 8002e74:	2382      	movs	r3, #130	; 0x82
 8002e76:	00db      	lsls	r3, r3, #3
 8002e78:	58c3      	ldr	r3, [r0, r3]
 8002e7a:	42ab      	cmp	r3, r5
 8002e7c:	d103      	bne.n	8002e86 <get_fileinfo+0x9e>
		i = 0; p = fno->lfname;
 8002e7e:	2300      	movs	r3, #0
		p[i] = 0;	/* Terminate LFN string by a \0 */
 8002e80:	2200      	movs	r2, #0
 8002e82:	54f2      	strb	r2, [r6, r3]
}
 8002e84:	bdf8      	pop	{r3, r4, r5, r6, r7, pc}
		if (dp->sect && fno->lfsize && dp->lfn_idx != 0xFFFF) {	/* Get LFN if available */
 8002e86:	69e3      	ldr	r3, [r4, #28]
 8002e88:	2b00      	cmp	r3, #0
 8002e8a:	d0f8      	beq.n	8002e7e <get_fileinfo+0x96>
 8002e8c:	4b0f      	ldr	r3, [pc, #60]	; (8002ecc <get_fileinfo+0xe4>)
 8002e8e:	5ac2      	ldrh	r2, [r0, r3]
 8002e90:	4b0f      	ldr	r3, [pc, #60]	; (8002ed0 <get_fileinfo+0xe8>)
 8002e92:	429a      	cmp	r2, r3
 8002e94:	d0f3      	beq.n	8002e7e <get_fileinfo+0x96>
			lfn = dp->lfn;
 8002e96:	2384      	movs	r3, #132	; 0x84
 8002e98:	00db      	lsls	r3, r3, #3
 8002e9a:	58c7      	ldr	r7, [r0, r3]
			while ((w = *lfn++) != 0) {		/* Get an LFN character */
 8002e9c:	006a      	lsls	r2, r5, #1
 8002e9e:	5ab8      	ldrh	r0, [r7, r2]
 8002ea0:	002b      	movs	r3, r5
 8002ea2:	2800      	cmp	r0, #0
 8002ea4:	d0ec      	beq.n	8002e80 <get_fileinfo+0x98>
				w = ff_convert(w, 0);		/* Unicode -> OEM */
 8002ea6:	2100      	movs	r1, #0
 8002ea8:	f001 fffa 	bl	8004ea0 <ff_convert>
				if (!w) { i = 0; break; }	/* No LFN if it could not be converted */
 8002eac:	2800      	cmp	r0, #0
 8002eae:	d0e6      	beq.n	8002e7e <get_fileinfo+0x96>
				if (i >= fno->lfsize - 1) { i = 0; break; }	/* No LFN if buffer overflow */
 8002eb0:	69e3      	ldr	r3, [r4, #28]
 8002eb2:	3b01      	subs	r3, #1
 8002eb4:	429d      	cmp	r5, r3
 8002eb6:	d2e2      	bcs.n	8002e7e <get_fileinfo+0x96>
				p[i++] = (TCHAR)w;
 8002eb8:	5570      	strb	r0, [r6, r5]
 8002eba:	3501      	adds	r5, #1
 8002ebc:	e7ee      	b.n	8002e9c <get_fileinfo+0xb4>
			if (c == RDDEM) c = (TCHAR)DDEM;	/* Restore replaced DDEM character */
 8002ebe:	22e5      	movs	r2, #229	; 0xe5
			if (i == 9) *p++ = '.';				/* Insert a . if extension is exist */
 8002ec0:	2d09      	cmp	r5, #9
 8002ec2:	d1b6      	bne.n	8002e32 <get_fileinfo+0x4a>
 8002ec4:	e7a3      	b.n	8002e0e <get_fileinfo+0x26>
 8002ec6:	46c0      	nop			; (mov r8, r8)
 8002ec8:	00000414 	.word	0x00000414
 8002ecc:	00000424 	.word	0x00000424
 8002ed0:	0000ffff 	.word	0x0000ffff

08002ed4 <ld_clust.isra.0>:
	cl = LD_WORD(dir + DIR_FstClusLO);
 8002ed4:	7eca      	ldrb	r2, [r1, #27]
DWORD ld_clust (
 8002ed6:	b510      	push	{r4, lr}
 8002ed8:	0004      	movs	r4, r0
	cl = LD_WORD(dir + DIR_FstClusLO);
 8002eda:	7e88      	ldrb	r0, [r1, #26]
 8002edc:	0212      	lsls	r2, r2, #8
 8002ede:	4310      	orrs	r0, r2
	if (fs->fs_type == FS_FAT32)
 8002ee0:	2c03      	cmp	r4, #3
 8002ee2:	d105      	bne.n	8002ef0 <ld_clust.isra.0+0x1c>
		cl |= (DWORD)LD_WORD(dir + DIR_FstClusHI) << 16;
 8002ee4:	7d4a      	ldrb	r2, [r1, #21]
 8002ee6:	7d0b      	ldrb	r3, [r1, #20]
 8002ee8:	0212      	lsls	r2, r2, #8
 8002eea:	4313      	orrs	r3, r2
 8002eec:	041b      	lsls	r3, r3, #16
 8002eee:	4318      	orrs	r0, r3
}
 8002ef0:	bd10      	pop	{r4, pc}
	...

08002ef4 <sync_window.part.1>:
FRESULT sync_window (
 8002ef4:	b5f7      	push	{r0, r1, r2, r4, r5, r6, r7, lr}
 8002ef6:	0004      	movs	r4, r0
		wsect = fs->winsect;	/* Current sector number */
 8002ef8:	4b13      	ldr	r3, [pc, #76]	; (8002f48 <sync_window.part.1+0x54>)
		if (disk_write(fs->drv, fs->win.d8, wsect, 1) != RES_OK) {
 8002efa:	4e14      	ldr	r6, [pc, #80]	; (8002f4c <sync_window.part.1+0x58>)
		wsect = fs->winsect;	/* Current sector number */
 8002efc:	58c5      	ldr	r5, [r0, r3]
		if (disk_write(fs->drv, fs->win.d8, wsect, 1) != RES_OK) {
 8002efe:	0021      	movs	r1, r4
 8002f00:	2301      	movs	r3, #1
 8002f02:	5d80      	ldrb	r0, [r0, r6]
 8002f04:	002a      	movs	r2, r5
 8002f06:	f7ff fe39 	bl	8002b7c <disk_write>
 8002f0a:	9601      	str	r6, [sp, #4]
			res = FR_DISK_ERR;
 8002f0c:	2301      	movs	r3, #1
		if (disk_write(fs->drv, fs->win.d8, wsect, 1) != RES_OK) {
 8002f0e:	2800      	cmp	r0, #0
 8002f10:	d109      	bne.n	8002f26 <sync_window.part.1+0x32>
			fs->wflag = 0;
 8002f12:	4b0f      	ldr	r3, [pc, #60]	; (8002f50 <sync_window.part.1+0x5c>)
			if (wsect - fs->fatbase < fs->fsize) {		/* Is it in the FAT area? */
 8002f14:	3617      	adds	r6, #23
			fs->wflag = 0;
 8002f16:	54e0      	strb	r0, [r4, r3]
			if (wsect - fs->fatbase < fs->fsize) {		/* Is it in the FAT area? */
 8002f18:	331c      	adds	r3, #28
 8002f1a:	58e3      	ldr	r3, [r4, r3]
 8002f1c:	59a2      	ldr	r2, [r4, r6]
 8002f1e:	1aeb      	subs	r3, r5, r3
 8002f20:	4293      	cmp	r3, r2
 8002f22:	d302      	bcc.n	8002f2a <sync_window.part.1+0x36>
	FRESULT res = FR_OK;
 8002f24:	2300      	movs	r3, #0
}
 8002f26:	0018      	movs	r0, r3
 8002f28:	bdfe      	pop	{r1, r2, r3, r4, r5, r6, r7, pc}
				for (nf = fs->n_fats; nf >= 2; nf--) {	/* Reflect the change to all FAT copies */
 8002f2a:	4b0a      	ldr	r3, [pc, #40]	; (8002f54 <sync_window.part.1+0x60>)
 8002f2c:	5ce7      	ldrb	r7, [r4, r3]
 8002f2e:	2f01      	cmp	r7, #1
 8002f30:	d9f8      	bls.n	8002f24 <sync_window.part.1+0x30>
					wsect += fs->fsize;
 8002f32:	59a3      	ldr	r3, [r4, r6]
					disk_write(fs->drv, fs->win.d8, wsect, 1);
 8002f34:	0021      	movs	r1, r4
					wsect += fs->fsize;
 8002f36:	18ed      	adds	r5, r5, r3
					disk_write(fs->drv, fs->win.d8, wsect, 1);
 8002f38:	9b01      	ldr	r3, [sp, #4]
 8002f3a:	002a      	movs	r2, r5
 8002f3c:	5ce0      	ldrb	r0, [r4, r3]
 8002f3e:	2301      	movs	r3, #1
 8002f40:	f7ff fe1c 	bl	8002b7c <disk_write>
				for (nf = fs->n_fats; nf >= 2; nf--) {	/* Reflect the change to all FAT copies */
 8002f44:	3f01      	subs	r7, #1
 8002f46:	e7f2      	b.n	8002f2e <sync_window.part.1+0x3a>
 8002f48:	0000042c 	.word	0x0000042c
 8002f4c:	00000401 	.word	0x00000401
 8002f50:	00000404 	.word	0x00000404
 8002f54:	00000403 	.word	0x00000403

08002f58 <sync_window>:
{
 8002f58:	b510      	push	{r4, lr}
	if (fs->wflag) {	/* Write back the sector if it is dirty */
 8002f5a:	4b05      	ldr	r3, [pc, #20]	; (8002f70 <sync_window+0x18>)
 8002f5c:	5cc2      	ldrb	r2, [r0, r3]
	FRESULT res = FR_OK;
 8002f5e:	2300      	movs	r3, #0
	if (fs->wflag) {	/* Write back the sector if it is dirty */
 8002f60:	429a      	cmp	r2, r3
 8002f62:	d002      	beq.n	8002f6a <sync_window+0x12>
 8002f64:	f7ff ffc6 	bl	8002ef4 <sync_window.part.1>
 8002f68:	0003      	movs	r3, r0
}
 8002f6a:	0018      	movs	r0, r3
 8002f6c:	bd10      	pop	{r4, pc}
 8002f6e:	46c0      	nop			; (mov r8, r8)
 8002f70:	00000404 	.word	0x00000404

08002f74 <sync_fs>:
{
 8002f74:	b5f8      	push	{r3, r4, r5, r6, r7, lr}
 8002f76:	0004      	movs	r4, r0
	res = sync_window(fs);
 8002f78:	f7ff ffee 	bl	8002f58 <sync_window>
 8002f7c:	1e05      	subs	r5, r0, #0
	if (res == FR_OK) {
 8002f7e:	d15e      	bne.n	800303e <sync_fs+0xca>
		if (fs->fs_type == FS_FAT32 && fs->fsi_flag == 1) {
 8002f80:	2380      	movs	r3, #128	; 0x80
 8002f82:	00db      	lsls	r3, r3, #3
 8002f84:	5ce3      	ldrb	r3, [r4, r3]
 8002f86:	2b03      	cmp	r3, #3
 8002f88:	d150      	bne.n	800302c <sync_fs+0xb8>
 8002f8a:	4e2d      	ldr	r6, [pc, #180]	; (8003040 <sync_fs+0xcc>)
 8002f8c:	5da7      	ldrb	r7, [r4, r6]
 8002f8e:	2f01      	cmp	r7, #1
 8002f90:	d14c      	bne.n	800302c <sync_fs+0xb8>
			mem_set(fs->win.d8, 0, SS(fs));
 8002f92:	4b2c      	ldr	r3, [pc, #176]	; (8003044 <sync_fs+0xd0>)
 8002f94:	0001      	movs	r1, r0
 8002f96:	5ae2      	ldrh	r2, [r4, r3]
 8002f98:	0020      	movs	r0, r4
 8002f9a:	f7ff fe14 	bl	8002bc6 <mem_set>
			ST_WORD(fs->win.d8 + BS_55AA, 0xAA55);
 8002f9e:	23ff      	movs	r3, #255	; 0xff
 8002fa0:	2255      	movs	r2, #85	; 0x55
			ST_DWORD(fs->win.d8 + FSI_StrucSig, 0x61417272);
 8002fa2:	20f2      	movs	r0, #242	; 0xf2
 8002fa4:	2172      	movs	r1, #114	; 0x72
			ST_WORD(fs->win.d8 + BS_55AA, 0xAA55);
 8002fa6:	005b      	lsls	r3, r3, #1
 8002fa8:	54e2      	strb	r2, [r4, r3]
 8002faa:	4b27      	ldr	r3, [pc, #156]	; (8003048 <sync_fs+0xd4>)
 8002fac:	1892      	adds	r2, r2, r2
 8002fae:	54e2      	strb	r2, [r4, r3]
			ST_DWORD(fs->win.d8 + FSI_LeadSig, 0x41615252);
 8002fb0:	3bae      	subs	r3, #174	; 0xae
 8002fb2:	3bff      	subs	r3, #255	; 0xff
 8002fb4:	7023      	strb	r3, [r4, #0]
 8002fb6:	7063      	strb	r3, [r4, #1]
 8002fb8:	3a69      	subs	r2, #105	; 0x69
 8002fba:	330f      	adds	r3, #15
			ST_DWORD(fs->win.d8 + FSI_StrucSig, 0x61417272);
 8002fbc:	0040      	lsls	r0, r0, #1
			ST_DWORD(fs->win.d8 + FSI_LeadSig, 0x41615252);
 8002fbe:	70a3      	strb	r3, [r4, #2]
 8002fc0:	70e2      	strb	r2, [r4, #3]
			ST_DWORD(fs->win.d8 + FSI_StrucSig, 0x61417272);
 8002fc2:	5421      	strb	r1, [r4, r0]
 8002fc4:	20e6      	movs	r0, #230	; 0xe6
 8002fc6:	30ff      	adds	r0, #255	; 0xff
 8002fc8:	5421      	strb	r1, [r4, r0]
 8002fca:	3175      	adds	r1, #117	; 0x75
 8002fcc:	31ff      	adds	r1, #255	; 0xff
 8002fce:	5462      	strb	r2, [r4, r1]
 8002fd0:	22e8      	movs	r2, #232	; 0xe8
 8002fd2:	32ff      	adds	r2, #255	; 0xff
 8002fd4:	54a3      	strb	r3, [r4, r2]
			ST_DWORD(fs->win.d8 + FSI_Free_Count, fs->free_clust);
 8002fd6:	2382      	movs	r3, #130	; 0x82
 8002fd8:	00db      	lsls	r3, r3, #3
 8002fda:	58e3      	ldr	r3, [r4, r3]
 8002fdc:	3201      	adds	r2, #1
 8002fde:	54a3      	strb	r3, [r4, r2]
 8002fe0:	22ea      	movs	r2, #234	; 0xea
 8002fe2:	0a19      	lsrs	r1, r3, #8
 8002fe4:	32ff      	adds	r2, #255	; 0xff
 8002fe6:	54a1      	strb	r1, [r4, r2]
 8002fe8:	0c19      	lsrs	r1, r3, #16
 8002fea:	3201      	adds	r2, #1
 8002fec:	54a1      	strb	r1, [r4, r2]
 8002fee:	22ec      	movs	r2, #236	; 0xec
 8002ff0:	0e1b      	lsrs	r3, r3, #24
 8002ff2:	32ff      	adds	r2, #255	; 0xff
 8002ff4:	54a3      	strb	r3, [r4, r2]
			ST_DWORD(fs->win.d8 + FSI_Nxt_Free, fs->last_clust);
 8002ff6:	4b15      	ldr	r3, [pc, #84]	; (800304c <sync_fs+0xd8>)
 8002ff8:	3201      	adds	r2, #1
 8002ffa:	58e3      	ldr	r3, [r4, r3]
 8002ffc:	54a3      	strb	r3, [r4, r2]
 8002ffe:	22ee      	movs	r2, #238	; 0xee
 8003000:	0a19      	lsrs	r1, r3, #8
 8003002:	32ff      	adds	r2, #255	; 0xff
 8003004:	54a1      	strb	r1, [r4, r2]
 8003006:	0c19      	lsrs	r1, r3, #16
 8003008:	3201      	adds	r2, #1
 800300a:	54a1      	strb	r1, [r4, r2]
 800300c:	22f0      	movs	r2, #240	; 0xf0
 800300e:	0e1b      	lsrs	r3, r3, #24
 8003010:	32ff      	adds	r2, #255	; 0xff
 8003012:	54a3      	strb	r3, [r4, r2]
			fs->winsect = fs->volbase + 1;
 8003014:	4b0e      	ldr	r3, [pc, #56]	; (8003050 <sync_fs+0xdc>)
			disk_write(fs->drv, fs->win.d8, fs->winsect, 1);
 8003016:	0021      	movs	r1, r4
			fs->winsect = fs->volbase + 1;
 8003018:	58e2      	ldr	r2, [r4, r3]
 800301a:	4b0e      	ldr	r3, [pc, #56]	; (8003054 <sync_fs+0xe0>)
 800301c:	3201      	adds	r2, #1
 800301e:	50e2      	str	r2, [r4, r3]
			disk_write(fs->drv, fs->win.d8, fs->winsect, 1);
 8003020:	4b0d      	ldr	r3, [pc, #52]	; (8003058 <sync_fs+0xe4>)
 8003022:	5ce0      	ldrb	r0, [r4, r3]
 8003024:	003b      	movs	r3, r7
 8003026:	f7ff fda9 	bl	8002b7c <disk_write>
			fs->fsi_flag = 0;
 800302a:	55a5      	strb	r5, [r4, r6]
		if (disk_ioctl(fs->drv, CTRL_SYNC, 0) != RES_OK)
 800302c:	2200      	movs	r2, #0
 800302e:	4b0a      	ldr	r3, [pc, #40]	; (8003058 <sync_fs+0xe4>)
 8003030:	0011      	movs	r1, r2
 8003032:	5ce0      	ldrb	r0, [r4, r3]
 8003034:	f7ff fdb0 	bl	8002b98 <disk_ioctl>
 8003038:	1e43      	subs	r3, r0, #1
 800303a:	4198      	sbcs	r0, r3
 800303c:	b2c0      	uxtb	r0, r0
}
 800303e:	bdf8      	pop	{r3, r4, r5, r6, r7, pc}
 8003040:	00000405 	.word	0x00000405
 8003044:	0000040a 	.word	0x0000040a
 8003048:	000001ff 	.word	0x000001ff
 800304c:	0000040c 	.word	0x0000040c
 8003050:	0000041c 	.word	0x0000041c
 8003054:	0000042c 	.word	0x0000042c
 8003058:	00000401 	.word	0x00000401

0800305c <move_window>:
{
 800305c:	b5f8      	push	{r3, r4, r5, r6, r7, lr}
	if (sector != fs->winsect) {	/* Window offset changed? */
 800305e:	4f0d      	ldr	r7, [pc, #52]	; (8003094 <move_window+0x38>)
{
 8003060:	0004      	movs	r4, r0
	if (sector != fs->winsect) {	/* Window offset changed? */
 8003062:	59c2      	ldr	r2, [r0, r7]
{
 8003064:	000e      	movs	r6, r1
	FRESULT res = FR_OK;
 8003066:	2500      	movs	r5, #0
	if (sector != fs->winsect) {	/* Window offset changed? */
 8003068:	428a      	cmp	r2, r1
 800306a:	d010      	beq.n	800308e <move_window+0x32>
		res = sync_window(fs);		/* Write-back changes */
 800306c:	f7ff ff74 	bl	8002f58 <sync_window>
 8003070:	1e05      	subs	r5, r0, #0
		if (res == FR_OK) {			/* Fill sector window with new data */
 8003072:	d10c      	bne.n	800308e <move_window+0x32>
			if (disk_read(fs->drv, fs->win.d8, sector, 1) != RES_OK) {
 8003074:	4b08      	ldr	r3, [pc, #32]	; (8003098 <move_window+0x3c>)
 8003076:	0032      	movs	r2, r6
 8003078:	5ce0      	ldrb	r0, [r4, r3]
 800307a:	0021      	movs	r1, r4
 800307c:	2301      	movs	r3, #1
 800307e:	f7ff fd6f 	bl	8002b60 <disk_read>
 8003082:	2800      	cmp	r0, #0
 8003084:	d002      	beq.n	800308c <move_window+0x30>
				sector = 0xFFFFFFFF;	/* Invalidate window if data is not reliable */
 8003086:	2601      	movs	r6, #1
				res = FR_DISK_ERR;
 8003088:	3501      	adds	r5, #1
				sector = 0xFFFFFFFF;	/* Invalidate window if data is not reliable */
 800308a:	4276      	negs	r6, r6
			fs->winsect = sector;
 800308c:	51e6      	str	r6, [r4, r7]
}
 800308e:	0028      	movs	r0, r5
 8003090:	bdf8      	pop	{r3, r4, r5, r6, r7, pc}
 8003092:	46c0      	nop			; (mov r8, r8)
 8003094:	0000042c 	.word	0x0000042c
 8003098:	00000401 	.word	0x00000401

0800309c <check_fs>:
	fs->wflag = 0; fs->winsect = 0xFFFFFFFF;	/* Invaidate window */
 800309c:	2200      	movs	r2, #0
 800309e:	4b18      	ldr	r3, [pc, #96]	; (8003100 <check_fs+0x64>)
{
 80030a0:	b510      	push	{r4, lr}
	fs->wflag = 0; fs->winsect = 0xFFFFFFFF;	/* Invaidate window */
 80030a2:	54c2      	strb	r2, [r0, r3]
 80030a4:	4b17      	ldr	r3, [pc, #92]	; (8003104 <check_fs+0x68>)
 80030a6:	3a01      	subs	r2, #1
 80030a8:	50c2      	str	r2, [r0, r3]
{
 80030aa:	0004      	movs	r4, r0
	if (move_window(fs, sect) != FR_OK)			/* Load boot record */
 80030ac:	f7ff ffd6 	bl	800305c <move_window>
		return 3;
 80030b0:	2303      	movs	r3, #3
	if (move_window(fs, sect) != FR_OK)			/* Load boot record */
 80030b2:	2800      	cmp	r0, #0
 80030b4:	d121      	bne.n	80030fa <check_fs+0x5e>
	if (LD_WORD(&fs->win.d8[BS_55AA]) != 0xAA55)	/* Check boot record signature (always placed at offset 510 even if the sector size is >512) */
 80030b6:	22ff      	movs	r2, #255	; 0xff
 80030b8:	4b13      	ldr	r3, [pc, #76]	; (8003108 <check_fs+0x6c>)
 80030ba:	0052      	lsls	r2, r2, #1
 80030bc:	5ce3      	ldrb	r3, [r4, r3]
 80030be:	5ca2      	ldrb	r2, [r4, r2]
 80030c0:	021b      	lsls	r3, r3, #8
 80030c2:	431a      	orrs	r2, r3
 80030c4:	4911      	ldr	r1, [pc, #68]	; (800310c <check_fs+0x70>)
 80030c6:	b212      	sxth	r2, r2
		return 2;
 80030c8:	2302      	movs	r3, #2
	if (LD_WORD(&fs->win.d8[BS_55AA]) != 0xAA55)	/* Check boot record signature (always placed at offset 510 even if the sector size is >512) */
 80030ca:	428a      	cmp	r2, r1
 80030cc:	d115      	bne.n	80030fa <check_fs+0x5e>
	if ((LD_DWORD(&fs->win.d8[BS_FilSysType]) & 0xFFFFFF) == 0x544146)		/* Check "FAT" string */
 80030ce:	8f22      	ldrh	r2, [r4, #56]	; 0x38
 80030d0:	8ee3      	ldrh	r3, [r4, #54]	; 0x36
 80030d2:	0412      	lsls	r2, r2, #16
 80030d4:	431a      	orrs	r2, r3
 80030d6:	490e      	ldr	r1, [pc, #56]	; (8003110 <check_fs+0x74>)
 80030d8:	0212      	lsls	r2, r2, #8
 80030da:	0a12      	lsrs	r2, r2, #8
		return 0;
 80030dc:	0003      	movs	r3, r0
	if ((LD_DWORD(&fs->win.d8[BS_FilSysType]) & 0xFFFFFF) == 0x544146)		/* Check "FAT" string */
 80030de:	428a      	cmp	r2, r1
 80030e0:	d00b      	beq.n	80030fa <check_fs+0x5e>
	if ((LD_DWORD(&fs->win.d8[BS_FilSysType32]) & 0xFFFFFF) == 0x544146)	/* Check "FAT" string */
 80030e2:	3452      	adds	r4, #82	; 0x52
 80030e4:	8863      	ldrh	r3, [r4, #2]
 80030e6:	8820      	ldrh	r0, [r4, #0]
 80030e8:	041b      	lsls	r3, r3, #16
 80030ea:	4303      	orrs	r3, r0
 80030ec:	021b      	lsls	r3, r3, #8
 80030ee:	4a09      	ldr	r2, [pc, #36]	; (8003114 <check_fs+0x78>)
 80030f0:	0a1b      	lsrs	r3, r3, #8
 80030f2:	189b      	adds	r3, r3, r2
 80030f4:	1e58      	subs	r0, r3, #1
 80030f6:	4183      	sbcs	r3, r0
		return 3;
 80030f8:	b2db      	uxtb	r3, r3
}
 80030fa:	0018      	movs	r0, r3
 80030fc:	bd10      	pop	{r4, pc}
 80030fe:	46c0      	nop			; (mov r8, r8)
 8003100:	00000404 	.word	0x00000404
 8003104:	0000042c 	.word	0x0000042c
 8003108:	000001ff 	.word	0x000001ff
 800310c:	ffffaa55 	.word	0xffffaa55
 8003110:	00544146 	.word	0x00544146
 8003114:	ffabbeba 	.word	0xffabbeba

08003118 <find_volume>:
	*rfs = 0;
 8003118:	2300      	movs	r3, #0
{
 800311a:	b5f0      	push	{r4, r5, r6, r7, lr}
	*rfs = 0;
 800311c:	6003      	str	r3, [r0, #0]
{
 800311e:	b08b      	sub	sp, #44	; 0x2c
 8003120:	0006      	movs	r6, r0
	vol = get_ldnumber(path);
 8003122:	0008      	movs	r0, r1
{
 8003124:	0017      	movs	r7, r2
	vol = get_ldnumber(path);
 8003126:	f7ff fe27 	bl	8002d78 <get_ldnumber>
	if (vol < 0) return FR_INVALID_DRIVE;
 800312a:	230b      	movs	r3, #11
	vol = get_ldnumber(path);
 800312c:	1e05      	subs	r5, r0, #0
	if (vol < 0) return FR_INVALID_DRIVE;
 800312e:	db17      	blt.n	8003160 <find_volume+0x48>
	fs = FatFs[vol];					/* Get pointer to the file system object */
 8003130:	4baf      	ldr	r3, [pc, #700]	; (80033f0 <find_volume+0x2d8>)
 8003132:	0082      	lsls	r2, r0, #2
 8003134:	58d4      	ldr	r4, [r2, r3]
	if (!fs) return FR_NOT_ENABLED;		/* Is the file system object available? */
 8003136:	230c      	movs	r3, #12
 8003138:	2c00      	cmp	r4, #0
 800313a:	d011      	beq.n	8003160 <find_volume+0x48>
	if (fs->fs_type) {					/* If the volume has been mounted */
 800313c:	2380      	movs	r3, #128	; 0x80
	*rfs = fs;							/* Return pointer to the file system object */
 800313e:	6034      	str	r4, [r6, #0]
	if (fs->fs_type) {					/* If the volume has been mounted */
 8003140:	00db      	lsls	r3, r3, #3
 8003142:	5ce3      	ldrb	r3, [r4, r3]
 8003144:	4eab      	ldr	r6, [pc, #684]	; (80033f4 <find_volume+0x2dc>)
 8003146:	2b00      	cmp	r3, #0
 8003148:	d00d      	beq.n	8003166 <find_volume+0x4e>
		stat = disk_status(fs->drv);
 800314a:	5da0      	ldrb	r0, [r4, r6]
 800314c:	f7ff fce6 	bl	8002b1c <disk_status>
		if (!(stat & STA_NOINIT)) {		/* and the physical drive is kept initialized */
 8003150:	2301      	movs	r3, #1
 8003152:	4003      	ands	r3, r0
 8003154:	d107      	bne.n	8003166 <find_volume+0x4e>
			if (!_FS_READONLY && wmode && (stat & STA_PROTECT))	/* Check write protection if needed */
 8003156:	2f00      	cmp	r7, #0
 8003158:	d002      	beq.n	8003160 <find_volume+0x48>
 800315a:	0742      	lsls	r2, r0, #29
 800315c:	d500      	bpl.n	8003160 <find_volume+0x48>
				return FR_WRITE_PROTECTED;
 800315e:	230a      	movs	r3, #10
}
 8003160:	0018      	movs	r0, r3
 8003162:	b00b      	add	sp, #44	; 0x2c
 8003164:	bdf0      	pop	{r4, r5, r6, r7, pc}
	fs->fs_type = 0;					/* Clear the file system object */
 8003166:	2380      	movs	r3, #128	; 0x80
 8003168:	2200      	movs	r2, #0
 800316a:	00db      	lsls	r3, r3, #3
	fs->drv = LD2PD(vol);				/* Bind the logical drive and a physical drive */
 800316c:	b2e8      	uxtb	r0, r5
	fs->fs_type = 0;					/* Clear the file system object */
 800316e:	54e2      	strb	r2, [r4, r3]
	fs->drv = LD2PD(vol);				/* Bind the logical drive and a physical drive */
 8003170:	55a0      	strb	r0, [r4, r6]
	stat = disk_initialize(fs->drv);	/* Initialize the physical drive */
 8003172:	f7ff fce1 	bl	8002b38 <disk_initialize>
		return FR_NOT_READY;			/* Failed to initialize due to no medium or hard error */
 8003176:	2303      	movs	r3, #3
	if (stat & STA_NOINIT)				/* Check if the initialization succeeded */
 8003178:	07c2      	lsls	r2, r0, #31
 800317a:	d4f1      	bmi.n	8003160 <find_volume+0x48>
	if (!_FS_READONLY && wmode && (stat & STA_PROTECT))	/* Check disk write protection if needed */
 800317c:	2f00      	cmp	r7, #0
 800317e:	d001      	beq.n	8003184 <find_volume+0x6c>
 8003180:	0743      	lsls	r3, r0, #29
 8003182:	d4ec      	bmi.n	800315e <find_volume+0x46>
	if (disk_ioctl(fs->drv, GET_SECTOR_SIZE, &SS(fs)) != RES_OK
 8003184:	4b9c      	ldr	r3, [pc, #624]	; (80033f8 <find_volume+0x2e0>)
 8003186:	5da0      	ldrb	r0, [r4, r6]
 8003188:	18e2      	adds	r2, r4, r3
 800318a:	2102      	movs	r1, #2
 800318c:	f7ff fd04 	bl	8002b98 <disk_ioctl>
 8003190:	1e06      	subs	r6, r0, #0
 8003192:	d001      	beq.n	8003198 <find_volume+0x80>
		|| SS(fs) < _MIN_SS || SS(fs) > _MAX_SS) return FR_DISK_ERR;
 8003194:	2301      	movs	r3, #1
 8003196:	e7e3      	b.n	8003160 <find_volume+0x48>
 8003198:	4d97      	ldr	r5, [pc, #604]	; (80033f8 <find_volume+0x2e0>)
 800319a:	4a98      	ldr	r2, [pc, #608]	; (80033fc <find_volume+0x2e4>)
 800319c:	5b63      	ldrh	r3, [r4, r5]
 800319e:	189b      	adds	r3, r3, r2
 80031a0:	2280      	movs	r2, #128	; 0x80
 80031a2:	b29b      	uxth	r3, r3
 80031a4:	0092      	lsls	r2, r2, #2
 80031a6:	4293      	cmp	r3, r2
 80031a8:	d8f4      	bhi.n	8003194 <find_volume+0x7c>
	fmt = check_fs(fs, bsect);					/* Load sector 0 and check if it is an FAT boot sector as SFD */
 80031aa:	0001      	movs	r1, r0
 80031ac:	0020      	movs	r0, r4
 80031ae:	f7ff ff75 	bl	800309c <check_fs>
	if (fmt == 1 || (!fmt && (LD2PT(vol)))) {	/* Not an FAT boot sector or forced partition number */
 80031b2:	2801      	cmp	r0, #1
 80031b4:	d12b      	bne.n	800320e <find_volume+0xf6>
 80031b6:	0023      	movs	r3, r4
 80031b8:	33c7      	adds	r3, #199	; 0xc7
 80031ba:	33ff      	adds	r3, #255	; 0xff
			br[i] = pt[4] ? LD_DWORD(&pt[8]) : 0;
 80031bc:	1f1a      	subs	r2, r3, #4
 80031be:	7811      	ldrb	r1, [r2, #0]
 80031c0:	2200      	movs	r2, #0
 80031c2:	4291      	cmp	r1, r2
 80031c4:	d009      	beq.n	80031da <find_volume+0xc2>
 80031c6:	7859      	ldrb	r1, [r3, #1]
 80031c8:	781a      	ldrb	r2, [r3, #0]
 80031ca:	0209      	lsls	r1, r1, #8
 80031cc:	4311      	orrs	r1, r2
 80031ce:	789a      	ldrb	r2, [r3, #2]
 80031d0:	0412      	lsls	r2, r2, #16
 80031d2:	4311      	orrs	r1, r2
 80031d4:	78da      	ldrb	r2, [r3, #3]
 80031d6:	0612      	lsls	r2, r2, #24
 80031d8:	430a      	orrs	r2, r1
 80031da:	a906      	add	r1, sp, #24
 80031dc:	5072      	str	r2, [r6, r1]
 80031de:	3604      	adds	r6, #4
 80031e0:	3310      	adds	r3, #16
		for (i = 0; i < 4; i++) {			/* Get partition offset */
 80031e2:	2e10      	cmp	r6, #16
 80031e4:	d1ea      	bne.n	80031bc <find_volume+0xa4>
 80031e6:	2600      	movs	r6, #0
			fmt = bsect ? check_fs(fs, bsect) : 2;	/* Check the partition */
 80031e8:	2702      	movs	r7, #2
			bsect = br[i];
 80031ea:	ab06      	add	r3, sp, #24
 80031ec:	599b      	ldr	r3, [r3, r6]
			fmt = bsect ? check_fs(fs, bsect) : 2;	/* Check the partition */
 80031ee:	0038      	movs	r0, r7
			bsect = br[i];
 80031f0:	9300      	str	r3, [sp, #0]
			fmt = bsect ? check_fs(fs, bsect) : 2;	/* Check the partition */
 80031f2:	2b00      	cmp	r3, #0
 80031f4:	d005      	beq.n	8003202 <find_volume+0xea>
 80031f6:	0019      	movs	r1, r3
 80031f8:	0020      	movs	r0, r4
 80031fa:	f7ff ff4f 	bl	800309c <check_fs>
		} while (!LD2PT(vol) && fmt && ++i < 4);
 80031fe:	2800      	cmp	r0, #0
 8003200:	d00c      	beq.n	800321c <find_volume+0x104>
 8003202:	3604      	adds	r6, #4
 8003204:	2e10      	cmp	r6, #16
 8003206:	d1f0      	bne.n	80031ea <find_volume+0xd2>
	if (fmt == 3) return FR_DISK_ERR;		/* An error occured in the disk I/O layer */
 8003208:	2803      	cmp	r0, #3
 800320a:	d104      	bne.n	8003216 <find_volume+0xfe>
 800320c:	e7c2      	b.n	8003194 <find_volume+0x7c>
 800320e:	2803      	cmp	r0, #3
 8003210:	d0c0      	beq.n	8003194 <find_volume+0x7c>
	if (fmt) return FR_NO_FILESYSTEM;		/* No FAT volume is found */
 8003212:	2800      	cmp	r0, #0
 8003214:	d001      	beq.n	800321a <find_volume+0x102>
 8003216:	230d      	movs	r3, #13
 8003218:	e7a2      	b.n	8003160 <find_volume+0x48>
	bsect = 0;
 800321a:	9000      	str	r0, [sp, #0]
	if (LD_WORD(fs->win.d8 + BPB_BytsPerSec) != SS(fs))	/* (BPB_BytsPerSec must be equal to the physical sector size) */
 800321c:	7b23      	ldrb	r3, [r4, #12]
 800321e:	7ae2      	ldrb	r2, [r4, #11]
 8003220:	021b      	lsls	r3, r3, #8
 8003222:	431a      	orrs	r2, r3
 8003224:	9204      	str	r2, [sp, #16]
 8003226:	5b63      	ldrh	r3, [r4, r5]
 8003228:	4293      	cmp	r3, r2
 800322a:	d1f4      	bne.n	8003216 <find_volume+0xfe>
	fasize = LD_WORD(fs->win.d8 + BPB_FATSz16);			/* Number of sectors per FAT */
 800322c:	7de2      	ldrb	r2, [r4, #23]
 800322e:	7da3      	ldrb	r3, [r4, #22]
 8003230:	0212      	lsls	r2, r2, #8
 8003232:	4313      	orrs	r3, r2
	if (!fasize) fasize = LD_DWORD(fs->win.d8 + BPB_FATSz32);
 8003234:	d100      	bne.n	8003238 <find_volume+0x120>
 8003236:	e0c6      	b.n	80033c6 <find_volume+0x2ae>
 8003238:	9302      	str	r3, [sp, #8]
	fs->fsize = fasize;
 800323a:	2383      	movs	r3, #131	; 0x83
 800323c:	9a02      	ldr	r2, [sp, #8]
 800323e:	00db      	lsls	r3, r3, #3
 8003240:	50e2      	str	r2, [r4, r3]
	fs->n_fats = fs->win.d8[BPB_NumFATs];					/* Number of FAT copies */
 8003242:	7c26      	ldrb	r6, [r4, #16]
 8003244:	4b6e      	ldr	r3, [pc, #440]	; (8003400 <find_volume+0x2e8>)
 8003246:	54e6      	strb	r6, [r4, r3]
	if (fs->n_fats != 1 && fs->n_fats != 2)				/* (Must be 1 or 2) */
 8003248:	1e73      	subs	r3, r6, #1
 800324a:	2b01      	cmp	r3, #1
 800324c:	d8e3      	bhi.n	8003216 <find_volume+0xfe>
	fs->csize = fs->win.d8[BPB_SecPerClus];				/* Number of sectors per cluster */
 800324e:	7b65      	ldrb	r5, [r4, #13]
 8003250:	4b6c      	ldr	r3, [pc, #432]	; (8003404 <find_volume+0x2ec>)
 8003252:	54e5      	strb	r5, [r4, r3]
	if (!fs->csize || (fs->csize & (fs->csize - 1)))	/* (Must be power of 2) */
 8003254:	2d00      	cmp	r5, #0
 8003256:	d0de      	beq.n	8003216 <find_volume+0xfe>
 8003258:	1e6b      	subs	r3, r5, #1
 800325a:	421d      	tst	r5, r3
 800325c:	d1db      	bne.n	8003216 <find_volume+0xfe>
	fs->n_rootdir = LD_WORD(fs->win.d8 + BPB_RootEntCnt);	/* Number of root directory entries */
 800325e:	7ca3      	ldrb	r3, [r4, #18]
 8003260:	7c62      	ldrb	r2, [r4, #17]
 8003262:	021b      	lsls	r3, r3, #8
 8003264:	431a      	orrs	r2, r3
 8003266:	9201      	str	r2, [sp, #4]
 8003268:	466a      	mov	r2, sp
 800326a:	2381      	movs	r3, #129	; 0x81
 800326c:	8892      	ldrh	r2, [r2, #4]
 800326e:	00db      	lsls	r3, r3, #3
 8003270:	52e2      	strh	r2, [r4, r3]
	if (fs->n_rootdir % (SS(fs) / SZ_DIRE))				/* (Must be sector aligned) */
 8003272:	9b04      	ldr	r3, [sp, #16]
 8003274:	9801      	ldr	r0, [sp, #4]
 8003276:	095f      	lsrs	r7, r3, #5
 8003278:	0039      	movs	r1, r7
 800327a:	f7fc ffe7 	bl	800024c <__aeabi_uidivmod>
 800327e:	b289      	uxth	r1, r1
 8003280:	2900      	cmp	r1, #0
 8003282:	d1c8      	bne.n	8003216 <find_volume+0xfe>
	tsect = LD_WORD(fs->win.d8 + BPB_TotSec16);			/* Number of sectors on the volume */
 8003284:	7d20      	ldrb	r0, [r4, #20]
 8003286:	7ce3      	ldrb	r3, [r4, #19]
 8003288:	0200      	lsls	r0, r0, #8
 800328a:	4303      	orrs	r3, r0
 800328c:	9303      	str	r3, [sp, #12]
	if (!tsect) tsect = LD_DWORD(fs->win.d8 + BPB_TotSec32);
 800328e:	d101      	bne.n	8003294 <find_volume+0x17c>
 8003290:	6a23      	ldr	r3, [r4, #32]
 8003292:	9303      	str	r3, [sp, #12]
	nrsv = LD_WORD(fs->win.d8 + BPB_RsvdSecCnt);			/* Number of reserved sectors */
 8003294:	7be3      	ldrb	r3, [r4, #15]
 8003296:	7ba2      	ldrb	r2, [r4, #14]
 8003298:	021b      	lsls	r3, r3, #8
 800329a:	431a      	orrs	r2, r3
 800329c:	9205      	str	r2, [sp, #20]
	if (!nrsv) return FR_NO_FILESYSTEM;					/* (Must not be 0) */
 800329e:	d0ba      	beq.n	8003216 <find_volume+0xfe>
	fasize *= fs->n_fats;								/* Number of sectors for FAT area */
 80032a0:	9b02      	ldr	r3, [sp, #8]
	sysect = nrsv + fasize + fs->n_rootdir / (SS(fs) / SZ_DIRE);	/* RSV + FAT + DIR */
 80032a2:	0039      	movs	r1, r7
 80032a4:	9801      	ldr	r0, [sp, #4]
	fasize *= fs->n_fats;								/* Number of sectors for FAT area */
 80032a6:	435e      	muls	r6, r3
	sysect = nrsv + fasize + fs->n_rootdir / (SS(fs) / SZ_DIRE);	/* RSV + FAT + DIR */
 80032a8:	f7fc ff4a 	bl	8000140 <__udivsi3>
 80032ac:	9b05      	ldr	r3, [sp, #20]
 80032ae:	b287      	uxth	r7, r0
 80032b0:	18ff      	adds	r7, r7, r3
	if (tsect < sysect) return FR_NO_FILESYSTEM;		/* (Invalid volume size) */
 80032b2:	9b03      	ldr	r3, [sp, #12]
	sysect = nrsv + fasize + fs->n_rootdir / (SS(fs) / SZ_DIRE);	/* RSV + FAT + DIR */
 80032b4:	19bf      	adds	r7, r7, r6
	if (tsect < sysect) return FR_NO_FILESYSTEM;		/* (Invalid volume size) */
 80032b6:	42bb      	cmp	r3, r7
 80032b8:	d3ad      	bcc.n	8003216 <find_volume+0xfe>
	nclst = (tsect - sysect) / fs->csize;				/* Number of clusters */
 80032ba:	1bd8      	subs	r0, r3, r7
 80032bc:	0029      	movs	r1, r5
 80032be:	f7fc ff3f 	bl	8000140 <__udivsi3>
	if (!nclst) return FR_NO_FILESYSTEM;				/* (Invalid volume size) */
 80032c2:	2800      	cmp	r0, #0
 80032c4:	d0a7      	beq.n	8003216 <find_volume+0xfe>
	if (nclst >= MIN_FAT16) fmt = FS_FAT16;
 80032c6:	4b50      	ldr	r3, [pc, #320]	; (8003408 <find_volume+0x2f0>)
	fmt = FS_FAT12;
 80032c8:	2501      	movs	r5, #1
	if (nclst >= MIN_FAT16) fmt = FS_FAT16;
 80032ca:	4298      	cmp	r0, r3
 80032cc:	d904      	bls.n	80032d8 <find_volume+0x1c0>
	if (nclst >= MIN_FAT32) fmt = FS_FAT32;
 80032ce:	4b4f      	ldr	r3, [pc, #316]	; (800340c <find_volume+0x2f4>)
 80032d0:	4283      	cmp	r3, r0
 80032d2:	419b      	sbcs	r3, r3
 80032d4:	425d      	negs	r5, r3
 80032d6:	3502      	adds	r5, #2
	fs->n_fatent = nclst + 2;							/* Number of FAT entries */
 80032d8:	4b4d      	ldr	r3, [pc, #308]	; (8003410 <find_volume+0x2f8>)
 80032da:	3002      	adds	r0, #2
 80032dc:	50e0      	str	r0, [r4, r3]
	fs->volbase = bsect;								/* Volume start sector */
 80032de:	9a00      	ldr	r2, [sp, #0]
 80032e0:	4b4c      	ldr	r3, [pc, #304]	; (8003414 <find_volume+0x2fc>)
	fs->fatbase = bsect + nrsv; 						/* FAT start sector */
 80032e2:	4694      	mov	ip, r2
	fs->volbase = bsect;								/* Volume start sector */
 80032e4:	50e2      	str	r2, [r4, r3]
	fs->fatbase = bsect + nrsv; 						/* FAT start sector */
 80032e6:	2284      	movs	r2, #132	; 0x84
 80032e8:	9b05      	ldr	r3, [sp, #20]
 80032ea:	00d2      	lsls	r2, r2, #3
 80032ec:	4463      	add	r3, ip
 80032ee:	50a3      	str	r3, [r4, r2]
	fs->database = bsect + sysect;						/* Data start sector */
 80032f0:	4662      	mov	r2, ip
 80032f2:	19d7      	adds	r7, r2, r7
 80032f4:	2285      	movs	r2, #133	; 0x85
 80032f6:	00d2      	lsls	r2, r2, #3
 80032f8:	50a7      	str	r7, [r4, r2]
	if (fmt == FS_FAT32) {
 80032fa:	2d03      	cmp	r5, #3
 80032fc:	d165      	bne.n	80033ca <find_volume+0x2b2>
		if (fs->n_rootdir) return FR_NO_FILESYSTEM;		/* (BPB_RootEntCnt must be 0) */
 80032fe:	9b01      	ldr	r3, [sp, #4]
 8003300:	2b00      	cmp	r3, #0
 8003302:	d188      	bne.n	8003216 <find_volume+0xfe>
		fs->dirbase = LD_DWORD(fs->win.d8 + BPB_RootClus);	/* Root directory start cluster */
 8003304:	4b44      	ldr	r3, [pc, #272]	; (8003418 <find_volume+0x300>)
 8003306:	6ae2      	ldr	r2, [r4, #44]	; 0x2c
		szbfat = fs->n_fatent * 4;						/* (Needed FAT size) */
 8003308:	0080      	lsls	r0, r0, #2
		fs->dirbase = LD_DWORD(fs->win.d8 + BPB_RootClus);	/* Root directory start cluster */
 800330a:	50e2      	str	r2, [r4, r3]
	if (fs->fsize < (szbfat + (SS(fs) - 1)) / SS(fs))	/* (BPB_FATSz must not be less than the size needed) */
 800330c:	9b04      	ldr	r3, [sp, #16]
 800330e:	9904      	ldr	r1, [sp, #16]
 8003310:	3b01      	subs	r3, #1
 8003312:	1818      	adds	r0, r3, r0
 8003314:	f7fc ff14 	bl	8000140 <__udivsi3>
 8003318:	9b02      	ldr	r3, [sp, #8]
 800331a:	4283      	cmp	r3, r0
 800331c:	d200      	bcs.n	8003320 <find_volume+0x208>
 800331e:	e77a      	b.n	8003216 <find_volume+0xfe>
	fs->last_clust = fs->free_clust = 0xFFFFFFFF;
 8003320:	2682      	movs	r6, #130	; 0x82
 8003322:	2301      	movs	r3, #1
 8003324:	4a3d      	ldr	r2, [pc, #244]	; (800341c <find_volume+0x304>)
 8003326:	425b      	negs	r3, r3
 8003328:	00f6      	lsls	r6, r6, #3
	fs->fsi_flag = 0x80;
 800332a:	4f3d      	ldr	r7, [pc, #244]	; (8003420 <find_volume+0x308>)
	fs->last_clust = fs->free_clust = 0xFFFFFFFF;
 800332c:	51a3      	str	r3, [r4, r6]
 800332e:	50a3      	str	r3, [r4, r2]
	fs->fsi_flag = 0x80;
 8003330:	3381      	adds	r3, #129	; 0x81
 8003332:	55e3      	strb	r3, [r4, r7]
	if (fmt == FS_FAT32				/* Enable FSINFO only if FAT32 and BPB_FSInfo is 1 */
 8003334:	2d03      	cmp	r5, #3
 8003336:	d12f      	bne.n	8003398 <find_volume+0x280>
		&& LD_WORD(fs->win.d8 + BPB_FSInfo) == 1
 8003338:	0023      	movs	r3, r4
 800333a:	3331      	adds	r3, #49	; 0x31
 800333c:	781a      	ldrb	r2, [r3, #0]
 800333e:	3b01      	subs	r3, #1
 8003340:	781b      	ldrb	r3, [r3, #0]
 8003342:	0212      	lsls	r2, r2, #8
 8003344:	4313      	orrs	r3, r2
 8003346:	2b01      	cmp	r3, #1
 8003348:	d126      	bne.n	8003398 <find_volume+0x280>
		&& move_window(fs, bsect + 1) == FR_OK)
 800334a:	9900      	ldr	r1, [sp, #0]
 800334c:	0020      	movs	r0, r4
 800334e:	3101      	adds	r1, #1
 8003350:	f7ff fe84 	bl	800305c <move_window>
 8003354:	2800      	cmp	r0, #0
 8003356:	d11f      	bne.n	8003398 <find_volume+0x280>
		if (LD_WORD(fs->win.d8 + BS_55AA) == 0xAA55	/* Load FSINFO data if available */
 8003358:	4b32      	ldr	r3, [pc, #200]	; (8003424 <find_volume+0x30c>)
		fs->fsi_flag = 0;
 800335a:	55e0      	strb	r0, [r4, r7]
		if (LD_WORD(fs->win.d8 + BS_55AA) == 0xAA55	/* Load FSINFO data if available */
 800335c:	5ce2      	ldrb	r2, [r4, r3]
 800335e:	3b01      	subs	r3, #1
 8003360:	5ce3      	ldrb	r3, [r4, r3]
 8003362:	0212      	lsls	r2, r2, #8
 8003364:	4313      	orrs	r3, r2
 8003366:	4a30      	ldr	r2, [pc, #192]	; (8003428 <find_volume+0x310>)
 8003368:	b21b      	sxth	r3, r3
 800336a:	4293      	cmp	r3, r2
 800336c:	d114      	bne.n	8003398 <find_volume+0x280>
			&& LD_DWORD(fs->win.d8 + FSI_LeadSig) == 0x41615252
 800336e:	4b2f      	ldr	r3, [pc, #188]	; (800342c <find_volume+0x314>)
 8003370:	6822      	ldr	r2, [r4, #0]
 8003372:	429a      	cmp	r2, r3
 8003374:	d110      	bne.n	8003398 <find_volume+0x280>
			&& LD_DWORD(fs->win.d8 + FSI_StrucSig) == 0x61417272)
 8003376:	22f2      	movs	r2, #242	; 0xf2
 8003378:	0052      	lsls	r2, r2, #1
 800337a:	4b2d      	ldr	r3, [pc, #180]	; (8003430 <find_volume+0x318>)
 800337c:	58a2      	ldr	r2, [r4, r2]
 800337e:	429a      	cmp	r2, r3
 8003380:	d10a      	bne.n	8003398 <find_volume+0x280>
			fs->free_clust = LD_DWORD(fs->win.d8 + FSI_Free_Count);
 8003382:	23f4      	movs	r3, #244	; 0xf4
 8003384:	005b      	lsls	r3, r3, #1
 8003386:	58e3      	ldr	r3, [r4, r3]
 8003388:	51a3      	str	r3, [r4, r6]
			fs->last_clust = LD_DWORD(fs->win.d8 + FSI_Nxt_Free);
 800338a:	23f6      	movs	r3, #246	; 0xf6
 800338c:	005b      	lsls	r3, r3, #1
 800338e:	58e3      	ldr	r3, [r4, r3]
 8003390:	9300      	str	r3, [sp, #0]
 8003392:	9a00      	ldr	r2, [sp, #0]
 8003394:	4b21      	ldr	r3, [pc, #132]	; (800341c <find_volume+0x304>)
 8003396:	50e2      	str	r2, [r4, r3]
	fs->fs_type = fmt;	/* FAT sub-type */
 8003398:	2380      	movs	r3, #128	; 0x80
	fs->id = ++Fsid;	/* File system mount ID */
 800339a:	4a26      	ldr	r2, [pc, #152]	; (8003434 <find_volume+0x31c>)
	fs->fs_type = fmt;	/* FAT sub-type */
 800339c:	00db      	lsls	r3, r3, #3
 800339e:	54e5      	strb	r5, [r4, r3]
	fs->id = ++Fsid;	/* File system mount ID */
 80033a0:	8813      	ldrh	r3, [r2, #0]
 80033a2:	3301      	adds	r3, #1
 80033a4:	b29b      	uxth	r3, r3
 80033a6:	8013      	strh	r3, [r2, #0]
 80033a8:	4a23      	ldr	r2, [pc, #140]	; (8003438 <find_volume+0x320>)
 80033aa:	52a3      	strh	r3, [r4, r2]
		if (Files[i].fs == fs) Files[i].fs = 0;
 80033ac:	4a23      	ldr	r2, [pc, #140]	; (800343c <find_volume+0x324>)
 80033ae:	6813      	ldr	r3, [r2, #0]
 80033b0:	429c      	cmp	r4, r3
 80033b2:	d101      	bne.n	80033b8 <find_volume+0x2a0>
 80033b4:	2300      	movs	r3, #0
 80033b6:	6013      	str	r3, [r2, #0]
 80033b8:	68d1      	ldr	r1, [r2, #12]
 80033ba:	2300      	movs	r3, #0
 80033bc:	428c      	cmp	r4, r1
 80033be:	d000      	beq.n	80033c2 <find_volume+0x2aa>
 80033c0:	e6ce      	b.n	8003160 <find_volume+0x48>
 80033c2:	60d3      	str	r3, [r2, #12]
 80033c4:	e6cc      	b.n	8003160 <find_volume+0x48>
	if (!fasize) fasize = LD_DWORD(fs->win.d8 + BPB_FATSz32);
 80033c6:	6a63      	ldr	r3, [r4, #36]	; 0x24
 80033c8:	e736      	b.n	8003238 <find_volume+0x120>
		if (!fs->n_rootdir)	return FR_NO_FILESYSTEM;	/* (BPB_RootEntCnt must not be 0) */
 80033ca:	9a01      	ldr	r2, [sp, #4]
 80033cc:	2a00      	cmp	r2, #0
 80033ce:	d100      	bne.n	80033d2 <find_volume+0x2ba>
 80033d0:	e721      	b.n	8003216 <find_volume+0xfe>
		fs->dirbase = fs->fatbase + fasize;				/* Root directory start sector */
 80033d2:	18f6      	adds	r6, r6, r3
 80033d4:	4b10      	ldr	r3, [pc, #64]	; (8003418 <find_volume+0x300>)
 80033d6:	50e6      	str	r6, [r4, r3]
			fs->n_fatent * 2 : fs->n_fatent * 3 / 2 + (fs->n_fatent & 1);
 80033d8:	2d02      	cmp	r5, #2
 80033da:	d101      	bne.n	80033e0 <find_volume+0x2c8>
 80033dc:	0040      	lsls	r0, r0, #1
 80033de:	e795      	b.n	800330c <find_volume+0x1f4>
 80033e0:	2303      	movs	r3, #3
 80033e2:	2201      	movs	r2, #1
 80033e4:	4343      	muls	r3, r0
 80033e6:	4010      	ands	r0, r2
 80033e8:	085b      	lsrs	r3, r3, #1
 80033ea:	1818      	adds	r0, r3, r0
 80033ec:	e78e      	b.n	800330c <find_volume+0x1f4>
 80033ee:	46c0      	nop			; (mov r8, r8)
 80033f0:	200000a4 	.word	0x200000a4
 80033f4:	00000401 	.word	0x00000401
 80033f8:	0000040a 	.word	0x0000040a
 80033fc:	fffffe00 	.word	0xfffffe00
 8003400:	00000403 	.word	0x00000403
 8003404:	00000402 	.word	0x00000402
 8003408:	00000ff5 	.word	0x00000ff5
 800340c:	0000fff5 	.word	0x0000fff5
 8003410:	00000414 	.word	0x00000414
 8003414:	0000041c 	.word	0x0000041c
 8003418:	00000424 	.word	0x00000424
 800341c:	0000040c 	.word	0x0000040c
 8003420:	00000405 	.word	0x00000405
 8003424:	000001ff 	.word	0x000001ff
 8003428:	ffffaa55 	.word	0xffffaa55
 800342c:	41615252 	.word	0x41615252
 8003430:	61417272 	.word	0x61417272
 8003434:	200000c0 	.word	0x200000c0
 8003438:	00000406 	.word	0x00000406
 800343c:	200000a8 	.word	0x200000a8

08003440 <clust2sect>:
	if (clst >= fs->n_fatent - 2) return 0;		/* Invalid cluster# */
 8003440:	4a07      	ldr	r2, [pc, #28]	; (8003460 <clust2sect+0x20>)
	clst -= 2;
 8003442:	3902      	subs	r1, #2
	if (clst >= fs->n_fatent - 2) return 0;		/* Invalid cluster# */
 8003444:	5882      	ldr	r2, [r0, r2]
{
 8003446:	0003      	movs	r3, r0
	if (clst >= fs->n_fatent - 2) return 0;		/* Invalid cluster# */
 8003448:	3a02      	subs	r2, #2
 800344a:	2000      	movs	r0, #0
 800344c:	4291      	cmp	r1, r2
 800344e:	d205      	bcs.n	800345c <clust2sect+0x1c>
	return clst * fs->csize + fs->database;
 8003450:	4a04      	ldr	r2, [pc, #16]	; (8003464 <clust2sect+0x24>)
 8003452:	5c98      	ldrb	r0, [r3, r2]
 8003454:	3226      	adds	r2, #38	; 0x26
 8003456:	4341      	muls	r1, r0
 8003458:	5898      	ldr	r0, [r3, r2]
 800345a:	1808      	adds	r0, r1, r0
}
 800345c:	4770      	bx	lr
 800345e:	46c0      	nop			; (mov r8, r8)
 8003460:	00000414 	.word	0x00000414
 8003464:	00000402 	.word	0x00000402

08003468 <get_fat>:
{
 8003468:	b5f7      	push	{r0, r1, r2, r4, r5, r6, r7, lr}
		val = 1;	/* Internal error */
 800346a:	2501      	movs	r5, #1
{
 800346c:	0004      	movs	r4, r0
 800346e:	000e      	movs	r6, r1
	if (clst < 2 || clst >= fs->n_fatent) {	/* Check range */
 8003470:	42a9      	cmp	r1, r5
 8003472:	d91f      	bls.n	80034b4 <get_fat+0x4c>
 8003474:	4b40      	ldr	r3, [pc, #256]	; (8003578 <get_fat+0x110>)
 8003476:	58c3      	ldr	r3, [r0, r3]
 8003478:	4299      	cmp	r1, r3
 800347a:	d21b      	bcs.n	80034b4 <get_fat+0x4c>
		switch (fs->fs_type) {
 800347c:	2380      	movs	r3, #128	; 0x80
 800347e:	00db      	lsls	r3, r3, #3
 8003480:	5cc3      	ldrb	r3, [r0, r3]
 8003482:	2b02      	cmp	r3, #2
 8003484:	d03e      	beq.n	8003504 <get_fat+0x9c>
 8003486:	2b03      	cmp	r3, #3
 8003488:	d055      	beq.n	8003536 <get_fat+0xce>
 800348a:	42ab      	cmp	r3, r5
 800348c:	d112      	bne.n	80034b4 <get_fat+0x4c>
			if (move_window(fs, fs->fatbase + (bc / SS(fs))) != FR_OK) break;
 800348e:	4b3b      	ldr	r3, [pc, #236]	; (800357c <get_fat+0x114>)
			bc = (UINT)clst; bc += bc / 2;
 8003490:	084f      	lsrs	r7, r1, #1
 8003492:	187f      	adds	r7, r7, r1
			if (move_window(fs, fs->fatbase + (bc / SS(fs))) != FR_OK) break;
 8003494:	5ac1      	ldrh	r1, [r0, r3]
 8003496:	0038      	movs	r0, r7
 8003498:	f7fc fe52 	bl	8000140 <__udivsi3>
 800349c:	2384      	movs	r3, #132	; 0x84
 800349e:	00db      	lsls	r3, r3, #3
 80034a0:	58e3      	ldr	r3, [r4, r3]
 80034a2:	18c1      	adds	r1, r0, r3
 80034a4:	0020      	movs	r0, r4
 80034a6:	9300      	str	r3, [sp, #0]
 80034a8:	f7ff fdd8 	bl	800305c <move_window>
 80034ac:	2800      	cmp	r0, #0
 80034ae:	d003      	beq.n	80034b8 <get_fat+0x50>
		val = 0xFFFFFFFF;	/* Default value falls on disk error */
 80034b0:	2501      	movs	r5, #1
 80034b2:	426d      	negs	r5, r5
}
 80034b4:	0028      	movs	r0, r5
 80034b6:	bdfe      	pop	{r1, r2, r3, r4, r5, r6, r7, pc}
			wc = fs->win.d8[bc++ % SS(fs)];
 80034b8:	1c7b      	adds	r3, r7, #1
 80034ba:	9300      	str	r3, [sp, #0]
 80034bc:	4b2f      	ldr	r3, [pc, #188]	; (800357c <get_fat+0x114>)
 80034be:	0038      	movs	r0, r7
 80034c0:	5ae3      	ldrh	r3, [r4, r3]
 80034c2:	0019      	movs	r1, r3
 80034c4:	9301      	str	r3, [sp, #4]
 80034c6:	f7fc fec1 	bl	800024c <__aeabi_uidivmod>
			if (move_window(fs, fs->fatbase + (bc / SS(fs))) != FR_OK) break;
 80034ca:	9800      	ldr	r0, [sp, #0]
			wc = fs->win.d8[bc++ % SS(fs)];
 80034cc:	5c67      	ldrb	r7, [r4, r1]
			if (move_window(fs, fs->fatbase + (bc / SS(fs))) != FR_OK) break;
 80034ce:	9901      	ldr	r1, [sp, #4]
 80034d0:	f7fc fe36 	bl	8000140 <__udivsi3>
 80034d4:	2384      	movs	r3, #132	; 0x84
 80034d6:	00db      	lsls	r3, r3, #3
 80034d8:	58e1      	ldr	r1, [r4, r3]
 80034da:	1841      	adds	r1, r0, r1
 80034dc:	0020      	movs	r0, r4
 80034de:	f7ff fdbd 	bl	800305c <move_window>
 80034e2:	2800      	cmp	r0, #0
 80034e4:	d1e4      	bne.n	80034b0 <get_fat+0x48>
			wc |= fs->win.d8[bc % SS(fs)] << 8;
 80034e6:	4b25      	ldr	r3, [pc, #148]	; (800357c <get_fat+0x114>)
 80034e8:	9800      	ldr	r0, [sp, #0]
 80034ea:	5ae1      	ldrh	r1, [r4, r3]
 80034ec:	f7fc feae 	bl	800024c <__aeabi_uidivmod>
 80034f0:	5c63      	ldrb	r3, [r4, r1]
 80034f2:	021b      	lsls	r3, r3, #8
 80034f4:	431f      	orrs	r7, r3
			val = clst & 1 ? wc >> 4 : (wc & 0xFFF);
 80034f6:	422e      	tst	r6, r5
 80034f8:	d001      	beq.n	80034fe <get_fat+0x96>
 80034fa:	093d      	lsrs	r5, r7, #4
 80034fc:	e7da      	b.n	80034b4 <get_fat+0x4c>
 80034fe:	053f      	lsls	r7, r7, #20
 8003500:	0d3d      	lsrs	r5, r7, #20
 8003502:	e7d7      	b.n	80034b4 <get_fat+0x4c>
			if (move_window(fs, fs->fatbase + (clst / (SS(fs) / 2))) != FR_OK) break;
 8003504:	4d1d      	ldr	r5, [pc, #116]	; (800357c <get_fat+0x114>)
 8003506:	5b41      	ldrh	r1, [r0, r5]
 8003508:	0030      	movs	r0, r6
 800350a:	0849      	lsrs	r1, r1, #1
 800350c:	f7fc fe18 	bl	8000140 <__udivsi3>
 8003510:	2384      	movs	r3, #132	; 0x84
 8003512:	00db      	lsls	r3, r3, #3
 8003514:	58e1      	ldr	r1, [r4, r3]
 8003516:	1841      	adds	r1, r0, r1
 8003518:	0020      	movs	r0, r4
 800351a:	f7ff fd9f 	bl	800305c <move_window>
 800351e:	2800      	cmp	r0, #0
 8003520:	d1c6      	bne.n	80034b0 <get_fat+0x48>
			p = &fs->win.d8[clst * 2 % SS(fs)];
 8003522:	5b61      	ldrh	r1, [r4, r5]
 8003524:	0070      	lsls	r0, r6, #1
 8003526:	f7fc fe91 	bl	800024c <__aeabi_uidivmod>
			val = LD_WORD(p);
 800352a:	1863      	adds	r3, r4, r1
 800352c:	785d      	ldrb	r5, [r3, #1]
 800352e:	5c63      	ldrb	r3, [r4, r1]
 8003530:	022d      	lsls	r5, r5, #8
 8003532:	431d      	orrs	r5, r3
 8003534:	e7be      	b.n	80034b4 <get_fat+0x4c>
			if (move_window(fs, fs->fatbase + (clst / (SS(fs) / 4))) != FR_OK) break;
 8003536:	4d11      	ldr	r5, [pc, #68]	; (800357c <get_fat+0x114>)
 8003538:	5b41      	ldrh	r1, [r0, r5]
 800353a:	0030      	movs	r0, r6
 800353c:	0889      	lsrs	r1, r1, #2
 800353e:	f7fc fdff 	bl	8000140 <__udivsi3>
 8003542:	2384      	movs	r3, #132	; 0x84
 8003544:	00db      	lsls	r3, r3, #3
 8003546:	58e1      	ldr	r1, [r4, r3]
 8003548:	1841      	adds	r1, r0, r1
 800354a:	0020      	movs	r0, r4
 800354c:	f7ff fd86 	bl	800305c <move_window>
 8003550:	2800      	cmp	r0, #0
 8003552:	d1ad      	bne.n	80034b0 <get_fat+0x48>
			p = &fs->win.d8[clst * 4 % SS(fs)];
 8003554:	5b61      	ldrh	r1, [r4, r5]
 8003556:	00b0      	lsls	r0, r6, #2
 8003558:	f7fc fe78 	bl	800024c <__aeabi_uidivmod>
 800355c:	1863      	adds	r3, r4, r1
			val = LD_DWORD(p) & 0x0FFFFFFF;
 800355e:	78dd      	ldrb	r5, [r3, #3]
 8003560:	789a      	ldrb	r2, [r3, #2]
 8003562:	062d      	lsls	r5, r5, #24
 8003564:	0412      	lsls	r2, r2, #16
 8003566:	4315      	orrs	r5, r2
 8003568:	785b      	ldrb	r3, [r3, #1]
 800356a:	5c62      	ldrb	r2, [r4, r1]
 800356c:	021b      	lsls	r3, r3, #8
 800356e:	4315      	orrs	r5, r2
 8003570:	431d      	orrs	r5, r3
 8003572:	012d      	lsls	r5, r5, #4
 8003574:	092d      	lsrs	r5, r5, #4
 8003576:	e79d      	b.n	80034b4 <get_fat+0x4c>
 8003578:	00000414 	.word	0x00000414
 800357c:	0000040a 	.word	0x0000040a

08003580 <dir_sdi>:
{
 8003580:	b5f7      	push	{r0, r1, r2, r4, r5, r6, r7, lr}
 8003582:	0005      	movs	r5, r0
	dp->index = (WORD)idx;	/* Current index */
 8003584:	4b31      	ldr	r3, [pc, #196]	; (800364c <dir_sdi+0xcc>)
{
 8003586:	000e      	movs	r6, r1
	dp->index = (WORD)idx;	/* Current index */
 8003588:	52e9      	strh	r1, [r5, r3]
	clst = dp->sclust;		/* Table start cluster (0:root) */
 800358a:	3302      	adds	r3, #2
 800358c:	58c4      	ldr	r4, [r0, r3]
	if (clst == 1 || clst >= dp->fs->n_fatent)	/* Check start cluster range */
 800358e:	2c01      	cmp	r4, #1
 8003590:	d101      	bne.n	8003596 <dir_sdi+0x16>
		return FR_INT_ERR;
 8003592:	2002      	movs	r0, #2
}
 8003594:	bdfe      	pop	{r1, r2, r3, r4, r5, r6, r7, pc}
	if (clst == 1 || clst >= dp->fs->n_fatent)	/* Check start cluster range */
 8003596:	2280      	movs	r2, #128	; 0x80
 8003598:	00d2      	lsls	r2, r2, #3
 800359a:	492d      	ldr	r1, [pc, #180]	; (8003650 <dir_sdi+0xd0>)
 800359c:	5883      	ldr	r3, [r0, r2]
 800359e:	9101      	str	r1, [sp, #4]
 80035a0:	5858      	ldr	r0, [r3, r1]
 80035a2:	4284      	cmp	r4, r0
 80035a4:	d2f5      	bcs.n	8003592 <dir_sdi+0x12>
	if (!clst && dp->fs->fs_type == FS_FAT32)	/* Replace cluster# 0 with root cluster# if in FAT32 */
 80035a6:	2c00      	cmp	r4, #0
 80035a8:	d12b      	bne.n	8003602 <dir_sdi+0x82>
 80035aa:	5c9a      	ldrb	r2, [r3, r2]
 80035ac:	2a03      	cmp	r2, #3
 80035ae:	d103      	bne.n	80035b8 <dir_sdi+0x38>
		clst = dp->fs->dirbase;
 80035b0:	4a28      	ldr	r2, [pc, #160]	; (8003654 <dir_sdi+0xd4>)
 80035b2:	589a      	ldr	r2, [r3, r2]
	if (clst == 0) {	/* Static table (root-directory in FAT12/16) */
 80035b4:	2a00      	cmp	r2, #0
 80035b6:	d125      	bne.n	8003604 <dir_sdi+0x84>
		if (idx >= dp->fs->n_rootdir)	/* Is index out of range? */
 80035b8:	2281      	movs	r2, #129	; 0x81
 80035ba:	00d2      	lsls	r2, r2, #3
 80035bc:	5a9a      	ldrh	r2, [r3, r2]
 80035be:	4296      	cmp	r6, r2
 80035c0:	d2e7      	bcs.n	8003592 <dir_sdi+0x12>
		sect = dp->fs->dirbase;
 80035c2:	4a24      	ldr	r2, [pc, #144]	; (8003654 <dir_sdi+0xd4>)
 80035c4:	589f      	ldr	r7, [r3, r2]
	dp->clust = clst;	/* Current cluster# */
 80035c6:	4b24      	ldr	r3, [pc, #144]	; (8003658 <dir_sdi+0xd8>)
 80035c8:	50ec      	str	r4, [r5, r3]
	if (!sect) return FR_INT_ERR;
 80035ca:	2f00      	cmp	r7, #0
 80035cc:	d0e1      	beq.n	8003592 <dir_sdi+0x12>
	dp->sect = sect + idx / (SS(dp->fs) / SZ_DIRE);					/* Sector# of the directory entry */
 80035ce:	3b0c      	subs	r3, #12
 80035d0:	58eb      	ldr	r3, [r5, r3]
 80035d2:	0030      	movs	r0, r6
 80035d4:	9300      	str	r3, [sp, #0]
 80035d6:	9a00      	ldr	r2, [sp, #0]
 80035d8:	4b20      	ldr	r3, [pc, #128]	; (800365c <dir_sdi+0xdc>)
 80035da:	5ad4      	ldrh	r4, [r2, r3]
 80035dc:	0964      	lsrs	r4, r4, #5
 80035de:	0021      	movs	r1, r4
 80035e0:	f7fc fdae 	bl	8000140 <__udivsi3>
 80035e4:	2382      	movs	r3, #130	; 0x82
 80035e6:	19c7      	adds	r7, r0, r7
 80035e8:	00db      	lsls	r3, r3, #3
 80035ea:	50ef      	str	r7, [r5, r3]
	dp->dir = dp->fs->win.d8 + (idx % (SS(dp->fs) / SZ_DIRE)) * SZ_DIRE;	/* Ptr to the entry in the sector */
 80035ec:	0021      	movs	r1, r4
 80035ee:	0030      	movs	r0, r6
 80035f0:	f7fc fe2c 	bl	800024c <__aeabi_uidivmod>
 80035f4:	9b00      	ldr	r3, [sp, #0]
 80035f6:	0149      	lsls	r1, r1, #5
 80035f8:	1859      	adds	r1, r3, r1
 80035fa:	9b01      	ldr	r3, [sp, #4]
	return FR_OK;
 80035fc:	2000      	movs	r0, #0
	dp->dir = dp->fs->win.d8 + (idx % (SS(dp->fs) / SZ_DIRE)) * SZ_DIRE;	/* Ptr to the entry in the sector */
 80035fe:	50e9      	str	r1, [r5, r3]
	return FR_OK;
 8003600:	e7c8      	b.n	8003594 <dir_sdi+0x14>
 8003602:	0022      	movs	r2, r4
 8003604:	2780      	movs	r7, #128	; 0x80
		while (idx >= ic) {	/* Follow cluster chain */
 8003606:	0014      	movs	r4, r2
		ic = SS(dp->fs) / SZ_DIRE * dp->fs->csize;	/* Entries per cluster */
 8003608:	4914      	ldr	r1, [pc, #80]	; (800365c <dir_sdi+0xdc>)
 800360a:	4815      	ldr	r0, [pc, #84]	; (8003660 <dir_sdi+0xe0>)
 800360c:	5a59      	ldrh	r1, [r3, r1]
 800360e:	5c1b      	ldrb	r3, [r3, r0]
 8003610:	0949      	lsrs	r1, r1, #5
 8003612:	434b      	muls	r3, r1
 8003614:	00ff      	lsls	r7, r7, #3
 8003616:	9300      	str	r3, [sp, #0]
		while (idx >= ic) {	/* Follow cluster chain */
 8003618:	9b00      	ldr	r3, [sp, #0]
			clst = get_fat(dp->fs, clst);				/* Get next cluster */
 800361a:	0021      	movs	r1, r4
 800361c:	59e8      	ldr	r0, [r5, r7]
		while (idx >= ic) {	/* Follow cluster chain */
 800361e:	429e      	cmp	r6, r3
 8003620:	d203      	bcs.n	800362a <dir_sdi+0xaa>
		sect = clust2sect(dp->fs, clst);
 8003622:	f7ff ff0d 	bl	8003440 <clust2sect>
 8003626:	0007      	movs	r7, r0
 8003628:	e7cd      	b.n	80035c6 <dir_sdi+0x46>
			clst = get_fat(dp->fs, clst);				/* Get next cluster */
 800362a:	f7ff ff1d 	bl	8003468 <get_fat>
 800362e:	0004      	movs	r4, r0
			if (clst == 0xFFFFFFFF) return FR_DISK_ERR;	/* Disk error */
 8003630:	1c43      	adds	r3, r0, #1
 8003632:	d009      	beq.n	8003648 <dir_sdi+0xc8>
			if (clst < 2 || clst >= dp->fs->n_fatent)	/* Reached to end of table or internal error */
 8003634:	2801      	cmp	r0, #1
 8003636:	d9ac      	bls.n	8003592 <dir_sdi+0x12>
 8003638:	59eb      	ldr	r3, [r5, r7]
 800363a:	9a01      	ldr	r2, [sp, #4]
 800363c:	589b      	ldr	r3, [r3, r2]
 800363e:	4298      	cmp	r0, r3
 8003640:	d2a7      	bcs.n	8003592 <dir_sdi+0x12>
			idx -= ic;
 8003642:	9b00      	ldr	r3, [sp, #0]
 8003644:	1af6      	subs	r6, r6, r3
 8003646:	e7e7      	b.n	8003618 <dir_sdi+0x98>
			if (clst == 0xFFFFFFFF) return FR_DISK_ERR;	/* Disk error */
 8003648:	2001      	movs	r0, #1
 800364a:	e7a3      	b.n	8003594 <dir_sdi+0x14>
 800364c:	00000406 	.word	0x00000406
 8003650:	00000414 	.word	0x00000414
 8003654:	00000424 	.word	0x00000424
 8003658:	0000040c 	.word	0x0000040c
 800365c:	0000040a 	.word	0x0000040a
 8003660:	00000402 	.word	0x00000402

08003664 <put_fat>:
{
 8003664:	b5f0      	push	{r4, r5, r6, r7, lr}
 8003666:	b085      	sub	sp, #20
 8003668:	0004      	movs	r4, r0
 800366a:	000d      	movs	r5, r1
 800366c:	9201      	str	r2, [sp, #4]
		res = FR_INT_ERR;
 800366e:	2602      	movs	r6, #2
	if (clst < 2 || clst >= fs->n_fatent) {	/* Check range */
 8003670:	2901      	cmp	r1, #1
 8003672:	d955      	bls.n	8003720 <put_fat+0xbc>
 8003674:	4b4f      	ldr	r3, [pc, #316]	; (80037b4 <put_fat+0x150>)
 8003676:	58c3      	ldr	r3, [r0, r3]
 8003678:	4299      	cmp	r1, r3
 800367a:	d251      	bcs.n	8003720 <put_fat+0xbc>
		switch (fs->fs_type) {
 800367c:	2380      	movs	r3, #128	; 0x80
 800367e:	00db      	lsls	r3, r3, #3
 8003680:	5cc3      	ldrb	r3, [r0, r3]
 8003682:	9302      	str	r3, [sp, #8]
 8003684:	42b3      	cmp	r3, r6
 8003686:	d056      	beq.n	8003736 <put_fat+0xd2>
 8003688:	2b03      	cmp	r3, #3
 800368a:	d100      	bne.n	800368e <put_fat+0x2a>
 800368c:	e071      	b.n	8003772 <put_fat+0x10e>
 800368e:	2b01      	cmp	r3, #1
 8003690:	d146      	bne.n	8003720 <put_fat+0xbc>
			res = move_window(fs, fs->fatbase + (bc / SS(fs)));
 8003692:	4b49      	ldr	r3, [pc, #292]	; (80037b8 <put_fat+0x154>)
			bc = (UINT)clst; bc += bc / 2;
 8003694:	084f      	lsrs	r7, r1, #1
 8003696:	187f      	adds	r7, r7, r1
			res = move_window(fs, fs->fatbase + (bc / SS(fs)));
 8003698:	5ac1      	ldrh	r1, [r0, r3]
 800369a:	0038      	movs	r0, r7
 800369c:	f7fc fd50 	bl	8000140 <__udivsi3>
 80036a0:	2384      	movs	r3, #132	; 0x84
 80036a2:	00db      	lsls	r3, r3, #3
 80036a4:	58e1      	ldr	r1, [r4, r3]
 80036a6:	1841      	adds	r1, r0, r1
 80036a8:	0020      	movs	r0, r4
 80036aa:	f7ff fcd7 	bl	800305c <move_window>
 80036ae:	4b42      	ldr	r3, [pc, #264]	; (80037b8 <put_fat+0x154>)
 80036b0:	1e06      	subs	r6, r0, #0
 80036b2:	9303      	str	r3, [sp, #12]
			if (res != FR_OK) break;
 80036b4:	d134      	bne.n	8003720 <put_fat+0xbc>
			p = &fs->win.d8[bc++ % SS(fs)];
 80036b6:	1c7b      	adds	r3, r7, #1
 80036b8:	9303      	str	r3, [sp, #12]
 80036ba:	4b3f      	ldr	r3, [pc, #252]	; (80037b8 <put_fat+0x154>)
 80036bc:	0038      	movs	r0, r7
 80036be:	5ae6      	ldrh	r6, [r4, r3]
 80036c0:	0031      	movs	r1, r6
 80036c2:	f7fc fdc3 	bl	800024c <__aeabi_uidivmod>
			*p = (clst & 1) ? ((*p & 0x0F) | ((BYTE)val << 4)) : (BYTE)val;
 80036c6:	466b      	mov	r3, sp
 80036c8:	9f02      	ldr	r7, [sp, #8]
 80036ca:	791b      	ldrb	r3, [r3, #4]
 80036cc:	402f      	ands	r7, r5
 80036ce:	d009      	beq.n	80036e4 <put_fat+0x80>
 80036d0:	220f      	movs	r2, #15
 80036d2:	20ff      	movs	r0, #255	; 0xff
 80036d4:	5c63      	ldrb	r3, [r4, r1]
 80036d6:	0100      	lsls	r0, r0, #4
 80036d8:	4013      	ands	r3, r2
 80036da:	9a01      	ldr	r2, [sp, #4]
 80036dc:	0112      	lsls	r2, r2, #4
 80036de:	4002      	ands	r2, r0
 80036e0:	4313      	orrs	r3, r2
 80036e2:	b2db      	uxtb	r3, r3
 80036e4:	5463      	strb	r3, [r4, r1]
			fs->wflag = 1;
 80036e6:	2301      	movs	r3, #1
 80036e8:	4d34      	ldr	r5, [pc, #208]	; (80037bc <put_fat+0x158>)
			res = move_window(fs, fs->fatbase + (bc / SS(fs)));
 80036ea:	0031      	movs	r1, r6
			fs->wflag = 1;
 80036ec:	5563      	strb	r3, [r4, r5]
			res = move_window(fs, fs->fatbase + (bc / SS(fs)));
 80036ee:	9803      	ldr	r0, [sp, #12]
 80036f0:	f7fc fd26 	bl	8000140 <__udivsi3>
 80036f4:	2384      	movs	r3, #132	; 0x84
 80036f6:	00db      	lsls	r3, r3, #3
 80036f8:	58e1      	ldr	r1, [r4, r3]
 80036fa:	1841      	adds	r1, r0, r1
 80036fc:	0020      	movs	r0, r4
 80036fe:	f7ff fcad 	bl	800305c <move_window>
 8003702:	1e06      	subs	r6, r0, #0
			if (res != FR_OK) break;
 8003704:	d10c      	bne.n	8003720 <put_fat+0xbc>
			p = &fs->win.d8[bc % SS(fs)];
 8003706:	4b2c      	ldr	r3, [pc, #176]	; (80037b8 <put_fat+0x154>)
 8003708:	9803      	ldr	r0, [sp, #12]
 800370a:	5ae1      	ldrh	r1, [r4, r3]
 800370c:	f7fc fd9e 	bl	800024c <__aeabi_uidivmod>
			*p = (clst & 1) ? (BYTE)(val >> 4) : ((*p & 0xF0) | ((BYTE)(val >> 8) & 0x0F));
 8003710:	2f00      	cmp	r7, #0
 8003712:	d008      	beq.n	8003726 <put_fat+0xc2>
 8003714:	9b01      	ldr	r3, [sp, #4]
 8003716:	091b      	lsrs	r3, r3, #4
 8003718:	b2db      	uxtb	r3, r3
 800371a:	5463      	strb	r3, [r4, r1]
			fs->wflag = 1;
 800371c:	2301      	movs	r3, #1
 800371e:	5563      	strb	r3, [r4, r5]
}
 8003720:	0030      	movs	r0, r6
 8003722:	b005      	add	sp, #20
 8003724:	bdf0      	pop	{r4, r5, r6, r7, pc}
			*p = (clst & 1) ? (BYTE)(val >> 4) : ((*p & 0xF0) | ((BYTE)(val >> 8) & 0x0F));
 8003726:	200f      	movs	r0, #15
 8003728:	9a01      	ldr	r2, [sp, #4]
 800372a:	5c63      	ldrb	r3, [r4, r1]
 800372c:	0a12      	lsrs	r2, r2, #8
 800372e:	4383      	bics	r3, r0
 8003730:	4002      	ands	r2, r0
 8003732:	4313      	orrs	r3, r2
 8003734:	e7f1      	b.n	800371a <put_fat+0xb6>
			res = move_window(fs, fs->fatbase + (clst / (SS(fs) / 2)));
 8003736:	4f20      	ldr	r7, [pc, #128]	; (80037b8 <put_fat+0x154>)
 8003738:	5bc1      	ldrh	r1, [r0, r7]
 800373a:	0028      	movs	r0, r5
 800373c:	0849      	lsrs	r1, r1, #1
 800373e:	f7fc fcff 	bl	8000140 <__udivsi3>
 8003742:	2384      	movs	r3, #132	; 0x84
 8003744:	00db      	lsls	r3, r3, #3
 8003746:	58e1      	ldr	r1, [r4, r3]
 8003748:	1841      	adds	r1, r0, r1
 800374a:	0020      	movs	r0, r4
 800374c:	f7ff fc86 	bl	800305c <move_window>
 8003750:	1e06      	subs	r6, r0, #0
			if (res != FR_OK) break;
 8003752:	d1e5      	bne.n	8003720 <put_fat+0xbc>
			p = &fs->win.d8[clst * 2 % SS(fs)];
 8003754:	5be1      	ldrh	r1, [r4, r7]
 8003756:	0068      	lsls	r0, r5, #1
 8003758:	f7fc fd78 	bl	800024c <__aeabi_uidivmod>
			ST_WORD(p, (WORD)val);
 800375c:	466b      	mov	r3, sp
 800375e:	791b      	ldrb	r3, [r3, #4]
 8003760:	5463      	strb	r3, [r4, r1]
 8003762:	9b01      	ldr	r3, [sp, #4]
 8003764:	1861      	adds	r1, r4, r1
 8003766:	0a1b      	lsrs	r3, r3, #8
 8003768:	704b      	strb	r3, [r1, #1]
			fs->wflag = 1;
 800376a:	2201      	movs	r2, #1
 800376c:	4b13      	ldr	r3, [pc, #76]	; (80037bc <put_fat+0x158>)
 800376e:	54e2      	strb	r2, [r4, r3]
 8003770:	e7d6      	b.n	8003720 <put_fat+0xbc>
			res = move_window(fs, fs->fatbase + (clst / (SS(fs) / 4)));
 8003772:	4f11      	ldr	r7, [pc, #68]	; (80037b8 <put_fat+0x154>)
 8003774:	5bc1      	ldrh	r1, [r0, r7]
 8003776:	0028      	movs	r0, r5
 8003778:	0889      	lsrs	r1, r1, #2
 800377a:	f7fc fce1 	bl	8000140 <__udivsi3>
 800377e:	2384      	movs	r3, #132	; 0x84
 8003780:	00db      	lsls	r3, r3, #3
 8003782:	58e1      	ldr	r1, [r4, r3]
 8003784:	1841      	adds	r1, r0, r1
 8003786:	0020      	movs	r0, r4
 8003788:	f7ff fc68 	bl	800305c <move_window>
 800378c:	1e06      	subs	r6, r0, #0
			if (res != FR_OK) break;
 800378e:	d1c7      	bne.n	8003720 <put_fat+0xbc>
			p = &fs->win.d8[clst * 4 % SS(fs)];
 8003790:	5be1      	ldrh	r1, [r4, r7]
 8003792:	00a8      	lsls	r0, r5, #2
 8003794:	f7fc fd5a 	bl	800024c <__aeabi_uidivmod>
 8003798:	1862      	adds	r2, r4, r1
			val |= LD_DWORD(p) & 0xF0000000;
 800379a:	78d3      	ldrb	r3, [r2, #3]
 800379c:	9801      	ldr	r0, [sp, #4]
 800379e:	091b      	lsrs	r3, r3, #4
 80037a0:	071b      	lsls	r3, r3, #28
 80037a2:	4303      	orrs	r3, r0
			ST_DWORD(p, val);
 80037a4:	5463      	strb	r3, [r4, r1]
 80037a6:	0a19      	lsrs	r1, r3, #8
 80037a8:	7051      	strb	r1, [r2, #1]
 80037aa:	0c19      	lsrs	r1, r3, #16
 80037ac:	0e1b      	lsrs	r3, r3, #24
 80037ae:	7091      	strb	r1, [r2, #2]
 80037b0:	70d3      	strb	r3, [r2, #3]
 80037b2:	e7da      	b.n	800376a <put_fat+0x106>
 80037b4:	00000414 	.word	0x00000414
 80037b8:	0000040a 	.word	0x0000040a
 80037bc:	00000404 	.word	0x00000404

080037c0 <create_chain>:
{
 80037c0:	b5f8      	push	{r3, r4, r5, r6, r7, lr}
 80037c2:	0005      	movs	r5, r0
 80037c4:	1e0f      	subs	r7, r1, #0
	if (clst == 0) {		/* Create a new chain */
 80037c6:	d109      	bne.n	80037dc <create_chain+0x1c>
		scl = fs->last_clust;			/* Get suggested start point */
 80037c8:	4b2a      	ldr	r3, [pc, #168]	; (8003874 <create_chain+0xb4>)
 80037ca:	58c6      	ldr	r6, [r0, r3]
		if (!scl || scl >= fs->n_fatent) scl = 1;
 80037cc:	2e00      	cmp	r6, #0
 80037ce:	d003      	beq.n	80037d8 <create_chain+0x18>
 80037d0:	4b29      	ldr	r3, [pc, #164]	; (8003878 <create_chain+0xb8>)
 80037d2:	58c3      	ldr	r3, [r0, r3]
 80037d4:	429e      	cmp	r6, r3
 80037d6:	d311      	bcc.n	80037fc <create_chain+0x3c>
 80037d8:	2601      	movs	r6, #1
 80037da:	e00f      	b.n	80037fc <create_chain+0x3c>
		cs = get_fat(fs, clst);			/* Check the cluster status */
 80037dc:	f7ff fe44 	bl	8003468 <get_fat>
 80037e0:	0004      	movs	r4, r0
		if (cs < 2) return 1;			/* Invalid value */
 80037e2:	2801      	cmp	r0, #1
 80037e4:	d943      	bls.n	800386e <create_chain+0xae>
		if (cs == 0xFFFFFFFF) return cs;	/* A disk error occurred */
 80037e6:	1c43      	adds	r3, r0, #1
 80037e8:	d103      	bne.n	80037f2 <create_chain+0x32>
			ncl = 2;
 80037ea:	2401      	movs	r4, #1
 80037ec:	4264      	negs	r4, r4
}
 80037ee:	0020      	movs	r0, r4
 80037f0:	bdf8      	pop	{r3, r4, r5, r6, r7, pc}
		if (cs < fs->n_fatent) return cs;	/* It is already followed by next cluster */
 80037f2:	4b21      	ldr	r3, [pc, #132]	; (8003878 <create_chain+0xb8>)
 80037f4:	003e      	movs	r6, r7
 80037f6:	58eb      	ldr	r3, [r5, r3]
 80037f8:	4298      	cmp	r0, r3
 80037fa:	d3f8      	bcc.n	80037ee <create_chain+0x2e>
		if (!scl || scl >= fs->n_fatent) scl = 1;
 80037fc:	0034      	movs	r4, r6
		if (ncl >= fs->n_fatent) {		/* Check wrap around */
 80037fe:	4b1e      	ldr	r3, [pc, #120]	; (8003878 <create_chain+0xb8>)
		ncl++;							/* Next cluster */
 8003800:	3401      	adds	r4, #1
		if (ncl >= fs->n_fatent) {		/* Check wrap around */
 8003802:	58eb      	ldr	r3, [r5, r3]
 8003804:	429c      	cmp	r4, r3
 8003806:	d304      	bcc.n	8003812 <create_chain+0x52>
			if (ncl > scl) return 0;	/* No free cluster */
 8003808:	2e01      	cmp	r6, #1
 800380a:	d801      	bhi.n	8003810 <create_chain+0x50>
 800380c:	2400      	movs	r4, #0
 800380e:	e7ee      	b.n	80037ee <create_chain+0x2e>
			ncl = 2;
 8003810:	2402      	movs	r4, #2
		cs = get_fat(fs, ncl);			/* Get the cluster status */
 8003812:	0021      	movs	r1, r4
 8003814:	0028      	movs	r0, r5
 8003816:	f7ff fe27 	bl	8003468 <get_fat>
		if (cs == 0) break;				/* Found a free cluster */
 800381a:	2800      	cmp	r0, #0
 800381c:	d006      	beq.n	800382c <create_chain+0x6c>
		if (cs == 0xFFFFFFFF || cs == 1)/* An error occurred */
 800381e:	1c43      	adds	r3, r0, #1
 8003820:	d0e3      	beq.n	80037ea <create_chain+0x2a>
 8003822:	2801      	cmp	r0, #1
 8003824:	d023      	beq.n	800386e <create_chain+0xae>
		if (ncl == scl) return 0;		/* No free cluster */
 8003826:	42b4      	cmp	r4, r6
 8003828:	d1e9      	bne.n	80037fe <create_chain+0x3e>
 800382a:	e7ef      	b.n	800380c <create_chain+0x4c>
	res = put_fat(fs, ncl, 0x0FFFFFFF);	/* Mark the new cluster "last link" */
 800382c:	4a13      	ldr	r2, [pc, #76]	; (800387c <create_chain+0xbc>)
 800382e:	0021      	movs	r1, r4
 8003830:	0028      	movs	r0, r5
 8003832:	f7ff ff17 	bl	8003664 <put_fat>
	if (res == FR_OK && clst != 0) {
 8003836:	2800      	cmp	r0, #0
 8003838:	d117      	bne.n	800386a <create_chain+0xaa>
 800383a:	2f00      	cmp	r7, #0
 800383c:	d10e      	bne.n	800385c <create_chain+0x9c>
		if (fs->free_clust != 0xFFFFFFFF) {
 800383e:	2282      	movs	r2, #130	; 0x82
		fs->last_clust = ncl;			/* Update FSINFO */
 8003840:	4b0c      	ldr	r3, [pc, #48]	; (8003874 <create_chain+0xb4>)
		if (fs->free_clust != 0xFFFFFFFF) {
 8003842:	00d2      	lsls	r2, r2, #3
		fs->last_clust = ncl;			/* Update FSINFO */
 8003844:	50ec      	str	r4, [r5, r3]
		if (fs->free_clust != 0xFFFFFFFF) {
 8003846:	58ab      	ldr	r3, [r5, r2]
 8003848:	1c59      	adds	r1, r3, #1
 800384a:	d0d0      	beq.n	80037ee <create_chain+0x2e>
			fs->free_clust--;
 800384c:	3b01      	subs	r3, #1
 800384e:	50ab      	str	r3, [r5, r2]
			fs->fsi_flag |= 1;
 8003850:	2301      	movs	r3, #1
 8003852:	4a0b      	ldr	r2, [pc, #44]	; (8003880 <create_chain+0xc0>)
 8003854:	5ca9      	ldrb	r1, [r5, r2]
 8003856:	430b      	orrs	r3, r1
 8003858:	54ab      	strb	r3, [r5, r2]
 800385a:	e7c8      	b.n	80037ee <create_chain+0x2e>
		res = put_fat(fs, clst, ncl);	/* Link it to the previous one if needed */
 800385c:	0022      	movs	r2, r4
 800385e:	0039      	movs	r1, r7
 8003860:	0028      	movs	r0, r5
 8003862:	f7ff feff 	bl	8003664 <put_fat>
	if (res == FR_OK) {
 8003866:	2800      	cmp	r0, #0
 8003868:	d0e9      	beq.n	800383e <create_chain+0x7e>
		ncl = (res == FR_DISK_ERR) ? 0xFFFFFFFF : 1;
 800386a:	2801      	cmp	r0, #1
 800386c:	d0bd      	beq.n	80037ea <create_chain+0x2a>
 800386e:	2401      	movs	r4, #1
 8003870:	e7bd      	b.n	80037ee <create_chain+0x2e>
 8003872:	46c0      	nop			; (mov r8, r8)
 8003874:	0000040c 	.word	0x0000040c
 8003878:	00000414 	.word	0x00000414
 800387c:	0fffffff 	.word	0x0fffffff
 8003880:	00000405 	.word	0x00000405

08003884 <dir_next>:
{
 8003884:	b5f0      	push	{r4, r5, r6, r7, lr}
	i = dp->index + 1;
 8003886:	4b55      	ldr	r3, [pc, #340]	; (80039dc <dir_next+0x158>)
{
 8003888:	b089      	sub	sp, #36	; 0x24
 800388a:	9105      	str	r1, [sp, #20]
	i = dp->index + 1;
 800388c:	5ac2      	ldrh	r2, [r0, r3]
{
 800388e:	0004      	movs	r4, r0
	i = dp->index + 1;
 8003890:	3201      	adds	r2, #1
 8003892:	9200      	str	r2, [sp, #0]
	if (!(i & 0xFFFF) || !dp->sect)	/* Report EOT when index has reached 65535 */
 8003894:	466a      	mov	r2, sp
 8003896:	8812      	ldrh	r2, [r2, #0]
 8003898:	9306      	str	r3, [sp, #24]
 800389a:	2a00      	cmp	r2, #0
 800389c:	d102      	bne.n	80038a4 <dir_next+0x20>
		return FR_NO_FILE;
 800389e:	2004      	movs	r0, #4
}
 80038a0:	b009      	add	sp, #36	; 0x24
 80038a2:	bdf0      	pop	{r4, r5, r6, r7, pc}
	if (!(i & 0xFFFF) || !dp->sect)	/* Report EOT when index has reached 65535 */
 80038a4:	2682      	movs	r6, #130	; 0x82
 80038a6:	00f6      	lsls	r6, r6, #3
 80038a8:	5985      	ldr	r5, [r0, r6]
 80038aa:	2d00      	cmp	r5, #0
 80038ac:	d0f7      	beq.n	800389e <dir_next+0x1a>
	if (!(i % (SS(dp->fs) / SZ_DIRE))) {	/* Sector changed? */
 80038ae:	2380      	movs	r3, #128	; 0x80
 80038b0:	00db      	lsls	r3, r3, #3
 80038b2:	58c3      	ldr	r3, [r0, r3]
 80038b4:	4f4a      	ldr	r7, [pc, #296]	; (80039e0 <dir_next+0x15c>)
 80038b6:	9302      	str	r3, [sp, #8]
 80038b8:	5bdb      	ldrh	r3, [r3, r7]
 80038ba:	9800      	ldr	r0, [sp, #0]
 80038bc:	095b      	lsrs	r3, r3, #5
 80038be:	0019      	movs	r1, r3
 80038c0:	9301      	str	r3, [sp, #4]
 80038c2:	f7fc fcc3 	bl	800024c <__aeabi_uidivmod>
 80038c6:	9703      	str	r7, [sp, #12]
 80038c8:	2900      	cmp	r1, #0
 80038ca:	d10c      	bne.n	80038e6 <dir_next+0x62>
		if (!dp->clust) {		/* Static table */
 80038cc:	4b45      	ldr	r3, [pc, #276]	; (80039e4 <dir_next+0x160>)
		dp->sect++;					/* Next sector */
 80038ce:	3501      	adds	r5, #1
		if (!dp->clust) {		/* Static table */
 80038d0:	58e7      	ldr	r7, [r4, r3]
		dp->sect++;					/* Next sector */
 80038d2:	51a5      	str	r5, [r4, r6]
 80038d4:	9304      	str	r3, [sp, #16]
		if (!dp->clust) {		/* Static table */
 80038d6:	2f00      	cmp	r7, #0
 80038d8:	d118      	bne.n	800390c <dir_next+0x88>
			if (i >= dp->fs->n_rootdir)	/* Report EOT if it reached end of static table */
 80038da:	9a02      	ldr	r2, [sp, #8]
 80038dc:	3b04      	subs	r3, #4
 80038de:	5ad3      	ldrh	r3, [r2, r3]
 80038e0:	9a00      	ldr	r2, [sp, #0]
 80038e2:	429a      	cmp	r2, r3
 80038e4:	d2db      	bcs.n	800389e <dir_next+0x1a>
	dp->index = (WORD)i;	/* Current index */
 80038e6:	466a      	mov	r2, sp
 80038e8:	9b06      	ldr	r3, [sp, #24]
 80038ea:	8812      	ldrh	r2, [r2, #0]
	dp->dir = dp->fs->win.d8 + (i % (SS(dp->fs) / SZ_DIRE)) * SZ_DIRE;	/* Current entry in the window */
 80038ec:	9800      	ldr	r0, [sp, #0]
	dp->index = (WORD)i;	/* Current index */
 80038ee:	52e2      	strh	r2, [r4, r3]
	dp->dir = dp->fs->win.d8 + (i % (SS(dp->fs) / SZ_DIRE)) * SZ_DIRE;	/* Current entry in the window */
 80038f0:	2380      	movs	r3, #128	; 0x80
 80038f2:	00db      	lsls	r3, r3, #3
 80038f4:	58e5      	ldr	r5, [r4, r3]
 80038f6:	9b03      	ldr	r3, [sp, #12]
 80038f8:	5ae9      	ldrh	r1, [r5, r3]
 80038fa:	0949      	lsrs	r1, r1, #5
 80038fc:	f7fc fca6 	bl	800024c <__aeabi_uidivmod>
 8003900:	4b39      	ldr	r3, [pc, #228]	; (80039e8 <dir_next+0x164>)
 8003902:	0149      	lsls	r1, r1, #5
 8003904:	186d      	adds	r5, r5, r1
 8003906:	50e5      	str	r5, [r4, r3]
	return FR_OK;
 8003908:	2000      	movs	r0, #0
 800390a:	e7c9      	b.n	80038a0 <dir_next+0x1c>
			if (((i / (SS(dp->fs) / SZ_DIRE)) & (dp->fs->csize - 1)) == 0) {	/* Cluster changed? */
 800390c:	4e37      	ldr	r6, [pc, #220]	; (80039ec <dir_next+0x168>)
 800390e:	9b02      	ldr	r3, [sp, #8]
 8003910:	9901      	ldr	r1, [sp, #4]
 8003912:	9800      	ldr	r0, [sp, #0]
 8003914:	5d9d      	ldrb	r5, [r3, r6]
 8003916:	f7fc fc13 	bl	8000140 <__udivsi3>
 800391a:	3d01      	subs	r5, #1
 800391c:	4028      	ands	r0, r5
 800391e:	9001      	str	r0, [sp, #4]
 8003920:	9607      	str	r6, [sp, #28]
 8003922:	d1e0      	bne.n	80038e6 <dir_next+0x62>
				clst = get_fat(dp->fs, dp->clust);				/* Get next cluster */
 8003924:	0039      	movs	r1, r7
 8003926:	9802      	ldr	r0, [sp, #8]
 8003928:	f7ff fd9e 	bl	8003468 <get_fat>
 800392c:	0006      	movs	r6, r0
				if (clst <= 1) return FR_INT_ERR;
 800392e:	2801      	cmp	r0, #1
 8003930:	d801      	bhi.n	8003936 <dir_next+0xb2>
 8003932:	2002      	movs	r0, #2
 8003934:	e7b4      	b.n	80038a0 <dir_next+0x1c>
				if (clst == 0xFFFFFFFF) return FR_DISK_ERR;
 8003936:	1c43      	adds	r3, r0, #1
 8003938:	d101      	bne.n	800393e <dir_next+0xba>
 800393a:	2001      	movs	r0, #1
 800393c:	e7b0      	b.n	80038a0 <dir_next+0x1c>
				if (clst >= dp->fs->n_fatent) {					/* If it reached end of dynamic table, */
 800393e:	2380      	movs	r3, #128	; 0x80
 8003940:	00db      	lsls	r3, r3, #3
 8003942:	58e0      	ldr	r0, [r4, r3]
 8003944:	4b28      	ldr	r3, [pc, #160]	; (80039e8 <dir_next+0x164>)
 8003946:	58c3      	ldr	r3, [r0, r3]
 8003948:	429e      	cmp	r6, r3
 800394a:	d32c      	bcc.n	80039a6 <dir_next+0x122>
					if (!stretch) return FR_NO_FILE;			/* If do not stretch, report EOT */
 800394c:	9b05      	ldr	r3, [sp, #20]
 800394e:	2b00      	cmp	r3, #0
 8003950:	d0a5      	beq.n	800389e <dir_next+0x1a>
					clst = create_chain(dp->fs, dp->clust);		/* Stretch cluster chain */
 8003952:	9b04      	ldr	r3, [sp, #16]
 8003954:	58e1      	ldr	r1, [r4, r3]
 8003956:	f7ff ff33 	bl	80037c0 <create_chain>
 800395a:	0006      	movs	r6, r0
					if (clst == 0) return FR_DENIED;			/* No free cluster */
 800395c:	2007      	movs	r0, #7
 800395e:	2e00      	cmp	r6, #0
 8003960:	d09e      	beq.n	80038a0 <dir_next+0x1c>
					if (clst == 1) return FR_INT_ERR;
 8003962:	2e01      	cmp	r6, #1
 8003964:	d0e5      	beq.n	8003932 <dir_next+0xae>
					if (clst == 0xFFFFFFFF) return FR_DISK_ERR;
 8003966:	1c73      	adds	r3, r6, #1
 8003968:	d0e7      	beq.n	800393a <dir_next+0xb6>
					if (sync_window(dp->fs)) return FR_DISK_ERR;/* Flush disk access window */
 800396a:	2580      	movs	r5, #128	; 0x80
 800396c:	00ed      	lsls	r5, r5, #3
 800396e:	5960      	ldr	r0, [r4, r5]
 8003970:	f7ff faf2 	bl	8002f58 <sync_window>
 8003974:	1e01      	subs	r1, r0, #0
 8003976:	d1e0      	bne.n	800393a <dir_next+0xb6>
					mem_set(dp->fs->win.d8, 0, SS(dp->fs));		/* Clear window buffer */
 8003978:	5963      	ldr	r3, [r4, r5]
 800397a:	9a03      	ldr	r2, [sp, #12]
 800397c:	0018      	movs	r0, r3
 800397e:	5a9a      	ldrh	r2, [r3, r2]
 8003980:	f7ff f921 	bl	8002bc6 <mem_set>
					dp->fs->winsect = clust2sect(dp->fs, clst);	/* Cluster start sector */
 8003984:	5967      	ldr	r7, [r4, r5]
 8003986:	0031      	movs	r1, r6
 8003988:	0038      	movs	r0, r7
 800398a:	f7ff fd59 	bl	8003440 <clust2sect>
 800398e:	4b18      	ldr	r3, [pc, #96]	; (80039f0 <dir_next+0x16c>)
 8003990:	50f8      	str	r0, [r7, r3]
 8003992:	001f      	movs	r7, r3
					for (c = 0; c < dp->fs->csize; c++) {		/* Fill the new cluster with 0 */
 8003994:	5960      	ldr	r0, [r4, r5]
 8003996:	9b07      	ldr	r3, [sp, #28]
 8003998:	9a01      	ldr	r2, [sp, #4]
 800399a:	5cc3      	ldrb	r3, [r0, r3]
 800399c:	429a      	cmp	r2, r3
 800399e:	d30e      	bcc.n	80039be <dir_next+0x13a>
					dp->fs->winsect -= c;						/* Rewind window offset */
 80039a0:	59c3      	ldr	r3, [r0, r7]
 80039a2:	1a9d      	subs	r5, r3, r2
 80039a4:	51c5      	str	r5, [r0, r7]
				dp->clust = clst;				/* Initialize data for new cluster */
 80039a6:	9b04      	ldr	r3, [sp, #16]
				dp->sect = clust2sect(dp->fs, clst);
 80039a8:	0031      	movs	r1, r6
				dp->clust = clst;				/* Initialize data for new cluster */
 80039aa:	50e6      	str	r6, [r4, r3]
				dp->sect = clust2sect(dp->fs, clst);
 80039ac:	2380      	movs	r3, #128	; 0x80
 80039ae:	00db      	lsls	r3, r3, #3
 80039b0:	58e0      	ldr	r0, [r4, r3]
 80039b2:	f7ff fd45 	bl	8003440 <clust2sect>
 80039b6:	2382      	movs	r3, #130	; 0x82
 80039b8:	00db      	lsls	r3, r3, #3
 80039ba:	50e0      	str	r0, [r4, r3]
 80039bc:	e793      	b.n	80038e6 <dir_next+0x62>
						dp->fs->wflag = 1;
 80039be:	2201      	movs	r2, #1
 80039c0:	4b0c      	ldr	r3, [pc, #48]	; (80039f4 <dir_next+0x170>)
 80039c2:	54c2      	strb	r2, [r0, r3]
 80039c4:	f7ff fa96 	bl	8002ef4 <sync_window.part.1>
						if (sync_window(dp->fs)) return FR_DISK_ERR;
 80039c8:	2800      	cmp	r0, #0
 80039ca:	d1b6      	bne.n	800393a <dir_next+0xb6>
						dp->fs->winsect++;
 80039cc:	5962      	ldr	r2, [r4, r5]
 80039ce:	59d3      	ldr	r3, [r2, r7]
 80039d0:	3301      	adds	r3, #1
 80039d2:	51d3      	str	r3, [r2, r7]
					for (c = 0; c < dp->fs->csize; c++) {		/* Fill the new cluster with 0 */
 80039d4:	9b01      	ldr	r3, [sp, #4]
 80039d6:	3301      	adds	r3, #1
 80039d8:	9301      	str	r3, [sp, #4]
 80039da:	e7db      	b.n	8003994 <dir_next+0x110>
 80039dc:	00000406 	.word	0x00000406
 80039e0:	0000040a 	.word	0x0000040a
 80039e4:	0000040c 	.word	0x0000040c
 80039e8:	00000414 	.word	0x00000414
 80039ec:	00000402 	.word	0x00000402
 80039f0:	0000042c 	.word	0x0000042c
 80039f4:	00000404 	.word	0x00000404

080039f8 <dir_find.part.6>:
	ord = sum = 0xFF; dp->lfn_idx = 0xFFFF;	/* Reset LFN sequence */
 80039f8:	2201      	movs	r2, #1
 80039fa:	4b50      	ldr	r3, [pc, #320]	; (8003b3c <dir_find.part.6+0x144>)
 80039fc:	4252      	negs	r2, r2
FRESULT dir_find (
 80039fe:	b5f0      	push	{r4, r5, r6, r7, lr}
	ord = sum = 0xFF; dp->lfn_idx = 0xFFFF;	/* Reset LFN sequence */
 8003a00:	52c2      	strh	r2, [r0, r3]
 8003a02:	3201      	adds	r2, #1
 8003a04:	32ff      	adds	r2, #255	; 0xff
FRESULT dir_find (
 8003a06:	0005      	movs	r5, r0
	ord = sum = 0xFF; dp->lfn_idx = 0xFFFF;	/* Reset LFN sequence */
 8003a08:	0014      	movs	r4, r2
FRESULT dir_find (
 8003a0a:	b087      	sub	sp, #28
	ord = sum = 0xFF; dp->lfn_idx = 0xFFFF;	/* Reset LFN sequence */
 8003a0c:	9202      	str	r2, [sp, #8]
 8003a0e:	9303      	str	r3, [sp, #12]
		res = move_window(dp->fs, dp->sect);
 8003a10:	2382      	movs	r3, #130	; 0x82
 8003a12:	00db      	lsls	r3, r3, #3
 8003a14:	58e9      	ldr	r1, [r5, r3]
 8003a16:	3b10      	subs	r3, #16
 8003a18:	58e8      	ldr	r0, [r5, r3]
 8003a1a:	f7ff fb1f 	bl	800305c <move_window>
 8003a1e:	1e07      	subs	r7, r0, #0
		if (res != FR_OK) break;
 8003a20:	d000      	beq.n	8003a24 <dir_find.part.6+0x2c>
 8003a22:	e085      	b.n	8003b30 <dir_find.part.6+0x138>
		dir = dp->dir;					/* Ptr to the directory entry of current index */
 8003a24:	4b46      	ldr	r3, [pc, #280]	; (8003b40 <dir_find.part.6+0x148>)
 8003a26:	58ee      	ldr	r6, [r5, r3]
		c = dir[DIR_Name];
 8003a28:	7833      	ldrb	r3, [r6, #0]
		if (c == 0) { res = FR_NO_FILE; break; }	/* Reached to end of table */
 8003a2a:	2b00      	cmp	r3, #0
 8003a2c:	d100      	bne.n	8003a30 <dir_find.part.6+0x38>
 8003a2e:	e082      	b.n	8003b36 <dir_find.part.6+0x13e>
		if (c == DDEM || ((a & AM_VOL) && a != AM_LFN)) {	/* An entry without valid data */
 8003a30:	2be5      	cmp	r3, #229	; 0xe5
 8003a32:	d006      	beq.n	8003a42 <dir_find.part.6+0x4a>
		a = dir[DIR_Attr] & AM_MASK;
 8003a34:	223f      	movs	r2, #63	; 0x3f
 8003a36:	7af1      	ldrb	r1, [r6, #11]
 8003a38:	400a      	ands	r2, r1
		if (c == DDEM || ((a & AM_VOL) && a != AM_LFN)) {	/* An entry without valid data */
 8003a3a:	0709      	lsls	r1, r1, #28
 8003a3c:	d506      	bpl.n	8003a4c <dir_find.part.6+0x54>
 8003a3e:	2a0f      	cmp	r2, #15
 8003a40:	d006      	beq.n	8003a50 <dir_find.part.6+0x58>
				ord = 0xFF; dp->lfn_idx = 0xFFFF;	/* Reset LFN sequence */
 8003a42:	2301      	movs	r3, #1
 8003a44:	9a03      	ldr	r2, [sp, #12]
 8003a46:	425b      	negs	r3, r3
 8003a48:	52ab      	strh	r3, [r5, r2]
 8003a4a:	e04e      	b.n	8003aea <dir_find.part.6+0xf2>
			if (a == AM_LFN) {			/* An LFN entry is found */
 8003a4c:	2a0f      	cmp	r2, #15
 8003a4e:	d158      	bne.n	8003b02 <dir_find.part.6+0x10a>
				if (dp->lfn) {
 8003a50:	2284      	movs	r2, #132	; 0x84
 8003a52:	00d2      	lsls	r2, r2, #3
 8003a54:	58aa      	ldr	r2, [r5, r2]
 8003a56:	9201      	str	r2, [sp, #4]
 8003a58:	2a00      	cmp	r2, #0
 8003a5a:	d047      	beq.n	8003aec <dir_find.part.6+0xf4>
					if (c & LLEF) {		/* Is it start of LFN sequence? */
 8003a5c:	2240      	movs	r2, #64	; 0x40
 8003a5e:	4213      	tst	r3, r2
 8003a60:	d041      	beq.n	8003ae6 <dir_find.part.6+0xee>
						c &= ~LLEF; ord = c;	/* LFN start order */
 8003a62:	4393      	bics	r3, r2
 8003a64:	001c      	movs	r4, r3
						dp->lfn_idx = dp->index;	/* Start index of LFN */
 8003a66:	4b37      	ldr	r3, [pc, #220]	; (8003b44 <dir_find.part.6+0x14c>)
						sum = dir[LDIR_Chksum];
 8003a68:	7b71      	ldrb	r1, [r6, #13]
						dp->lfn_idx = dp->index;	/* Start index of LFN */
 8003a6a:	5aeb      	ldrh	r3, [r5, r3]
 8003a6c:	9a03      	ldr	r2, [sp, #12]
						sum = dir[LDIR_Chksum];
 8003a6e:	9102      	str	r1, [sp, #8]
						dp->lfn_idx = dp->index;	/* Start index of LFN */
 8003a70:	52ab      	strh	r3, [r5, r2]
					ord = (c == ord && sum == dir[LDIR_Chksum] && cmp_lfn(dp->lfn, dir)) ? ord - 1 : 0xFF;
 8003a72:	7b73      	ldrb	r3, [r6, #13]
 8003a74:	9a02      	ldr	r2, [sp, #8]
 8003a76:	4293      	cmp	r3, r2
 8003a78:	d137      	bne.n	8003aea <dir_find.part.6+0xf2>
	i = ((dir[LDIR_Ord] & ~LLEF) - 1) * 13;	/* Get offset in the LFN buffer */
 8003a7a:	2240      	movs	r2, #64	; 0x40
 8003a7c:	270d      	movs	r7, #13
 8003a7e:	7833      	ldrb	r3, [r6, #0]
 8003a80:	4393      	bics	r3, r2
 8003a82:	3b01      	subs	r3, #1
	s = 0; wc = 1;
 8003a84:	2200      	movs	r2, #0
	i = ((dir[LDIR_Ord] & ~LLEF) - 1) * 13;	/* Get offset in the LFN buffer */
 8003a86:	435f      	muls	r7, r3
	s = 0; wc = 1;
 8003a88:	2301      	movs	r3, #1
 8003a8a:	9200      	str	r2, [sp, #0]
		uc = LD_WORD(dir + LfnOfs[s]);	/* Pick an LFN character from the entry */
 8003a8c:	4a2e      	ldr	r2, [pc, #184]	; (8003b48 <dir_find.part.6+0x150>)
 8003a8e:	9900      	ldr	r1, [sp, #0]
 8003a90:	5c89      	ldrb	r1, [r1, r2]
 8003a92:	1872      	adds	r2, r6, r1
 8003a94:	7852      	ldrb	r2, [r2, #1]
 8003a96:	5c70      	ldrb	r0, [r6, r1]
 8003a98:	0212      	lsls	r2, r2, #8
 8003a9a:	4310      	orrs	r0, r2
		if (wc) {	/* Last character has not been processed */
 8003a9c:	2b00      	cmp	r3, #0
 8003a9e:	d02c      	beq.n	8003afa <dir_find.part.6+0x102>
			wc = ff_wtoupper(uc);		/* Convert it to upper case */
 8003aa0:	f001 fa1c 	bl	8004edc <ff_wtoupper>
 8003aa4:	9005      	str	r0, [sp, #20]
			if (i >= _MAX_LFN || wc != ff_wtoupper(lfnbuf[i++]))	/* Compare it */
 8003aa6:	2ffe      	cmp	r7, #254	; 0xfe
 8003aa8:	d81f      	bhi.n	8003aea <dir_find.part.6+0xf2>
 8003aaa:	1c7b      	adds	r3, r7, #1
 8003aac:	9304      	str	r3, [sp, #16]
 8003aae:	9b01      	ldr	r3, [sp, #4]
 8003ab0:	007f      	lsls	r7, r7, #1
 8003ab2:	5af8      	ldrh	r0, [r7, r3]
 8003ab4:	f001 fa12 	bl	8004edc <ff_wtoupper>
 8003ab8:	9a05      	ldr	r2, [sp, #20]
 8003aba:	0003      	movs	r3, r0
 8003abc:	4282      	cmp	r2, r0
 8003abe:	d114      	bne.n	8003aea <dir_find.part.6+0xf2>
 8003ac0:	9f04      	ldr	r7, [sp, #16]
	} while (++s < 13);				/* Repeat until all characters in the entry are checked */
 8003ac2:	9a00      	ldr	r2, [sp, #0]
 8003ac4:	3201      	adds	r2, #1
 8003ac6:	9200      	str	r2, [sp, #0]
 8003ac8:	2a0d      	cmp	r2, #13
 8003aca:	d1df      	bne.n	8003a8c <dir_find.part.6+0x94>
	if ((dir[LDIR_Ord] & LLEF) && wc && lfnbuf[i])	/* Last segment matched but different length */
 8003acc:	7832      	ldrb	r2, [r6, #0]
 8003ace:	0652      	lsls	r2, r2, #25
 8003ad0:	d506      	bpl.n	8003ae0 <dir_find.part.6+0xe8>
 8003ad2:	2b00      	cmp	r3, #0
 8003ad4:	d004      	beq.n	8003ae0 <dir_find.part.6+0xe8>
 8003ad6:	9a01      	ldr	r2, [sp, #4]
 8003ad8:	007b      	lsls	r3, r7, #1
 8003ada:	5a9b      	ldrh	r3, [r3, r2]
 8003adc:	2b00      	cmp	r3, #0
 8003ade:	d104      	bne.n	8003aea <dir_find.part.6+0xf2>
					ord = (c == ord && sum == dir[LDIR_Chksum] && cmp_lfn(dp->lfn, dir)) ? ord - 1 : 0xFF;
 8003ae0:	3c01      	subs	r4, #1
 8003ae2:	b2e4      	uxtb	r4, r4
 8003ae4:	e002      	b.n	8003aec <dir_find.part.6+0xf4>
 8003ae6:	42a3      	cmp	r3, r4
 8003ae8:	d0c3      	beq.n	8003a72 <dir_find.part.6+0x7a>
 8003aea:	24ff      	movs	r4, #255	; 0xff
		res = dir_next(dp, 0);		/* Next entry */
 8003aec:	2100      	movs	r1, #0
 8003aee:	0028      	movs	r0, r5
 8003af0:	f7ff fec8 	bl	8003884 <dir_next>
 8003af4:	1e07      	subs	r7, r0, #0
	} while (res == FR_OK);
 8003af6:	d08b      	beq.n	8003a10 <dir_find.part.6+0x18>
 8003af8:	e01a      	b.n	8003b30 <dir_find.part.6+0x138>
			if (uc != 0xFFFF) return 0;	/* Check filler */
 8003afa:	4a14      	ldr	r2, [pc, #80]	; (8003b4c <dir_find.part.6+0x154>)
 8003afc:	4290      	cmp	r0, r2
 8003afe:	d0e0      	beq.n	8003ac2 <dir_find.part.6+0xca>
 8003b00:	e7f3      	b.n	8003aea <dir_find.part.6+0xf2>
				if (!ord && sum == sum_sfn(dir)) break;	/* LFN matched? */
 8003b02:	2c00      	cmp	r4, #0
 8003b04:	d105      	bne.n	8003b12 <dir_find.part.6+0x11a>
 8003b06:	0030      	movs	r0, r6
 8003b08:	f7ff f928 	bl	8002d5c <sum_sfn>
 8003b0c:	9b02      	ldr	r3, [sp, #8]
 8003b0e:	4298      	cmp	r0, r3
 8003b10:	d00e      	beq.n	8003b30 <dir_find.part.6+0x138>
				if (!(dp->fn[NSFLAG] & NS_LOSS) && !mem_cmp(dir, dp->fn, 11)) break;	/* SFN matched? */
 8003b12:	2383      	movs	r3, #131	; 0x83
 8003b14:	2101      	movs	r1, #1
 8003b16:	00db      	lsls	r3, r3, #3
 8003b18:	58ea      	ldr	r2, [r5, r3]
 8003b1a:	7ad3      	ldrb	r3, [r2, #11]
 8003b1c:	400b      	ands	r3, r1
 8003b1e:	d190      	bne.n	8003a42 <dir_find.part.6+0x4a>
 8003b20:	1c58      	adds	r0, r3, #1
	while (cnt-- && (r = *d++ - *s++) == 0) ;
 8003b22:	5cf1      	ldrb	r1, [r6, r3]
 8003b24:	5cd3      	ldrb	r3, [r2, r3]
 8003b26:	4299      	cmp	r1, r3
 8003b28:	d18b      	bne.n	8003a42 <dir_find.part.6+0x4a>
 8003b2a:	0003      	movs	r3, r0
 8003b2c:	280b      	cmp	r0, #11
 8003b2e:	d1f7      	bne.n	8003b20 <dir_find.part.6+0x128>
}
 8003b30:	0038      	movs	r0, r7
 8003b32:	b007      	add	sp, #28
 8003b34:	bdf0      	pop	{r4, r5, r6, r7, pc}
		if (c == 0) { res = FR_NO_FILE; break; }	/* Reached to end of table */
 8003b36:	2704      	movs	r7, #4
 8003b38:	e7fa      	b.n	8003b30 <dir_find.part.6+0x138>
 8003b3a:	46c0      	nop			; (mov r8, r8)
 8003b3c:	00000424 	.word	0x00000424
 8003b40:	00000414 	.word	0x00000414
 8003b44:	00000406 	.word	0x00000406
 8003b48:	080066ec 	.word	0x080066ec
 8003b4c:	0000ffff 	.word	0x0000ffff

08003b50 <follow_path>:
{
 8003b50:	b5f0      	push	{r4, r5, r6, r7, lr}
	if (*path == '/' || *path == '\\')		/* Strip heading separator if exist */
 8003b52:	780b      	ldrb	r3, [r1, #0]
{
 8003b54:	b087      	sub	sp, #28
 8003b56:	0006      	movs	r6, r0
 8003b58:	9101      	str	r1, [sp, #4]
	if (*path == '/' || *path == '\\')		/* Strip heading separator if exist */
 8003b5a:	2b2f      	cmp	r3, #47	; 0x2f
 8003b5c:	d001      	beq.n	8003b62 <follow_path+0x12>
 8003b5e:	2b5c      	cmp	r3, #92	; 0x5c
 8003b60:	d102      	bne.n	8003b68 <follow_path+0x18>
		path++;
 8003b62:	9b01      	ldr	r3, [sp, #4]
 8003b64:	3301      	adds	r3, #1
 8003b66:	9301      	str	r3, [sp, #4]
	dp->sclust = 0;							/* Always start from the root directory */
 8003b68:	2381      	movs	r3, #129	; 0x81
 8003b6a:	2400      	movs	r4, #0
 8003b6c:	00db      	lsls	r3, r3, #3
 8003b6e:	50f4      	str	r4, [r6, r3]
	if ((UINT)*path < ' ') {				/* Null path name is the origin directory itself */
 8003b70:	9b01      	ldr	r3, [sp, #4]
 8003b72:	781b      	ldrb	r3, [r3, #0]
 8003b74:	2b1f      	cmp	r3, #31
 8003b76:	d80a      	bhi.n	8003b8e <follow_path+0x3e>
		res = dir_sdi(dp, 0);
 8003b78:	0021      	movs	r1, r4
 8003b7a:	0030      	movs	r0, r6
 8003b7c:	f7ff fd00 	bl	8003580 <dir_sdi>
		dp->dir = 0;
 8003b80:	4b98      	ldr	r3, [pc, #608]	; (8003de4 <follow_path+0x294>)
 8003b82:	50f4      	str	r4, [r6, r3]
}
 8003b84:	b007      	add	sp, #28
 8003b86:	bdf0      	pop	{r4, r5, r6, r7, pc}
	for (p = *path; *p == '/' || *p == '\\'; p++) ;	/* Strip duplicated separator */
 8003b88:	9b01      	ldr	r3, [sp, #4]
 8003b8a:	3301      	adds	r3, #1
 8003b8c:	9301      	str	r3, [sp, #4]
 8003b8e:	9b01      	ldr	r3, [sp, #4]
 8003b90:	781b      	ldrb	r3, [r3, #0]
 8003b92:	2b2f      	cmp	r3, #47	; 0x2f
 8003b94:	d0f8      	beq.n	8003b88 <follow_path+0x38>
 8003b96:	2b5c      	cmp	r3, #92	; 0x5c
 8003b98:	d0f6      	beq.n	8003b88 <follow_path+0x38>
	lfn = dp->lfn;
 8003b9a:	2384      	movs	r3, #132	; 0x84
 8003b9c:	2400      	movs	r4, #0
 8003b9e:	00db      	lsls	r3, r3, #3
 8003ba0:	58f3      	ldr	r3, [r6, r3]
 8003ba2:	9305      	str	r3, [sp, #20]
		w = p[si++];					/* Get a character */
 8003ba4:	9b01      	ldr	r3, [sp, #4]
 8003ba6:	0027      	movs	r7, r4
 8003ba8:	5d18      	ldrb	r0, [r3, r4]
 8003baa:	1c65      	adds	r5, r4, #1
		if (w < ' ' || w == '/' || w == '\\') break;	/* Break on end of segment */
 8003bac:	281f      	cmp	r0, #31
 8003bae:	d91b      	bls.n	8003be8 <follow_path+0x98>
 8003bb0:	282f      	cmp	r0, #47	; 0x2f
 8003bb2:	d019      	beq.n	8003be8 <follow_path+0x98>
 8003bb4:	285c      	cmp	r0, #92	; 0x5c
 8003bb6:	d017      	beq.n	8003be8 <follow_path+0x98>
		if (di >= _MAX_LFN)				/* Reject too long name */
 8003bb8:	2cff      	cmp	r4, #255	; 0xff
 8003bba:	d00e      	beq.n	8003bda <follow_path+0x8a>
		w = ff_convert(w, 1);			/* Convert ANSI/OEM to Unicode */
 8003bbc:	2101      	movs	r1, #1
 8003bbe:	f001 f96f 	bl	8004ea0 <ff_convert>
		if (!w) return FR_INVALID_NAME;	/* Reject invalid code */
 8003bc2:	2800      	cmp	r0, #0
 8003bc4:	d009      	beq.n	8003bda <follow_path+0x8a>
		if (w < 0x80 && chk_chr("\"*:<>\?|\x7F", w)) /* Reject illegal characters for LFN */
 8003bc6:	287f      	cmp	r0, #127	; 0x7f
 8003bc8:	d809      	bhi.n	8003bde <follow_path+0x8e>
 8003bca:	2300      	movs	r3, #0
	while (*str && *str != chr) str++;
 8003bcc:	4986      	ldr	r1, [pc, #536]	; (8003de8 <follow_path+0x298>)
 8003bce:	5cca      	ldrb	r2, [r1, r3]
 8003bd0:	2a00      	cmp	r2, #0
 8003bd2:	d004      	beq.n	8003bde <follow_path+0x8e>
 8003bd4:	3301      	adds	r3, #1
 8003bd6:	4282      	cmp	r2, r0
 8003bd8:	d1f9      	bne.n	8003bce <follow_path+0x7e>
						if (!(ns & NS_LAST)) res = FR_NO_PATH;	/* Adjust error code if not last segment */
 8003bda:	2006      	movs	r0, #6
 8003bdc:	e7d2      	b.n	8003b84 <follow_path+0x34>
		lfn[di++] = w;					/* Store the Unicode character */
 8003bde:	9b05      	ldr	r3, [sp, #20]
 8003be0:	0064      	lsls	r4, r4, #1
 8003be2:	5318      	strh	r0, [r3, r4]
 8003be4:	002c      	movs	r4, r5
 8003be6:	e7dd      	b.n	8003ba4 <follow_path+0x54>
	*path = &p[si];						/* Return pointer to the next segment */
 8003be8:	9b01      	ldr	r3, [sp, #4]
	cf = (w < ' ') ? NS_LAST : 0;		/* Set last segment flag if end of path */
 8003bea:	2400      	movs	r4, #0
	*path = &p[si];						/* Return pointer to the next segment */
 8003bec:	195b      	adds	r3, r3, r5
 8003bee:	9301      	str	r3, [sp, #4]
	cf = (w < ' ') ? NS_LAST : 0;		/* Set last segment flag if end of path */
 8003bf0:	231f      	movs	r3, #31
 8003bf2:	4283      	cmp	r3, r0
 8003bf4:	4164      	adcs	r4, r4
 8003bf6:	00a4      	lsls	r4, r4, #2
	while (di) {						/* Strip trailing spaces and dots */
 8003bf8:	2f00      	cmp	r7, #0
 8003bfa:	d0ee      	beq.n	8003bda <follow_path+0x8a>
 8003bfc:	9a05      	ldr	r2, [sp, #20]
 8003bfe:	007b      	lsls	r3, r7, #1
 8003c00:	18d3      	adds	r3, r2, r3
		w = lfn[di - 1];
 8003c02:	1e9a      	subs	r2, r3, #2
 8003c04:	8812      	ldrh	r2, [r2, #0]
		if (w != ' ' && w != '.') break;
 8003c06:	2a20      	cmp	r2, #32
 8003c08:	d002      	beq.n	8003c10 <follow_path+0xc0>
 8003c0a:	2a2e      	cmp	r2, #46	; 0x2e
 8003c0c:	d000      	beq.n	8003c10 <follow_path+0xc0>
 8003c0e:	e086      	b.n	8003d1e <follow_path+0x1ce>
		di--;
 8003c10:	3f01      	subs	r7, #1
 8003c12:	e7f1      	b.n	8003bf8 <follow_path+0xa8>
	for (si = 0; lfn[si] == ' ' || lfn[si] == '.'; si++) ;	/* Strip leading spaces and dots */
 8003c14:	3301      	adds	r3, #1
 8003c16:	9905      	ldr	r1, [sp, #20]
 8003c18:	005a      	lsls	r2, r3, #1
 8003c1a:	5a8a      	ldrh	r2, [r1, r2]
 8003c1c:	2a20      	cmp	r2, #32
 8003c1e:	d0f9      	beq.n	8003c14 <follow_path+0xc4>
 8003c20:	2a2e      	cmp	r2, #46	; 0x2e
 8003c22:	d0f7      	beq.n	8003c14 <follow_path+0xc4>
	if (si) cf |= NS_LOSS | NS_LFN;
 8003c24:	2b00      	cmp	r3, #0
 8003c26:	d002      	beq.n	8003c2e <follow_path+0xde>
 8003c28:	2203      	movs	r2, #3
 8003c2a:	4314      	orrs	r4, r2
 8003c2c:	b2e4      	uxtb	r4, r4
	while (di && lfn[di - 1] != '.') di--;	/* Find extension (di<=si: no extension) */
 8003c2e:	007a      	lsls	r2, r7, #1
 8003c30:	9905      	ldr	r1, [sp, #20]
 8003c32:	3a02      	subs	r2, #2
 8003c34:	5a8a      	ldrh	r2, [r1, r2]
 8003c36:	2a2e      	cmp	r2, #46	; 0x2e
 8003c38:	d002      	beq.n	8003c40 <follow_path+0xf0>
 8003c3a:	3f01      	subs	r7, #1
 8003c3c:	2f00      	cmp	r7, #0
 8003c3e:	d1f6      	bne.n	8003c2e <follow_path+0xde>
		dp->fn[i++] = (BYTE)w;
 8003c40:	2208      	movs	r2, #8
 8003c42:	9202      	str	r2, [sp, #8]
 8003c44:	2200      	movs	r2, #0
 8003c46:	0015      	movs	r5, r2
 8003c48:	9204      	str	r2, [sp, #16]
		w = lfn[si++];					/* Get an LFN character */
 8003c4a:	1c5a      	adds	r2, r3, #1
 8003c4c:	9203      	str	r2, [sp, #12]
 8003c4e:	9a05      	ldr	r2, [sp, #20]
 8003c50:	005b      	lsls	r3, r3, #1
 8003c52:	5a98      	ldrh	r0, [r3, r2]
		if (!w) break;					/* Break on end of the LFN */
 8003c54:	2800      	cmp	r0, #0
 8003c56:	d079      	beq.n	8003d4c <follow_path+0x1fc>
		if (w == ' ' || (w == '.' && si != di)) {	/* Remove spaces and dots */
 8003c58:	2820      	cmp	r0, #32
 8003c5a:	d004      	beq.n	8003c66 <follow_path+0x116>
 8003c5c:	282e      	cmp	r0, #46	; 0x2e
 8003c5e:	d107      	bne.n	8003c70 <follow_path+0x120>
 8003c60:	9b03      	ldr	r3, [sp, #12]
 8003c62:	42bb      	cmp	r3, r7
 8003c64:	d066      	beq.n	8003d34 <follow_path+0x1e4>
			cf |= NS_LOSS | NS_LFN; continue;
 8003c66:	2303      	movs	r3, #3
 8003c68:	431c      	orrs	r4, r3
 8003c6a:	b2e4      	uxtb	r4, r4
		dp->fn[i++] = (BYTE)w;
 8003c6c:	9b03      	ldr	r3, [sp, #12]
 8003c6e:	e7ec      	b.n	8003c4a <follow_path+0xfa>
		if (i >= ni || si == di) {		/* Extension or end of SFN */
 8003c70:	9b04      	ldr	r3, [sp, #16]
 8003c72:	9a02      	ldr	r2, [sp, #8]
 8003c74:	4293      	cmp	r3, r2
 8003c76:	d261      	bcs.n	8003d3c <follow_path+0x1ec>
 8003c78:	9b03      	ldr	r3, [sp, #12]
 8003c7a:	42bb      	cmp	r3, r7
 8003c7c:	d114      	bne.n	8003ca8 <follow_path+0x158>
			if (ni == 11) {				/* Long extension */
 8003c7e:	9b02      	ldr	r3, [sp, #8]
 8003c80:	2b0b      	cmp	r3, #11
 8003c82:	d109      	bne.n	8003c98 <follow_path+0x148>
 8003c84:	e05d      	b.n	8003d42 <follow_path+0x1f2>
			if (si != di) cf |= NS_LOSS | NS_LFN;	/* Out of 8.3 format */
 8003c86:	9b03      	ldr	r3, [sp, #12]
 8003c88:	42bb      	cmp	r3, r7
 8003c8a:	d005      	beq.n	8003c98 <follow_path+0x148>
 8003c8c:	2303      	movs	r3, #3
 8003c8e:	431c      	orrs	r4, r3
			if (si > di) break;			/* No extension */
 8003c90:	9b03      	ldr	r3, [sp, #12]
			if (si != di) cf |= NS_LOSS | NS_LFN;	/* Out of 8.3 format */
 8003c92:	b2e4      	uxtb	r4, r4
			if (si > di) break;			/* No extension */
 8003c94:	42bb      	cmp	r3, r7
 8003c96:	d859      	bhi.n	8003d4c <follow_path+0x1fc>
			si = di; i = 8; ni = 11;	/* Enter extension section */
 8003c98:	230b      	movs	r3, #11
			b <<= 2; continue;
 8003c9a:	00ad      	lsls	r5, r5, #2
			si = di; i = 8; ni = 11;	/* Enter extension section */
 8003c9c:	9302      	str	r3, [sp, #8]
			b <<= 2; continue;
 8003c9e:	b2ed      	uxtb	r5, r5
 8003ca0:	9703      	str	r7, [sp, #12]
			si = di; i = 8; ni = 11;	/* Enter extension section */
 8003ca2:	3b03      	subs	r3, #3
		dp->fn[i++] = (BYTE)w;
 8003ca4:	9304      	str	r3, [sp, #16]
 8003ca6:	e7e1      	b.n	8003c6c <follow_path+0x11c>
		if (w >= 0x80) {				/* Non ASCII character */
 8003ca8:	287f      	cmp	r0, #127	; 0x7f
 8003caa:	d90f      	bls.n	8003ccc <follow_path+0x17c>
			w = ff_convert(w, 0);		/* Unicode -> OEM code */
 8003cac:	2100      	movs	r1, #0
 8003cae:	f001 f8f7 	bl	8004ea0 <ff_convert>
			if (w) w = ExCvt[w - 0x80];	/* Convert extended character to upper (SBCS) */
 8003cb2:	2300      	movs	r3, #0
 8003cb4:	4298      	cmp	r0, r3
 8003cb6:	d003      	beq.n	8003cc0 <follow_path+0x170>
 8003cb8:	4b4c      	ldr	r3, [pc, #304]	; (8003dec <follow_path+0x29c>)
 8003cba:	1818      	adds	r0, r3, r0
 8003cbc:	3880      	subs	r0, #128	; 0x80
 8003cbe:	7803      	ldrb	r3, [r0, #0]
 8003cc0:	b298      	uxth	r0, r3
			cf |= NS_LFN;				/* Force create LFN entry */
 8003cc2:	2302      	movs	r3, #2
 8003cc4:	431c      	orrs	r4, r3
 8003cc6:	b2e4      	uxtb	r4, r4
			if (!w || chk_chr("+,;=[]", w)) {	/* Replace illegal characters for SFN */
 8003cc8:	2800      	cmp	r0, #0
 8003cca:	d007      	beq.n	8003cdc <follow_path+0x18c>
			if (w) w = ExCvt[w - 0x80];	/* Convert extended character to upper (SBCS) */
 8003ccc:	2300      	movs	r3, #0
	while (*str && *str != chr) str++;
 8003cce:	4948      	ldr	r1, [pc, #288]	; (8003df0 <follow_path+0x2a0>)
 8003cd0:	5cca      	ldrb	r2, [r1, r3]
 8003cd2:	2a00      	cmp	r2, #0
 8003cd4:	d078      	beq.n	8003dc8 <follow_path+0x278>
 8003cd6:	3301      	adds	r3, #1
 8003cd8:	4282      	cmp	r2, r0
 8003cda:	d1f9      	bne.n	8003cd0 <follow_path+0x180>
				w = '_'; cf |= NS_LOSS | NS_LFN;/* Lossy conversion */
 8003cdc:	2303      	movs	r3, #3
 8003cde:	205f      	movs	r0, #95	; 0x5f
 8003ce0:	431c      	orrs	r4, r3
 8003ce2:	b2e4      	uxtb	r4, r4
		dp->fn[i++] = (BYTE)w;
 8003ce4:	2383      	movs	r3, #131	; 0x83
 8003ce6:	00db      	lsls	r3, r3, #3
 8003ce8:	58f3      	ldr	r3, [r6, r3]
 8003cea:	9a04      	ldr	r2, [sp, #16]
 8003cec:	5498      	strb	r0, [r3, r2]
 8003cee:	0013      	movs	r3, r2
 8003cf0:	3301      	adds	r3, #1
 8003cf2:	e7d7      	b.n	8003ca4 <follow_path+0x154>
					b |= 2;
 8003cf4:	2302      	movs	r3, #2
 8003cf6:	431d      	orrs	r5, r3
 8003cf8:	e7f4      	b.n	8003ce4 <follow_path+0x194>
			if (ns & NS_LAST) break;			/* Last segment matched. Function completed. */
 8003cfa:	075b      	lsls	r3, r3, #29
 8003cfc:	d500      	bpl.n	8003d00 <follow_path+0x1b0>
 8003cfe:	e741      	b.n	8003b84 <follow_path+0x34>
			dir = dp->dir;						/* Follow the sub-directory */
 8003d00:	4b38      	ldr	r3, [pc, #224]	; (8003de4 <follow_path+0x294>)
 8003d02:	58f1      	ldr	r1, [r6, r3]
			if (!(dir[DIR_Attr] & AM_DIR)) {	/* It is not a sub-directory and cannot follow */
 8003d04:	7acb      	ldrb	r3, [r1, #11]
 8003d06:	06db      	lsls	r3, r3, #27
 8003d08:	d55c      	bpl.n	8003dc4 <follow_path+0x274>
			dp->sclust = ld_clust(dp->fs, dir);
 8003d0a:	2380      	movs	r3, #128	; 0x80
 8003d0c:	00db      	lsls	r3, r3, #3
 8003d0e:	58f2      	ldr	r2, [r6, r3]
 8003d10:	5cd0      	ldrb	r0, [r2, r3]
 8003d12:	f7ff f8df 	bl	8002ed4 <ld_clust.isra.0>
 8003d16:	2381      	movs	r3, #129	; 0x81
 8003d18:	00db      	lsls	r3, r3, #3
 8003d1a:	50f0      	str	r0, [r6, r3]
			res = create_name(dp, &path);	/* Get a segment name of the path */
 8003d1c:	e737      	b.n	8003b8e <follow_path+0x3e>
	lfn[di] = 0;						/* LFN is created */
 8003d1e:	2500      	movs	r5, #0
 8003d20:	801d      	strh	r5, [r3, #0]
	mem_set(dp->fn, ' ', 11);
 8003d22:	2383      	movs	r3, #131	; 0x83
 8003d24:	00db      	lsls	r3, r3, #3
 8003d26:	58f0      	ldr	r0, [r6, r3]
 8003d28:	220b      	movs	r2, #11
 8003d2a:	2120      	movs	r1, #32
 8003d2c:	f7fe ff4b 	bl	8002bc6 <mem_set>
	for (si = 0; lfn[si] == ' ' || lfn[si] == '.'; si++) ;	/* Strip leading spaces and dots */
 8003d30:	002b      	movs	r3, r5
 8003d32:	e770      	b.n	8003c16 <follow_path+0xc6>
		if (i >= ni || si == di) {		/* Extension or end of SFN */
 8003d34:	9b04      	ldr	r3, [sp, #16]
 8003d36:	9a02      	ldr	r2, [sp, #8]
 8003d38:	4293      	cmp	r3, r2
 8003d3a:	d3a0      	bcc.n	8003c7e <follow_path+0x12e>
			if (ni == 11) {				/* Long extension */
 8003d3c:	9b02      	ldr	r3, [sp, #8]
 8003d3e:	2b0b      	cmp	r3, #11
 8003d40:	d1a1      	bne.n	8003c86 <follow_path+0x136>
				cf |= NS_LOSS | NS_LFN; break;
 8003d42:	2303      	movs	r3, #3
 8003d44:	431c      	orrs	r4, r3
 8003d46:	3308      	adds	r3, #8
 8003d48:	b2e4      	uxtb	r4, r4
 8003d4a:	9302      	str	r3, [sp, #8]
	if (dp->fn[0] == DDEM) dp->fn[0] = RDDEM;	/* If the first character collides with deleted mark, replace it with RDDEM */
 8003d4c:	2383      	movs	r3, #131	; 0x83
 8003d4e:	00db      	lsls	r3, r3, #3
 8003d50:	58f3      	ldr	r3, [r6, r3]
 8003d52:	781a      	ldrb	r2, [r3, #0]
 8003d54:	2ae5      	cmp	r2, #229	; 0xe5
 8003d56:	d101      	bne.n	8003d5c <follow_path+0x20c>
 8003d58:	3ae0      	subs	r2, #224	; 0xe0
 8003d5a:	701a      	strb	r2, [r3, #0]
	if (ni == 8) b <<= 2;
 8003d5c:	9b02      	ldr	r3, [sp, #8]
 8003d5e:	2b08      	cmp	r3, #8
 8003d60:	d101      	bne.n	8003d66 <follow_path+0x216>
 8003d62:	00ad      	lsls	r5, r5, #2
 8003d64:	b2ed      	uxtb	r5, r5
 8003d66:	230c      	movs	r3, #12
 8003d68:	402b      	ands	r3, r5
	if ((b & 0x0C) == 0x0C || (b & 0x03) == 0x03)	/* Create LFN entry when there are composite capitals */
 8003d6a:	2b0c      	cmp	r3, #12
 8003d6c:	d002      	beq.n	8003d74 <follow_path+0x224>
 8003d6e:	43ea      	mvns	r2, r5
 8003d70:	0792      	lsls	r2, r2, #30
 8003d72:	d102      	bne.n	8003d7a <follow_path+0x22a>
		cf |= NS_LFN;
 8003d74:	2202      	movs	r2, #2
 8003d76:	4314      	orrs	r4, r2
 8003d78:	b2e4      	uxtb	r4, r4
	if (!(cf & NS_LFN)) {						/* When LFN is in 8.3 format without extended character, NT flags are created */
 8003d7a:	07a2      	lsls	r2, r4, #30
 8003d7c:	d40b      	bmi.n	8003d96 <follow_path+0x246>
		if ((b & 0x03) == 0x01) cf |= NS_EXT;	/* NT flag (Extension has only small capital) */
 8003d7e:	2203      	movs	r2, #3
 8003d80:	4015      	ands	r5, r2
 8003d82:	2d01      	cmp	r5, #1
 8003d84:	d102      	bne.n	8003d8c <follow_path+0x23c>
 8003d86:	320d      	adds	r2, #13
 8003d88:	4314      	orrs	r4, r2
 8003d8a:	b2e4      	uxtb	r4, r4
		if ((b & 0x0C) == 0x04) cf |= NS_BODY;	/* NT flag (Filename has only small capital) */
 8003d8c:	2b04      	cmp	r3, #4
 8003d8e:	d102      	bne.n	8003d96 <follow_path+0x246>
 8003d90:	3304      	adds	r3, #4
 8003d92:	431c      	orrs	r4, r3
 8003d94:	b2e4      	uxtb	r4, r4
	dp->fn[NSFLAG] = cf;	/* SFN is created */
 8003d96:	2583      	movs	r5, #131	; 0x83
 8003d98:	00ed      	lsls	r5, r5, #3
 8003d9a:	5973      	ldr	r3, [r6, r5]
	res = dir_sdi(dp, 0);			/* Rewind directory object */
 8003d9c:	2100      	movs	r1, #0
	dp->fn[NSFLAG] = cf;	/* SFN is created */
 8003d9e:	72dc      	strb	r4, [r3, #11]
	res = dir_sdi(dp, 0);			/* Rewind directory object */
 8003da0:	0030      	movs	r0, r6
 8003da2:	f7ff fbed 	bl	8003580 <dir_sdi>
	if (res != FR_OK) return res;
 8003da6:	2800      	cmp	r0, #0
 8003da8:	d102      	bne.n	8003db0 <follow_path+0x260>
 8003daa:	0030      	movs	r0, r6
 8003dac:	f7ff fe24 	bl	80039f8 <dir_find.part.6>
			ns = dp->fn[NSFLAG];
 8003db0:	5973      	ldr	r3, [r6, r5]
 8003db2:	7adb      	ldrb	r3, [r3, #11]
			if (res != FR_OK) {				/* Failed to find the object */
 8003db4:	2800      	cmp	r0, #0
 8003db6:	d0a0      	beq.n	8003cfa <follow_path+0x1aa>
				if (res == FR_NO_FILE) {	/* Object is not found */
 8003db8:	2804      	cmp	r0, #4
 8003dba:	d000      	beq.n	8003dbe <follow_path+0x26e>
 8003dbc:	e6e2      	b.n	8003b84 <follow_path+0x34>
						if (!(ns & NS_LAST)) res = FR_NO_PATH;	/* Adjust error code if not last segment */
 8003dbe:	4203      	tst	r3, r0
 8003dc0:	d000      	beq.n	8003dc4 <follow_path+0x274>
 8003dc2:	e6df      	b.n	8003b84 <follow_path+0x34>
 8003dc4:	2005      	movs	r0, #5
	return res;
 8003dc6:	e6dd      	b.n	8003b84 <follow_path+0x34>
				if (IsUpper(w)) {		/* ASCII large capital */
 8003dc8:	0003      	movs	r3, r0
 8003dca:	3b41      	subs	r3, #65	; 0x41
 8003dcc:	2b19      	cmp	r3, #25
 8003dce:	d991      	bls.n	8003cf4 <follow_path+0x1a4>
					if (IsLower(w)) {	/* ASCII small capital */
 8003dd0:	0003      	movs	r3, r0
 8003dd2:	3b61      	subs	r3, #97	; 0x61
 8003dd4:	2b19      	cmp	r3, #25
 8003dd6:	d885      	bhi.n	8003ce4 <follow_path+0x194>
						b |= 1; w -= 0x20;
 8003dd8:	2301      	movs	r3, #1
 8003dda:	3820      	subs	r0, #32
 8003ddc:	431d      	orrs	r5, r3
 8003dde:	b280      	uxth	r0, r0
 8003de0:	e780      	b.n	8003ce4 <follow_path+0x194>
 8003de2:	46c0      	nop			; (mov r8, r8)
 8003de4:	00000414 	.word	0x00000414
 8003de8:	080066f9 	.word	0x080066f9
 8003dec:	0800666c 	.word	0x0800666c
 8003df0:	08006702 	.word	0x08006702

08003df4 <dir_register>:
	fn = dp->fn; lfn = dp->lfn;
 8003df4:	2383      	movs	r3, #131	; 0x83
{
 8003df6:	b5f0      	push	{r4, r5, r6, r7, lr}
	fn = dp->fn; lfn = dp->lfn;
 8003df8:	2484      	movs	r4, #132	; 0x84
 8003dfa:	00db      	lsls	r3, r3, #3
 8003dfc:	58c6      	ldr	r6, [r0, r3]
{
 8003dfe:	b08b      	sub	sp, #44	; 0x2c
	fn = dp->fn; lfn = dp->lfn;
 8003e00:	00e4      	lsls	r4, r4, #3
 8003e02:	5903      	ldr	r3, [r0, r4]
	mem_cpy(sn, fn, 12);
 8003e04:	ad07      	add	r5, sp, #28
{
 8003e06:	0007      	movs	r7, r0
	mem_cpy(sn, fn, 12);
 8003e08:	220c      	movs	r2, #12
 8003e0a:	0028      	movs	r0, r5
 8003e0c:	0031      	movs	r1, r6
	fn = dp->fn; lfn = dp->lfn;
 8003e0e:	9301      	str	r3, [sp, #4]
	mem_cpy(sn, fn, 12);
 8003e10:	f7fe fed0 	bl	8002bb4 <mem_cpy>
	if (sn[NSFLAG] & NS_LOSS) {			/* When LFN is out of 8.3 format, generate a numbered name */
 8003e14:	7aeb      	ldrb	r3, [r5, #11]
 8003e16:	2501      	movs	r5, #1
 8003e18:	422b      	tst	r3, r5
 8003e1a:	d100      	bne.n	8003e1e <dir_register+0x2a>
 8003e1c:	e077      	b.n	8003f0e <dir_register+0x11a>
		fn[NSFLAG] = 0; dp->lfn = 0;			/* Find only SFN */
 8003e1e:	2300      	movs	r3, #0
 8003e20:	72f3      	strb	r3, [r6, #11]
 8003e22:	513b      	str	r3, [r7, r4]
	mem_cpy(dst, src, 11);
 8003e24:	220b      	movs	r2, #11
 8003e26:	a907      	add	r1, sp, #28
 8003e28:	0030      	movs	r0, r6
 8003e2a:	f7fe fec3 	bl	8002bb4 <mem_cpy>
	if (seq > 5) {	/* On many collisions, generate a hash number instead of sequential number */
 8003e2e:	002b      	movs	r3, r5
 8003e30:	2d05      	cmp	r5, #5
 8003e32:	d847      	bhi.n	8003ec4 <dir_register+0xd0>
		c = (seq % 16) + '0';
 8003e34:	210f      	movs	r1, #15
		while (*lfn) {	/* Create a CRC */
 8003e36:	2207      	movs	r2, #7
		c = (seq % 16) + '0';
 8003e38:	468c      	mov	ip, r1
		ns[i--] = c;
 8003e3a:	a905      	add	r1, sp, #20
		c = (seq % 16) + '0';
 8003e3c:	4664      	mov	r4, ip
 8003e3e:	401c      	ands	r4, r3
 8003e40:	0020      	movs	r0, r4
 8003e42:	3030      	adds	r0, #48	; 0x30
		if (c > '9') c += 7;
 8003e44:	2839      	cmp	r0, #57	; 0x39
 8003e46:	d900      	bls.n	8003e4a <dir_register+0x56>
 8003e48:	3007      	adds	r0, #7
		ns[i--] = c;
 8003e4a:	3a01      	subs	r2, #1
 8003e4c:	188c      	adds	r4, r1, r2
 8003e4e:	7060      	strb	r0, [r4, #1]
		seq /= 16;
 8003e50:	091b      	lsrs	r3, r3, #4
	} while (seq);
 8003e52:	d1f3      	bne.n	8003e3c <dir_register+0x48>
	ns[i] = '~';
 8003e54:	207e      	movs	r0, #126	; 0x7e
 8003e56:	5488      	strb	r0, [r1, r2]
	for (j = 0; j < i && dst[j] != ' '; j++) {
 8003e58:	429a      	cmp	r2, r3
 8003e5a:	d037      	beq.n	8003ecc <dir_register+0xd8>
 8003e5c:	5cf0      	ldrb	r0, [r6, r3]
 8003e5e:	2820      	cmp	r0, #32
 8003e60:	d132      	bne.n	8003ec8 <dir_register+0xd4>
		dst[j++] = (i < 8) ? ns[i++] : ' ';
 8003e62:	2420      	movs	r4, #32
 8003e64:	0020      	movs	r0, r4
 8003e66:	2a07      	cmp	r2, #7
 8003e68:	d801      	bhi.n	8003e6e <dir_register+0x7a>
 8003e6a:	5c88      	ldrb	r0, [r1, r2]
 8003e6c:	3201      	adds	r2, #1
 8003e6e:	54f0      	strb	r0, [r6, r3]
 8003e70:	3301      	adds	r3, #1
	} while (j < 8);
 8003e72:	2b07      	cmp	r3, #7
 8003e74:	d9f6      	bls.n	8003e64 <dir_register+0x70>
	res = dir_sdi(dp, 0);			/* Rewind directory object */
 8003e76:	2100      	movs	r1, #0
 8003e78:	0038      	movs	r0, r7
 8003e7a:	f7ff fb81 	bl	8003580 <dir_sdi>
 8003e7e:	1e04      	subs	r4, r0, #0
	if (res != FR_OK) return res;
 8003e80:	d13c      	bne.n	8003efc <dir_register+0x108>
 8003e82:	0038      	movs	r0, r7
 8003e84:	f7ff fdb8 	bl	80039f8 <dir_find.part.6>
 8003e88:	1e04      	subs	r4, r0, #0
			if (res != FR_OK) break;
 8003e8a:	d137      	bne.n	8003efc <dir_register+0x108>
		for (n = 1; n < 100; n++) {
 8003e8c:	3501      	adds	r5, #1
 8003e8e:	2d64      	cmp	r5, #100	; 0x64
 8003e90:	d1c8      	bne.n	8003e24 <dir_register+0x30>
		if (n == 100) return FR_DENIED;		/* Abort if too many collisions */
 8003e92:	2407      	movs	r4, #7
}
 8003e94:	0020      	movs	r0, r4
 8003e96:	b00b      	add	sp, #44	; 0x2c
 8003e98:	bdf0      	pop	{r4, r5, r6, r7, pc}
			wc = *lfn++;
 8003e9a:	2010      	movs	r0, #16
 8003e9c:	3102      	adds	r1, #2
				sr = (sr << 1) + (wc & 1);
 8003e9e:	2401      	movs	r4, #1
 8003ea0:	4014      	ands	r4, r2
 8003ea2:	46a4      	mov	ip, r4
				if (sr & 0x10000) sr ^= 0x11021;
 8003ea4:	2480      	movs	r4, #128	; 0x80
				sr = (sr << 1) + (wc & 1);
 8003ea6:	005b      	lsls	r3, r3, #1
 8003ea8:	4463      	add	r3, ip
				if (sr & 0x10000) sr ^= 0x11021;
 8003eaa:	0264      	lsls	r4, r4, #9
				wc >>= 1;
 8003eac:	0852      	lsrs	r2, r2, #1
				if (sr & 0x10000) sr ^= 0x11021;
 8003eae:	4223      	tst	r3, r4
 8003eb0:	d001      	beq.n	8003eb6 <dir_register+0xc2>
 8003eb2:	4c6b      	ldr	r4, [pc, #428]	; (8004060 <dir_register+0x26c>)
 8003eb4:	4063      	eors	r3, r4
 8003eb6:	3801      	subs	r0, #1
			for (i = 0; i < 16; i++) {
 8003eb8:	2800      	cmp	r0, #0
 8003eba:	d1f0      	bne.n	8003e9e <dir_register+0xaa>
		while (*lfn) {	/* Create a CRC */
 8003ebc:	880a      	ldrh	r2, [r1, #0]
 8003ebe:	2a00      	cmp	r2, #0
 8003ec0:	d1eb      	bne.n	8003e9a <dir_register+0xa6>
 8003ec2:	e7b7      	b.n	8003e34 <dir_register+0x40>
	if (seq > 5) {	/* On many collisions, generate a hash number instead of sequential number */
 8003ec4:	9901      	ldr	r1, [sp, #4]
 8003ec6:	e7f9      	b.n	8003ebc <dir_register+0xc8>
	for (j = 0; j < i && dst[j] != ' '; j++) {
 8003ec8:	3301      	adds	r3, #1
 8003eca:	e7c5      	b.n	8003e58 <dir_register+0x64>
 8003ecc:	0013      	movs	r3, r2
 8003ece:	e7c8      	b.n	8003e62 <dir_register+0x6e>
		for (n = 0; lfn[n]; n++) ;
 8003ed0:	3001      	adds	r0, #1
 8003ed2:	9a01      	ldr	r2, [sp, #4]
 8003ed4:	0043      	lsls	r3, r0, #1
 8003ed6:	5ad3      	ldrh	r3, [r2, r3]
 8003ed8:	2b00      	cmp	r3, #0
 8003eda:	d1f9      	bne.n	8003ed0 <dir_register+0xdc>
		nent = (n + 25) / 13;
 8003edc:	3019      	adds	r0, #25
 8003ede:	210d      	movs	r1, #13
 8003ee0:	f7fc f92e 	bl	8000140 <__udivsi3>
 8003ee4:	0005      	movs	r5, r0
 8003ee6:	e018      	b.n	8003f1a <dir_register+0x126>
				n = 0;					/* Not a blank entry. Restart to search */
 8003ee8:	0006      	movs	r6, r0
			res = dir_next(dp, 1);		/* Next entry with table stretch enabled */
 8003eea:	2101      	movs	r1, #1
 8003eec:	0038      	movs	r0, r7
 8003eee:	f7ff fcc9 	bl	8003884 <dir_next>
 8003ef2:	1e04      	subs	r4, r0, #0
		} while (res == FR_OK);
 8003ef4:	d018      	beq.n	8003f28 <dir_register+0x134>
	if (res == FR_NO_FILE) res = FR_DENIED;	/* No directory entry to allocate */
 8003ef6:	2c04      	cmp	r4, #4
 8003ef8:	d0cb      	beq.n	8003e92 <dir_register+0x9e>
 8003efa:	e7cb      	b.n	8003e94 <dir_register+0xa0>
		if (res != FR_NO_FILE) return res;	/* Abort if the result is other than 'not collided' */
 8003efc:	2c04      	cmp	r4, #4
 8003efe:	d1c9      	bne.n	8003e94 <dir_register+0xa0>
		fn[NSFLAG] = sn[NSFLAG]; dp->lfn = lfn;
 8003f00:	ab07      	add	r3, sp, #28
 8003f02:	7adb      	ldrb	r3, [r3, #11]
 8003f04:	9a01      	ldr	r2, [sp, #4]
 8003f06:	72f3      	strb	r3, [r6, #11]
 8003f08:	2384      	movs	r3, #132	; 0x84
 8003f0a:	00db      	lsls	r3, r3, #3
 8003f0c:	50fa      	str	r2, [r7, r3]
	if (sn[NSFLAG] & NS_LFN) {			/* When LFN is to be created, allocate entries for an SFN + LFNs. */
 8003f0e:	ab07      	add	r3, sp, #28
 8003f10:	7adb      	ldrb	r3, [r3, #11]
		nent = 1;
 8003f12:	2501      	movs	r5, #1
 8003f14:	2000      	movs	r0, #0
	if (sn[NSFLAG] & NS_LFN) {			/* When LFN is to be created, allocate entries for an SFN + LFNs. */
 8003f16:	079b      	lsls	r3, r3, #30
 8003f18:	d4db      	bmi.n	8003ed2 <dir_register+0xde>
	res = dir_sdi(dp, 0);
 8003f1a:	2100      	movs	r1, #0
 8003f1c:	0038      	movs	r0, r7
 8003f1e:	f7ff fb2f 	bl	8003580 <dir_sdi>
 8003f22:	1e04      	subs	r4, r0, #0
	if (res == FR_OK) {
 8003f24:	d1e7      	bne.n	8003ef6 <dir_register+0x102>
 8003f26:	0006      	movs	r6, r0
			res = move_window(dp->fs, dp->sect);
 8003f28:	2382      	movs	r3, #130	; 0x82
 8003f2a:	00db      	lsls	r3, r3, #3
 8003f2c:	58f9      	ldr	r1, [r7, r3]
 8003f2e:	3b10      	subs	r3, #16
 8003f30:	58f8      	ldr	r0, [r7, r3]
 8003f32:	f7ff f893 	bl	800305c <move_window>
 8003f36:	1e04      	subs	r4, r0, #0
			if (res != FR_OK) break;
 8003f38:	d1dd      	bne.n	8003ef6 <dir_register+0x102>
			if (dp->dir[0] == DDEM || dp->dir[0] == 0) {	/* Is it a free entry? */
 8003f3a:	4a4a      	ldr	r2, [pc, #296]	; (8004064 <dir_register+0x270>)
 8003f3c:	58bb      	ldr	r3, [r7, r2]
 8003f3e:	9201      	str	r2, [sp, #4]
 8003f40:	781b      	ldrb	r3, [r3, #0]
 8003f42:	2be5      	cmp	r3, #229	; 0xe5
 8003f44:	d001      	beq.n	8003f4a <dir_register+0x156>
 8003f46:	2b00      	cmp	r3, #0
 8003f48:	d1ce      	bne.n	8003ee8 <dir_register+0xf4>
				if (++n == nent) break;	/* A block of contiguous free entries is found */
 8003f4a:	3601      	adds	r6, #1
 8003f4c:	42b5      	cmp	r5, r6
 8003f4e:	d1cc      	bne.n	8003eea <dir_register+0xf6>
	if (res == FR_OK && --nent) {	/* Set LFN entry if needed */
 8003f50:	3d01      	subs	r5, #1
 8003f52:	2d00      	cmp	r5, #0
 8003f54:	d05f      	beq.n	8004016 <dir_register+0x222>
		res = dir_sdi(dp, dp->index - nent);
 8003f56:	4b44      	ldr	r3, [pc, #272]	; (8004068 <dir_register+0x274>)
 8003f58:	0038      	movs	r0, r7
 8003f5a:	5af9      	ldrh	r1, [r7, r3]
 8003f5c:	1b49      	subs	r1, r1, r5
 8003f5e:	f7ff fb0f 	bl	8003580 <dir_sdi>
 8003f62:	1e04      	subs	r4, r0, #0
		if (res == FR_OK) {
 8003f64:	d000      	beq.n	8003f68 <dir_register+0x174>
 8003f66:	e795      	b.n	8003e94 <dir_register+0xa0>
			sum = sum_sfn(dp->fn);	/* Sum value of the SFN tied to the LFN */
 8003f68:	2383      	movs	r3, #131	; 0x83
 8003f6a:	00db      	lsls	r3, r3, #3
 8003f6c:	58f8      	ldr	r0, [r7, r3]
 8003f6e:	f7fe fef5 	bl	8002d5c <sum_sfn>
 8003f72:	9003      	str	r0, [sp, #12]
				res = move_window(dp->fs, dp->sect);
 8003f74:	2382      	movs	r3, #130	; 0x82
 8003f76:	00db      	lsls	r3, r3, #3
 8003f78:	58f9      	ldr	r1, [r7, r3]
 8003f7a:	3b10      	subs	r3, #16
 8003f7c:	58f8      	ldr	r0, [r7, r3]
 8003f7e:	f7ff f86d 	bl	800305c <move_window>
 8003f82:	1e04      	subs	r4, r0, #0
				if (res != FR_OK) break;
 8003f84:	d000      	beq.n	8003f88 <dir_register+0x194>
 8003f86:	e785      	b.n	8003e94 <dir_register+0xa0>
				fit_lfn(dp->lfn, dp->dir, (BYTE)nent, sum);
 8003f88:	2384      	movs	r3, #132	; 0x84
 8003f8a:	b2ea      	uxtb	r2, r5
 8003f8c:	4694      	mov	ip, r2
	dir[LDIR_Chksum] = sum;			/* Set check sum */
 8003f8e:	466a      	mov	r2, sp
				fit_lfn(dp->lfn, dp->dir, (BYTE)nent, sum);
 8003f90:	00db      	lsls	r3, r3, #3
 8003f92:	58fb      	ldr	r3, [r7, r3]
	dir[LDIR_Chksum] = sum;			/* Set check sum */
 8003f94:	7b12      	ldrb	r2, [r2, #12]
				fit_lfn(dp->lfn, dp->dir, (BYTE)nent, sum);
 8003f96:	9302      	str	r3, [sp, #8]
 8003f98:	9b01      	ldr	r3, [sp, #4]
	i = (ord - 1) * 13;				/* Get offset in the LFN buffer */
 8003f9a:	210d      	movs	r1, #13
				fit_lfn(dp->lfn, dp->dir, (BYTE)nent, sum);
 8003f9c:	58fb      	ldr	r3, [r7, r3]
	dir[LDIR_Chksum] = sum;			/* Set check sum */
 8003f9e:	735a      	strb	r2, [r3, #13]
	dir[LDIR_Attr] = AM_LFN;		/* Set attribute. LFN entry */
 8003fa0:	220f      	movs	r2, #15
 8003fa2:	72da      	strb	r2, [r3, #11]
	i = (ord - 1) * 13;				/* Get offset in the LFN buffer */
 8003fa4:	b2ea      	uxtb	r2, r5
 8003fa6:	3a01      	subs	r2, #1
 8003fa8:	434a      	muls	r2, r1
	s = wc = 0;
 8003faa:	0001      	movs	r1, r0
	dir[LDIR_Type] = 0;
 8003fac:	7318      	strb	r0, [r3, #12]
	ST_WORD(dir + LDIR_FstClusLO, 0);
 8003fae:	7698      	strb	r0, [r3, #26]
 8003fb0:	76d8      	strb	r0, [r3, #27]
		if (wc != 0xFFFF) wc = lfnbuf[i++];	/* Get an effective character */
 8003fb2:	4c2e      	ldr	r4, [pc, #184]	; (800406c <dir_register+0x278>)
 8003fb4:	42a0      	cmp	r0, r4
 8003fb6:	d003      	beq.n	8003fc0 <dir_register+0x1cc>
 8003fb8:	9c02      	ldr	r4, [sp, #8]
 8003fba:	0050      	lsls	r0, r2, #1
 8003fbc:	5b00      	ldrh	r0, [r0, r4]
 8003fbe:	3201      	adds	r2, #1
		ST_WORD(dir+LfnOfs[s], wc);	/* Put it */
 8003fc0:	4c2b      	ldr	r4, [pc, #172]	; (8004070 <dir_register+0x27c>)
 8003fc2:	5d0c      	ldrb	r4, [r1, r4]
 8003fc4:	5518      	strb	r0, [r3, r4]
 8003fc6:	191c      	adds	r4, r3, r4
 8003fc8:	0026      	movs	r6, r4
 8003fca:	0a04      	lsrs	r4, r0, #8
 8003fcc:	7074      	strb	r4, [r6, #1]
		if (!wc) wc = 0xFFFF;		/* Padding characters following last character */
 8003fce:	2800      	cmp	r0, #0
 8003fd0:	d100      	bne.n	8003fd4 <dir_register+0x1e0>
 8003fd2:	4826      	ldr	r0, [pc, #152]	; (800406c <dir_register+0x278>)
	} while (++s < 13);
 8003fd4:	3101      	adds	r1, #1
 8003fd6:	290d      	cmp	r1, #13
 8003fd8:	d1eb      	bne.n	8003fb2 <dir_register+0x1be>
	if (wc == 0xFFFF || !lfnbuf[i]) ord |= LLEF;	/* Bottom LFN part is the start of LFN sequence */
 8003fda:	4924      	ldr	r1, [pc, #144]	; (800406c <dir_register+0x278>)
 8003fdc:	4288      	cmp	r0, r1
 8003fde:	d004      	beq.n	8003fea <dir_register+0x1f6>
 8003fe0:	9902      	ldr	r1, [sp, #8]
 8003fe2:	0052      	lsls	r2, r2, #1
 8003fe4:	5a52      	ldrh	r2, [r2, r1]
 8003fe6:	2a00      	cmp	r2, #0
 8003fe8:	d103      	bne.n	8003ff2 <dir_register+0x1fe>
 8003fea:	4661      	mov	r1, ip
 8003fec:	2240      	movs	r2, #64	; 0x40
 8003fee:	4311      	orrs	r1, r2
 8003ff0:	468c      	mov	ip, r1
	dir[LDIR_Ord] = ord;			/* Set the LFN order */
 8003ff2:	4662      	mov	r2, ip
				dp->fs->wflag = 1;
 8003ff4:	2180      	movs	r1, #128	; 0x80
	dir[LDIR_Ord] = ord;			/* Set the LFN order */
 8003ff6:	701a      	strb	r2, [r3, #0]
				dp->fs->wflag = 1;
 8003ff8:	2201      	movs	r2, #1
 8003ffa:	00c9      	lsls	r1, r1, #3
 8003ffc:	5879      	ldr	r1, [r7, r1]
 8003ffe:	4b1d      	ldr	r3, [pc, #116]	; (8004074 <dir_register+0x280>)
				res = dir_next(dp, 0);	/* Next entry */
 8004000:	0038      	movs	r0, r7
				dp->fs->wflag = 1;
 8004002:	54ca      	strb	r2, [r1, r3]
				res = dir_next(dp, 0);	/* Next entry */
 8004004:	2100      	movs	r1, #0
 8004006:	f7ff fc3d 	bl	8003884 <dir_next>
 800400a:	1e04      	subs	r4, r0, #0
			} while (res == FR_OK && --nent);
 800400c:	d000      	beq.n	8004010 <dir_register+0x21c>
 800400e:	e741      	b.n	8003e94 <dir_register+0xa0>
 8004010:	3d01      	subs	r5, #1
 8004012:	2d00      	cmp	r5, #0
 8004014:	d1ae      	bne.n	8003f74 <dir_register+0x180>
		res = move_window(dp->fs, dp->sect);
 8004016:	2580      	movs	r5, #128	; 0x80
 8004018:	2382      	movs	r3, #130	; 0x82
 800401a:	00ed      	lsls	r5, r5, #3
 800401c:	00db      	lsls	r3, r3, #3
 800401e:	58f9      	ldr	r1, [r7, r3]
 8004020:	5978      	ldr	r0, [r7, r5]
 8004022:	f7ff f81b 	bl	800305c <move_window>
 8004026:	1e04      	subs	r4, r0, #0
		if (res == FR_OK) {
 8004028:	d000      	beq.n	800402c <dir_register+0x238>
 800402a:	e733      	b.n	8003e94 <dir_register+0xa0>
			mem_cpy(dp->dir, dp->fn, 11);	/* Put SFN */
 800402c:	2683      	movs	r6, #131	; 0x83
			mem_set(dp->dir, 0, SZ_DIRE);	/* Clean the entry */
 800402e:	9b01      	ldr	r3, [sp, #4]
 8004030:	2220      	movs	r2, #32
 8004032:	58f8      	ldr	r0, [r7, r3]
 8004034:	0021      	movs	r1, r4
 8004036:	f7fe fdc6 	bl	8002bc6 <mem_set>
			mem_cpy(dp->dir, dp->fn, 11);	/* Put SFN */
 800403a:	9b01      	ldr	r3, [sp, #4]
 800403c:	00f6      	lsls	r6, r6, #3
 800403e:	220b      	movs	r2, #11
 8004040:	59b9      	ldr	r1, [r7, r6]
 8004042:	58f8      	ldr	r0, [r7, r3]
 8004044:	f7fe fdb6 	bl	8002bb4 <mem_cpy>
			dp->dir[DIR_NTres] = dp->fn[NSFLAG] & (NS_BODY | NS_EXT);	/* Put NT flag */
 8004048:	2118      	movs	r1, #24
 800404a:	9b01      	ldr	r3, [sp, #4]
 800404c:	58fa      	ldr	r2, [r7, r3]
 800404e:	59bb      	ldr	r3, [r7, r6]
 8004050:	7adb      	ldrb	r3, [r3, #11]
 8004052:	400b      	ands	r3, r1
 8004054:	7313      	strb	r3, [r2, #12]
			dp->fs->wflag = 1;
 8004056:	597a      	ldr	r2, [r7, r5]
 8004058:	4b06      	ldr	r3, [pc, #24]	; (8004074 <dir_register+0x280>)
 800405a:	3917      	subs	r1, #23
 800405c:	54d1      	strb	r1, [r2, r3]
 800405e:	e719      	b.n	8003e94 <dir_register+0xa0>
 8004060:	00011021 	.word	0x00011021
 8004064:	00000414 	.word	0x00000414
 8004068:	00000406 	.word	0x00000406
 800406c:	0000ffff 	.word	0x0000ffff
 8004070:	080066ec 	.word	0x080066ec
 8004074:	00000404 	.word	0x00000404

08004078 <remove_chain>:
{
 8004078:	b5f7      	push	{r0, r1, r2, r4, r5, r6, r7, lr}
 800407a:	0004      	movs	r4, r0
 800407c:	000d      	movs	r5, r1
	if (clst < 2 || clst >= fs->n_fatent) {	/* Check range */
 800407e:	2901      	cmp	r1, #1
 8004080:	d801      	bhi.n	8004086 <remove_chain+0xe>
		res = FR_INT_ERR;
 8004082:	2002      	movs	r0, #2
}
 8004084:	bdfe      	pop	{r1, r2, r3, r4, r5, r6, r7, pc}
	if (clst < 2 || clst >= fs->n_fatent) {	/* Check range */
 8004086:	4b16      	ldr	r3, [pc, #88]	; (80040e0 <remove_chain+0x68>)
 8004088:	58c2      	ldr	r2, [r0, r3]
 800408a:	9301      	str	r3, [sp, #4]
 800408c:	4291      	cmp	r1, r2
 800408e:	d2f8      	bcs.n	8004082 <remove_chain+0xa>
			if (fs->free_clust != 0xFFFFFFFF) {	/* Update FSINFO */
 8004090:	2782      	movs	r7, #130	; 0x82
 8004092:	00ff      	lsls	r7, r7, #3
		while (clst < fs->n_fatent) {			/* Not a last link? */
 8004094:	9b01      	ldr	r3, [sp, #4]
 8004096:	58e3      	ldr	r3, [r4, r3]
 8004098:	9300      	str	r3, [sp, #0]
 800409a:	429d      	cmp	r5, r3
 800409c:	d205      	bcs.n	80040aa <remove_chain+0x32>
			nxt = get_fat(fs, clst);			/* Get cluster status */
 800409e:	0029      	movs	r1, r5
 80040a0:	0020      	movs	r0, r4
 80040a2:	f7ff f9e1 	bl	8003468 <get_fat>
 80040a6:	1e06      	subs	r6, r0, #0
			if (nxt == 0) break;				/* Empty cluster? */
 80040a8:	d101      	bne.n	80040ae <remove_chain+0x36>
		res = FR_INT_ERR;
 80040aa:	2000      	movs	r0, #0
 80040ac:	e7ea      	b.n	8004084 <remove_chain+0xc>
			if (nxt == 1) { res = FR_INT_ERR; break; }	/* Internal error? */
 80040ae:	2801      	cmp	r0, #1
 80040b0:	d0e7      	beq.n	8004082 <remove_chain+0xa>
			if (nxt == 0xFFFFFFFF) { res = FR_DISK_ERR; break; }	/* Disk error? */
 80040b2:	1c43      	adds	r3, r0, #1
 80040b4:	d012      	beq.n	80040dc <remove_chain+0x64>
			res = put_fat(fs, clst, 0);			/* Mark the cluster "empty" */
 80040b6:	2200      	movs	r2, #0
 80040b8:	0029      	movs	r1, r5
 80040ba:	0020      	movs	r0, r4
 80040bc:	f7ff fad2 	bl	8003664 <put_fat>
			if (res != FR_OK) break;
 80040c0:	2800      	cmp	r0, #0
 80040c2:	d1df      	bne.n	8004084 <remove_chain+0xc>
			if (fs->free_clust != 0xFFFFFFFF) {	/* Update FSINFO */
 80040c4:	59e3      	ldr	r3, [r4, r7]
 80040c6:	1c5a      	adds	r2, r3, #1
 80040c8:	d006      	beq.n	80040d8 <remove_chain+0x60>
				fs->fsi_flag |= 1;
 80040ca:	2101      	movs	r1, #1
				fs->free_clust++;
 80040cc:	3301      	adds	r3, #1
				fs->fsi_flag |= 1;
 80040ce:	4a05      	ldr	r2, [pc, #20]	; (80040e4 <remove_chain+0x6c>)
				fs->free_clust++;
 80040d0:	51e3      	str	r3, [r4, r7]
				fs->fsi_flag |= 1;
 80040d2:	5ca3      	ldrb	r3, [r4, r2]
 80040d4:	430b      	orrs	r3, r1
 80040d6:	54a3      	strb	r3, [r4, r2]
{
 80040d8:	0035      	movs	r5, r6
 80040da:	e7db      	b.n	8004094 <remove_chain+0x1c>
			if (nxt == 0xFFFFFFFF) { res = FR_DISK_ERR; break; }	/* Disk error? */
 80040dc:	2001      	movs	r0, #1
 80040de:	e7d1      	b.n	8004084 <remove_chain+0xc>
 80040e0:	00000414 	.word	0x00000414
 80040e4:	00000405 	.word	0x00000405

080040e8 <f_mount>:
FRESULT f_mount (
	FATFS* fs,			/* Pointer to the file system object (NULL:unmount)*/
	const TCHAR* path,	/* Logical drive number to be mounted/unmounted */
	BYTE opt			/* 0:Do not mount (delayed mount), 1:Mount immediately */
)
{
 80040e8:	b57f      	push	{r0, r1, r2, r3, r4, r5, r6, lr}
 80040ea:	9001      	str	r0, [sp, #4]
	int vol;
	FRESULT res;
	const TCHAR *rp = path;


	vol = get_ldnumber(&rp);
 80040ec:	a803      	add	r0, sp, #12
{
 80040ee:	0014      	movs	r4, r2
 80040f0:	9100      	str	r1, [sp, #0]
	const TCHAR *rp = path;
 80040f2:	9103      	str	r1, [sp, #12]
	vol = get_ldnumber(&rp);
 80040f4:	f7fe fe40 	bl	8002d78 <get_ldnumber>
	if (vol < 0) return FR_INVALID_DRIVE;
 80040f8:	220b      	movs	r2, #11
 80040fa:	2800      	cmp	r0, #0
 80040fc:	db24      	blt.n	8004148 <f_mount+0x60>
	cfs = FatFs[vol];					/* Pointer to fs object */
 80040fe:	4d14      	ldr	r5, [pc, #80]	; (8004150 <f_mount+0x68>)
 8004100:	0080      	lsls	r0, r0, #2
 8004102:	5943      	ldr	r3, [r0, r5]

	if (cfs) {
 8004104:	2b00      	cmp	r3, #0
 8004106:	d00d      	beq.n	8004124 <f_mount+0x3c>
		if (Files[i].fs == fs) Files[i].fs = 0;
 8004108:	4a12      	ldr	r2, [pc, #72]	; (8004154 <f_mount+0x6c>)
 800410a:	6811      	ldr	r1, [r2, #0]
 800410c:	428b      	cmp	r3, r1
 800410e:	d101      	bne.n	8004114 <f_mount+0x2c>
 8004110:	2100      	movs	r1, #0
 8004112:	6011      	str	r1, [r2, #0]
 8004114:	68d6      	ldr	r6, [r2, #12]
 8004116:	2100      	movs	r1, #0
 8004118:	42b3      	cmp	r3, r6
 800411a:	d100      	bne.n	800411e <f_mount+0x36>
 800411c:	60d1      	str	r1, [r2, #12]
		clear_lock(cfs);
#endif
#if _FS_REENTRANT						/* Discard sync object of the current volume */
		if (!ff_del_syncobj(cfs->sobj)) return FR_INT_ERR;
#endif
		cfs->fs_type = 0;				/* Clear old fs object */
 800411e:	2280      	movs	r2, #128	; 0x80
 8004120:	00d2      	lsls	r2, r2, #3
 8004122:	5499      	strb	r1, [r3, r2]
	}

	if (fs) {
 8004124:	9b01      	ldr	r3, [sp, #4]
 8004126:	2b00      	cmp	r3, #0
 8004128:	d003      	beq.n	8004132 <f_mount+0x4a>
		fs->fs_type = 0;				/* Clear new fs object */
 800412a:	2280      	movs	r2, #128	; 0x80
 800412c:	2100      	movs	r1, #0
 800412e:	00d2      	lsls	r2, r2, #3
 8004130:	5499      	strb	r1, [r3, r2]
#if _FS_REENTRANT						/* Create sync object for the new volume */
		if (!ff_cre_syncobj((BYTE)vol, &fs->sobj)) return FR_INT_ERR;
#endif
	}
	FatFs[vol] = fs;					/* Register new fs object */
 8004132:	502b      	str	r3, [r5, r0]

	if (!fs || opt != 1) return FR_OK;	/* Do not mount now, it will be mounted later */
 8004134:	1e1a      	subs	r2, r3, #0
 8004136:	d007      	beq.n	8004148 <f_mount+0x60>
 8004138:	2200      	movs	r2, #0
 800413a:	2c01      	cmp	r4, #1
 800413c:	d104      	bne.n	8004148 <f_mount+0x60>

	res = find_volume(&fs, &path, 0);	/* Force mounted the volume */
 800413e:	4669      	mov	r1, sp
 8004140:	a801      	add	r0, sp, #4
 8004142:	f7fe ffe9 	bl	8003118 <find_volume>
 8004146:	0002      	movs	r2, r0
	LEAVE_FF(fs, res);
}
 8004148:	0010      	movs	r0, r2
 800414a:	b004      	add	sp, #16
 800414c:	bd70      	pop	{r4, r5, r6, pc}
 800414e:	46c0      	nop			; (mov r8, r8)
 8004150:	200000a4 	.word	0x200000a4
 8004154:	200000a8 	.word	0x200000a8

08004158 <f_open>:
#if !_FS_READONLY
	DWORD dw, cl;
#endif


	if (!fp) return FR_INVALID_OBJECT;
 8004158:	2309      	movs	r3, #9
{
 800415a:	b5f0      	push	{r4, r5, r6, r7, lr}
 800415c:	4c7a      	ldr	r4, [pc, #488]	; (8004348 <f_open+0x1f0>)
 800415e:	0015      	movs	r5, r2
 8004160:	44a5      	add	sp, r4
 8004162:	9001      	str	r0, [sp, #4]
 8004164:	9105      	str	r1, [sp, #20]
	if (!fp) return FR_INVALID_OBJECT;
 8004166:	9302      	str	r3, [sp, #8]
 8004168:	2800      	cmp	r0, #0
 800416a:	d100      	bne.n	800416e <f_open+0x16>
 800416c:	e086      	b.n	800427c <f_open+0x124>
	fp->fs = 0;			/* Clear file object */
 800416e:	2380      	movs	r3, #128	; 0x80
 8004170:	2200      	movs	r2, #0
 8004172:	00db      	lsls	r3, r3, #3
 8004174:	50c2      	str	r2, [r0, r3]

	/* Get logical drive number */
#if !_FS_READONLY
	mode &= FA_READ | FA_WRITE | FA_CREATE_ALWAYS | FA_OPEN_ALWAYS | FA_CREATE_NEW;
	res = find_volume(&dj.fs, &path, (BYTE)(mode & ~FA_READ));
 8004176:	321e      	adds	r2, #30
 8004178:	a8ff      	add	r0, sp, #1020	; 0x3fc
 800417a:	402a      	ands	r2, r5
 800417c:	a905      	add	r1, sp, #20
 800417e:	302c      	adds	r0, #44	; 0x2c
 8004180:	f7fe ffca 	bl	8003118 <find_volume>
 8004184:	ae0a      	add	r6, sp, #40	; 0x28
 8004186:	9002      	str	r0, [sp, #8]
#else
	mode &= FA_READ;
	res = find_volume(&dj.fs, &path, 0);
#endif
	if (res == FR_OK) {
 8004188:	1e03      	subs	r3, r0, #0
 800418a:	d177      	bne.n	800427c <f_open+0x124>
	mode &= FA_READ | FA_WRITE | FA_CREATE_ALWAYS | FA_OPEN_ALWAYS | FA_CREATE_NEW;
 800418c:	331f      	adds	r3, #31
 800418e:	402b      	ands	r3, r5
 8004190:	9303      	str	r3, [sp, #12]
		INIT_BUF(dj);
 8004192:	2383      	movs	r3, #131	; 0x83
 8004194:	aa07      	add	r2, sp, #28
 8004196:	00db      	lsls	r3, r3, #3
 8004198:	50f2      	str	r2, [r6, r3]
 800419a:	4a6c      	ldr	r2, [pc, #432]	; (800434c <f_open+0x1f4>)
 800419c:	3308      	adds	r3, #8
		res = follow_path(&dj, path);	/* Follow the file path */
 800419e:	9905      	ldr	r1, [sp, #20]
 80041a0:	0030      	movs	r0, r6
		INIT_BUF(dj);
 80041a2:	50f2      	str	r2, [r6, r3]
		res = follow_path(&dj, path);	/* Follow the file path */
 80041a4:	f7ff fcd4 	bl	8003b50 <follow_path>
		dir = dj.dir;
 80041a8:	4f69      	ldr	r7, [pc, #420]	; (8004350 <f_open+0x1f8>)
 80041aa:	59f4      	ldr	r4, [r6, r7]
#if !_FS_READONLY	/* R/W configuration */
		if (res == FR_OK) {
 80041ac:	2800      	cmp	r0, #0
 80041ae:	d10a      	bne.n	80041c6 <f_open+0x6e>
			if (!dir)	/* Default directory itself */
				res = FR_INVALID_NAME;
 80041b0:	3006      	adds	r0, #6
			if (!dir)	/* Default directory itself */
 80041b2:	2c00      	cmp	r4, #0
 80041b4:	d007      	beq.n	80041c6 <f_open+0x6e>
#if _FS_LOCK
			else
				res = chk_lock(&dj, (mode & ~FA_READ) ? 1 : 0);
 80041b6:	2301      	movs	r3, #1
 80041b8:	9903      	ldr	r1, [sp, #12]
 80041ba:	0030      	movs	r0, r6
 80041bc:	4399      	bics	r1, r3
 80041be:	1e4b      	subs	r3, r1, #1
 80041c0:	4199      	sbcs	r1, r3
 80041c2:	f7fe fd07 	bl	8002bd4 <chk_lock>
#endif
		}
		/* Create or Open a file */
		if (mode & (FA_CREATE_ALWAYS | FA_OPEN_ALWAYS | FA_CREATE_NEW)) {
 80041c6:	231c      	movs	r3, #28
 80041c8:	421d      	tst	r5, r3
 80041ca:	d05b      	beq.n	8004284 <f_open+0x12c>
			if (res != FR_OK) {					/* No file, create new */
 80041cc:	2800      	cmp	r0, #0
 80041ce:	d04d      	beq.n	800426c <f_open+0x114>
				if (res == FR_NO_FILE)			/* There is no file to open, create a new entry */
 80041d0:	2804      	cmp	r0, #4
 80041d2:	d149      	bne.n	8004268 <f_open+0x110>
	for (i = 0; i < _FS_LOCK && Files[i].fs; i++) ;
 80041d4:	4b5f      	ldr	r3, [pc, #380]	; (8004354 <f_open+0x1fc>)
 80041d6:	681a      	ldr	r2, [r3, #0]
 80041d8:	2a00      	cmp	r2, #0
 80041da:	d003      	beq.n	80041e4 <f_open+0x8c>
 80041dc:	68db      	ldr	r3, [r3, #12]
#if _FS_LOCK
					res = enq_lock() ? dir_register(&dj) : FR_TOO_MANY_OPEN_FILES;
 80041de:	300e      	adds	r0, #14
	for (i = 0; i < _FS_LOCK && Files[i].fs; i++) ;
 80041e0:	2b00      	cmp	r3, #0
 80041e2:	d141      	bne.n	8004268 <f_open+0x110>
					res = enq_lock() ? dir_register(&dj) : FR_TOO_MANY_OPEN_FILES;
 80041e4:	ac0a      	add	r4, sp, #40	; 0x28
 80041e6:	0020      	movs	r0, r4
 80041e8:	f7ff fe04 	bl	8003df4 <dir_register>
				} else {
					if (mode & FA_CREATE_NEW)	/* Cannot create as new file */
						res = FR_EXIST;
				}
			}
			if (res == FR_OK && (mode & FA_CREATE_ALWAYS)) {	/* Truncate it if overwrite mode */
 80041ec:	2800      	cmp	r0, #0
 80041ee:	d13b      	bne.n	8004268 <f_open+0x110>
				mode |= FA_CREATE_ALWAYS;		/* File is created */
 80041f0:	2308      	movs	r3, #8
 80041f2:	9a03      	ldr	r2, [sp, #12]
				dir = dj.dir;					/* New entry */
 80041f4:	59e4      	ldr	r4, [r4, r7]
				mode |= FA_CREATE_ALWAYS;		/* File is created */
 80041f6:	431a      	orrs	r2, r3
 80041f8:	9203      	str	r2, [sp, #12]
			if (res == FR_OK && (mode & FA_CREATE_ALWAYS)) {	/* Truncate it if overwrite mode */
 80041fa:	9b03      	ldr	r3, [sp, #12]
 80041fc:	071b      	lsls	r3, r3, #28
 80041fe:	d54a      	bpl.n	8004296 <f_open+0x13e>
				dw = GET_FATTIME();				/* Created time */
 8004200:	f000 fe8c 	bl	8004f1c <get_fattime>
				ST_DWORD(dir + DIR_CrtTime, dw);
				dir[DIR_Attr] = 0;				/* Reset attribute */
 8004204:	2500      	movs	r5, #0
				ST_DWORD(dir + DIR_FileSize, 0);/* size = 0 */
				cl = ld_clust(dj.fs, dir);		/* Get start cluster */
 8004206:	2780      	movs	r7, #128	; 0x80
				ST_DWORD(dir + DIR_CrtTime, dw);
 8004208:	0a03      	lsrs	r3, r0, #8
 800420a:	73a0      	strb	r0, [r4, #14]
 800420c:	73e3      	strb	r3, [r4, #15]
 800420e:	0c03      	lsrs	r3, r0, #16
 8004210:	0e00      	lsrs	r0, r0, #24
 8004212:	7423      	strb	r3, [r4, #16]
 8004214:	7460      	strb	r0, [r4, #17]
				dir[DIR_Attr] = 0;				/* Reset attribute */
 8004216:	72e5      	strb	r5, [r4, #11]
				ST_DWORD(dir + DIR_FileSize, 0);/* size = 0 */
 8004218:	7725      	strb	r5, [r4, #28]
 800421a:	7765      	strb	r5, [r4, #29]
 800421c:	77a5      	strb	r5, [r4, #30]
 800421e:	77e5      	strb	r5, [r4, #31]
				cl = ld_clust(dj.fs, dir);		/* Get start cluster */
 8004220:	00ff      	lsls	r7, r7, #3
 8004222:	ae0a      	add	r6, sp, #40	; 0x28
 8004224:	59f3      	ldr	r3, [r6, r7]
 8004226:	0021      	movs	r1, r4
 8004228:	5dd8      	ldrb	r0, [r3, r7]
 800422a:	f7fe fe53 	bl	8002ed4 <ld_clust.isra.0>
				st_clust(dir, 0);				/* cluster = 0 */
				dj.fs->wflag = 1;
 800422e:	2201      	movs	r2, #1
	ST_WORD(dir + DIR_FstClusLO, cl);
 8004230:	76a5      	strb	r5, [r4, #26]
 8004232:	76e5      	strb	r5, [r4, #27]
	ST_WORD(dir + DIR_FstClusHI, cl >> 16);
 8004234:	7525      	strb	r5, [r4, #20]
 8004236:	7565      	strb	r5, [r4, #21]
				cl = ld_clust(dj.fs, dir);		/* Get start cluster */
 8004238:	9004      	str	r0, [sp, #16]
				dj.fs->wflag = 1;
 800423a:	4b47      	ldr	r3, [pc, #284]	; (8004358 <f_open+0x200>)
 800423c:	59f0      	ldr	r0, [r6, r7]
 800423e:	54c2      	strb	r2, [r0, r3]
				if (cl) {						/* Remove the cluster chain if exist */
 8004240:	9b04      	ldr	r3, [sp, #16]
 8004242:	42ab      	cmp	r3, r5
 8004244:	d027      	beq.n	8004296 <f_open+0x13e>
					dw = dj.fs->winsect;
 8004246:	4b45      	ldr	r3, [pc, #276]	; (800435c <f_open+0x204>)
					res = remove_chain(dj.fs, cl);
 8004248:	9904      	ldr	r1, [sp, #16]
					dw = dj.fs->winsect;
 800424a:	58c5      	ldr	r5, [r0, r3]
					res = remove_chain(dj.fs, cl);
 800424c:	f7ff ff14 	bl	8004078 <remove_chain>
					if (res == FR_OK) {
 8004250:	2800      	cmp	r0, #0
 8004252:	d109      	bne.n	8004268 <f_open+0x110>
						dj.fs->last_clust = cl - 1;	/* Reuse the cluster hole */
 8004254:	9b04      	ldr	r3, [sp, #16]
 8004256:	59f0      	ldr	r0, [r6, r7]
 8004258:	4a41      	ldr	r2, [pc, #260]	; (8004360 <f_open+0x208>)
 800425a:	3b01      	subs	r3, #1
 800425c:	5083      	str	r3, [r0, r2]
						res = move_window(dj.fs, dw);
 800425e:	0029      	movs	r1, r5
 8004260:	f7fe fefc 	bl	800305c <move_window>
					if ((mode & FA_WRITE) && (dir[DIR_Attr] & AM_RDO)) /* R/O violation */
						res = FR_DENIED;
				}
			}
		}
		if (res == FR_OK) {
 8004264:	2800      	cmp	r0, #0
 8004266:	d016      	beq.n	8004296 <f_open+0x13e>
					res = FR_DENIED;
 8004268:	9002      	str	r0, [sp, #8]
 800426a:	e007      	b.n	800427c <f_open+0x124>
				if (dir[DIR_Attr] & (AM_RDO | AM_DIR)) {	/* Cannot overwrite it (R/O or DIR) */
 800426c:	2311      	movs	r3, #17
 800426e:	7ae2      	ldrb	r2, [r4, #11]
 8004270:	421a      	tst	r2, r3
 8004272:	d166      	bne.n	8004342 <f_open+0x1ea>
					if (mode & FA_CREATE_NEW)	/* Cannot create as new file */
 8004274:	076b      	lsls	r3, r5, #29
 8004276:	d5c0      	bpl.n	80041fa <f_open+0xa2>
						res = FR_EXIST;
 8004278:	2308      	movs	r3, #8
					res = FR_DENIED;
 800427a:	9302      	str	r3, [sp, #8]
			fp->id = fp->fs->id;
		}
	}

	LEAVE_FF(dj.fs, res);
}
 800427c:	9802      	ldr	r0, [sp, #8]
 800427e:	4b39      	ldr	r3, [pc, #228]	; (8004364 <f_open+0x20c>)
 8004280:	449d      	add	sp, r3
 8004282:	bdf0      	pop	{r4, r5, r6, r7, pc}
			if (res == FR_OK) {					/* Follow succeeded */
 8004284:	2800      	cmp	r0, #0
 8004286:	d1ef      	bne.n	8004268 <f_open+0x110>
				if (dir[DIR_Attr] & AM_DIR) {	/* It is a directory */
 8004288:	7ae3      	ldrb	r3, [r4, #11]
 800428a:	06da      	lsls	r2, r3, #27
 800428c:	d457      	bmi.n	800433e <f_open+0x1e6>
					if ((mode & FA_WRITE) && (dir[DIR_Attr] & AM_RDO)) /* R/O violation */
 800428e:	07aa      	lsls	r2, r5, #30
 8004290:	d501      	bpl.n	8004296 <f_open+0x13e>
 8004292:	07db      	lsls	r3, r3, #31
 8004294:	d455      	bmi.n	8004342 <f_open+0x1ea>
			if (mode & FA_CREATE_ALWAYS)		/* Set file change flag if created or overwritten */
 8004296:	9b03      	ldr	r3, [sp, #12]
 8004298:	071b      	lsls	r3, r3, #28
 800429a:	d503      	bpl.n	80042a4 <f_open+0x14c>
				mode |= FA__WRITTEN;
 800429c:	2320      	movs	r3, #32
 800429e:	9a03      	ldr	r2, [sp, #12]
 80042a0:	431a      	orrs	r2, r3
 80042a2:	9203      	str	r2, [sp, #12]
			fp->dir_sect = dj.fs->winsect;		/* Pointer to the directory entry */
 80042a4:	2218      	movs	r2, #24
 80042a6:	2580      	movs	r5, #128	; 0x80
 80042a8:	ab04      	add	r3, sp, #16
 80042aa:	189b      	adds	r3, r3, r2
 80042ac:	00ed      	lsls	r5, r5, #3
 80042ae:	595b      	ldr	r3, [r3, r5]
 80042b0:	9901      	ldr	r1, [sp, #4]
 80042b2:	9304      	str	r3, [sp, #16]
 80042b4:	9a04      	ldr	r2, [sp, #16]
 80042b6:	4b29      	ldr	r3, [pc, #164]	; (800435c <f_open+0x204>)
			fp->lockid = inc_lock(&dj, (mode & ~FA_READ) ? 1 : 0);
 80042b8:	a80a      	add	r0, sp, #40	; 0x28
			fp->dir_sect = dj.fs->winsect;		/* Pointer to the directory entry */
 80042ba:	58d2      	ldr	r2, [r2, r3]
 80042bc:	4b2a      	ldr	r3, [pc, #168]	; (8004368 <f_open+0x210>)
 80042be:	50ca      	str	r2, [r1, r3]
			fp->dir_ptr = dir;
 80042c0:	3304      	adds	r3, #4
 80042c2:	50cc      	str	r4, [r1, r3]
			fp->lockid = inc_lock(&dj, (mode & ~FA_READ) ? 1 : 0);
 80042c4:	2301      	movs	r3, #1
 80042c6:	9903      	ldr	r1, [sp, #12]
 80042c8:	4399      	bics	r1, r3
 80042ca:	1e4b      	subs	r3, r1, #1
 80042cc:	4199      	sbcs	r1, r3
 80042ce:	f7fe fcb7 	bl	8002c40 <inc_lock>
 80042d2:	2385      	movs	r3, #133	; 0x85
 80042d4:	9a01      	ldr	r2, [sp, #4]
 80042d6:	00db      	lsls	r3, r3, #3
 80042d8:	50d0      	str	r0, [r2, r3]
			if (!fp->lockid) res = FR_INT_ERR;
 80042da:	2302      	movs	r3, #2
 80042dc:	2800      	cmp	r0, #0
 80042de:	d0cc      	beq.n	800427a <f_open+0x122>
			fp->flag = mode;					/* File access mode */
 80042e0:	4669      	mov	r1, sp
			fp->err = 0;						/* Clear error flag */
 80042e2:	2600      	movs	r6, #0
			fp->flag = mode;					/* File access mode */
 80042e4:	9b01      	ldr	r3, [sp, #4]
 80042e6:	4a21      	ldr	r2, [pc, #132]	; (800436c <f_open+0x214>)
 80042e8:	7b09      	ldrb	r1, [r1, #12]
 80042ea:	5499      	strb	r1, [r3, r2]
			fp->err = 0;						/* Clear error flag */
 80042ec:	4b20      	ldr	r3, [pc, #128]	; (8004370 <f_open+0x218>)
 80042ee:	9a01      	ldr	r2, [sp, #4]
			fp->sclust = ld_clust(dj.fs, dir);	/* File start cluster */
 80042f0:	0021      	movs	r1, r4
			fp->err = 0;						/* Clear error flag */
 80042f2:	54d6      	strb	r6, [r2, r3]
			fp->sclust = ld_clust(dj.fs, dir);	/* File start cluster */
 80042f4:	2218      	movs	r2, #24
 80042f6:	ab04      	add	r3, sp, #16
 80042f8:	189b      	adds	r3, r3, r2
 80042fa:	595f      	ldr	r7, [r3, r5]
 80042fc:	5d78      	ldrb	r0, [r7, r5]
 80042fe:	f7fe fde9 	bl	8002ed4 <ld_clust.isra.0>
 8004302:	2382      	movs	r3, #130	; 0x82
 8004304:	9a01      	ldr	r2, [sp, #4]
 8004306:	00db      	lsls	r3, r3, #3
 8004308:	50d0      	str	r0, [r2, r3]
			fp->fsize = LD_DWORD(dir + DIR_FileSize);	/* File size */
 800430a:	7f62      	ldrb	r2, [r4, #29]
 800430c:	7f23      	ldrb	r3, [r4, #28]
 800430e:	0212      	lsls	r2, r2, #8
 8004310:	431a      	orrs	r2, r3
 8004312:	7fa3      	ldrb	r3, [r4, #30]
 8004314:	9901      	ldr	r1, [sp, #4]
 8004316:	041b      	lsls	r3, r3, #16
 8004318:	431a      	orrs	r2, r3
 800431a:	7fe3      	ldrb	r3, [r4, #31]
 800431c:	061b      	lsls	r3, r3, #24
 800431e:	4313      	orrs	r3, r2
 8004320:	4a0f      	ldr	r2, [pc, #60]	; (8004360 <f_open+0x208>)
 8004322:	508b      	str	r3, [r1, r2]
			fp->fptr = 0;						/* File pointer */
 8004324:	2381      	movs	r3, #129	; 0x81
 8004326:	00db      	lsls	r3, r3, #3
 8004328:	50ce      	str	r6, [r1, r3]
			fp->dsect = 0;
 800432a:	3310      	adds	r3, #16
 800432c:	50ce      	str	r6, [r1, r3]
			fp->cltbl = 0;						/* Normal seek mode */
 800432e:	4b11      	ldr	r3, [pc, #68]	; (8004374 <f_open+0x21c>)
 8004330:	50ce      	str	r6, [r1, r3]
			fp->id = fp->fs->id;
 8004332:	4b0e      	ldr	r3, [pc, #56]	; (800436c <f_open+0x214>)
			fp->fs = dj.fs;	 					/* Validate file object */
 8004334:	514f      	str	r7, [r1, r5]
			fp->id = fp->fs->id;
 8004336:	5afa      	ldrh	r2, [r7, r3]
 8004338:	4b07      	ldr	r3, [pc, #28]	; (8004358 <f_open+0x200>)
 800433a:	52ca      	strh	r2, [r1, r3]
 800433c:	e79e      	b.n	800427c <f_open+0x124>
					res = FR_NO_FILE;
 800433e:	2304      	movs	r3, #4
 8004340:	e79b      	b.n	800427a <f_open+0x122>
					res = FR_DENIED;
 8004342:	2307      	movs	r3, #7
 8004344:	e799      	b.n	800427a <f_open+0x122>
 8004346:	46c0      	nop			; (mov r8, r8)
 8004348:	fffffbac 	.word	0xfffffbac
 800434c:	200000c2 	.word	0x200000c2
 8004350:	00000414 	.word	0x00000414
 8004354:	200000a8 	.word	0x200000a8
 8004358:	00000404 	.word	0x00000404
 800435c:	0000042c 	.word	0x0000042c
 8004360:	0000040c 	.word	0x0000040c
 8004364:	00000454 	.word	0x00000454
 8004368:	0000041c 	.word	0x0000041c
 800436c:	00000406 	.word	0x00000406
 8004370:	00000407 	.word	0x00000407
 8004374:	00000424 	.word	0x00000424

08004378 <f_read>:
	FIL* fp, 		/* Pointer to the file object */
	void* buff,		/* Pointer to data buffer */
	UINT btr,		/* Number of bytes to read */
	UINT* br		/* Pointer to number of bytes read */
)
{
 8004378:	b5f0      	push	{r4, r5, r6, r7, lr}
 800437a:	b089      	sub	sp, #36	; 0x24
 800437c:	9306      	str	r3, [sp, #24]
	DWORD clst, sect, remain;
	UINT rcnt, cc;
	BYTE csect, *rbuff = (BYTE*)buff;


	*br = 0;	/* Clear read byte counter */
 800437e:	2300      	movs	r3, #0
{
 8004380:	0015      	movs	r5, r2
	*br = 0;	/* Clear read byte counter */
 8004382:	9a06      	ldr	r2, [sp, #24]
{
 8004384:	0004      	movs	r4, r0
	*br = 0;	/* Clear read byte counter */
 8004386:	6013      	str	r3, [r2, #0]
{
 8004388:	000e      	movs	r6, r1

	res = validate(fp);							/* Check validity */
 800438a:	f7fe fd0b 	bl	8002da4 <validate>
 800438e:	9001      	str	r0, [sp, #4]
	if (res != FR_OK) LEAVE_FF(fp->fs, res);
 8004390:	2800      	cmp	r0, #0
 8004392:	d119      	bne.n	80043c8 <f_read+0x50>
	if (fp->err)								/* Check error */
 8004394:	4a73      	ldr	r2, [pc, #460]	; (8004564 <f_read+0x1ec>)
 8004396:	5ca3      	ldrb	r3, [r4, r2]
 8004398:	9207      	str	r2, [sp, #28]
 800439a:	2b00      	cmp	r3, #0
 800439c:	d13c      	bne.n	8004418 <f_read+0xa0>
		LEAVE_FF(fp->fs, (FRESULT)fp->err);
	if (!(fp->flag & FA_READ)) 					/* Check access mode */
 800439e:	4b72      	ldr	r3, [pc, #456]	; (8004568 <f_read+0x1f0>)
 80043a0:	5ce2      	ldrb	r2, [r4, r3]
 80043a2:	9305      	str	r3, [sp, #20]
 80043a4:	07d3      	lsls	r3, r2, #31
 80043a6:	d400      	bmi.n	80043aa <f_read+0x32>
 80043a8:	e0d9      	b.n	800455e <f_read+0x1e6>
		LEAVE_FF(fp->fs, FR_DENIED);
	remain = fp->fsize - fp->fptr;
 80043aa:	4b70      	ldr	r3, [pc, #448]	; (800456c <f_read+0x1f4>)
 80043ac:	58e2      	ldr	r2, [r4, r3]
 80043ae:	3b04      	subs	r3, #4
 80043b0:	58e3      	ldr	r3, [r4, r3]
 80043b2:	1ad3      	subs	r3, r2, r3
 80043b4:	9300      	str	r3, [sp, #0]
 80043b6:	42ab      	cmp	r3, r5
 80043b8:	d900      	bls.n	80043bc <f_read+0x44>
 80043ba:	9500      	str	r5, [sp, #0]
	if (btr > remain) btr = (UINT)remain;		/* Truncate btr by remaining bytes */

	for ( ;  btr;								/* Repeat until all data read */
		rbuff += rcnt, fp->fptr += rcnt, *br += rcnt, btr -= rcnt) {
		if ((fp->fptr % SS(fp->fs)) == 0) {		/* On the sector boundary? */
 80043bc:	2780      	movs	r7, #128	; 0x80
	remain = fp->fsize - fp->fptr;
 80043be:	9604      	str	r6, [sp, #16]
		if ((fp->fptr % SS(fp->fs)) == 0) {		/* On the sector boundary? */
 80043c0:	00ff      	lsls	r7, r7, #3
	for ( ;  btr;								/* Repeat until all data read */
 80043c2:	9b00      	ldr	r3, [sp, #0]
 80043c4:	2b00      	cmp	r3, #0
 80043c6:	d102      	bne.n	80043ce <f_read+0x56>
		mem_cpy(rbuff, &fp->buf.d8[fp->fptr % SS(fp->fs)], rcnt);	/* Pick partial sector */
#endif
	}

	LEAVE_FF(fp->fs, FR_OK);
}
 80043c8:	9801      	ldr	r0, [sp, #4]
 80043ca:	b009      	add	sp, #36	; 0x24
 80043cc:	bdf0      	pop	{r4, r5, r6, r7, pc}
		if ((fp->fptr % SS(fp->fs)) == 0) {		/* On the sector boundary? */
 80043ce:	2381      	movs	r3, #129	; 0x81
 80043d0:	00db      	lsls	r3, r3, #3
 80043d2:	58e5      	ldr	r5, [r4, r3]
 80043d4:	59e3      	ldr	r3, [r4, r7]
 80043d6:	4a66      	ldr	r2, [pc, #408]	; (8004570 <f_read+0x1f8>)
 80043d8:	9302      	str	r3, [sp, #8]
 80043da:	5a9b      	ldrh	r3, [r3, r2]
 80043dc:	0028      	movs	r0, r5
 80043de:	0019      	movs	r1, r3
 80043e0:	9303      	str	r3, [sp, #12]
 80043e2:	f7fb ff33 	bl	800024c <__aeabi_uidivmod>
 80043e6:	2900      	cmp	r1, #0
 80043e8:	d000      	beq.n	80043ec <f_read+0x74>
 80043ea:	e0a2      	b.n	8004532 <f_read+0x1ba>
			csect = (BYTE)(fp->fptr / SS(fp->fs) & (fp->fs->csize - 1));	/* Sector offset in the cluster */
 80043ec:	9b02      	ldr	r3, [sp, #8]
 80043ee:	4a61      	ldr	r2, [pc, #388]	; (8004574 <f_read+0x1fc>)
 80043f0:	9903      	ldr	r1, [sp, #12]
 80043f2:	0028      	movs	r0, r5
 80043f4:	5c9e      	ldrb	r6, [r3, r2]
 80043f6:	f7fb fea3 	bl	8000140 <__udivsi3>
 80043fa:	3e01      	subs	r6, #1
 80043fc:	4006      	ands	r6, r0
 80043fe:	b2f6      	uxtb	r6, r6
			if (!csect) {						/* On the cluster boundary? */
 8004400:	2e00      	cmp	r6, #0
 8004402:	d120      	bne.n	8004446 <f_read+0xce>
				if (fp->fptr == 0) {			/* On the top of the file? */
 8004404:	2d00      	cmp	r5, #0
 8004406:	d109      	bne.n	800441c <f_read+0xa4>
					clst = fp->sclust;			/* Follow from the origin */
 8004408:	2382      	movs	r3, #130	; 0x82
 800440a:	00db      	lsls	r3, r3, #3
 800440c:	58e0      	ldr	r0, [r4, r3]
				if (clst < 2) ABORT(fp->fs, FR_INT_ERR);
 800440e:	2801      	cmp	r0, #1
 8004410:	d813      	bhi.n	800443a <f_read+0xc2>
 8004412:	2302      	movs	r3, #2
				if (clst == 0xFFFFFFFF) ABORT(fp->fs, FR_DISK_ERR);
 8004414:	9a07      	ldr	r2, [sp, #28]
 8004416:	54a3      	strb	r3, [r4, r2]
		LEAVE_FF(fp->fs, FR_DENIED);
 8004418:	9301      	str	r3, [sp, #4]
 800441a:	e7d5      	b.n	80043c8 <f_read+0x50>
					if (fp->cltbl)
 800441c:	4b56      	ldr	r3, [pc, #344]	; (8004578 <f_read+0x200>)
 800441e:	58e3      	ldr	r3, [r4, r3]
 8004420:	2b00      	cmp	r3, #0
 8004422:	d004      	beq.n	800442e <f_read+0xb6>
						clst = clmt_clust(fp, fp->fptr);	/* Get cluster# from the CLMT */
 8004424:	0029      	movs	r1, r5
 8004426:	0020      	movs	r0, r4
 8004428:	f7fe fc76 	bl	8002d18 <clmt_clust>
 800442c:	e7ef      	b.n	800440e <f_read+0x96>
						clst = get_fat(fp->fs, fp->clust);	/* Follow cluster chain on the FAT */
 800442e:	4b53      	ldr	r3, [pc, #332]	; (800457c <f_read+0x204>)
 8004430:	9802      	ldr	r0, [sp, #8]
 8004432:	58e1      	ldr	r1, [r4, r3]
 8004434:	f7ff f818 	bl	8003468 <get_fat>
 8004438:	e7e9      	b.n	800440e <f_read+0x96>
				if (clst == 0xFFFFFFFF) ABORT(fp->fs, FR_DISK_ERR);
 800443a:	1c43      	adds	r3, r0, #1
 800443c:	d101      	bne.n	8004442 <f_read+0xca>
 800443e:	2301      	movs	r3, #1
 8004440:	e7e8      	b.n	8004414 <f_read+0x9c>
				fp->clust = clst;				/* Update current cluster */
 8004442:	4b4e      	ldr	r3, [pc, #312]	; (800457c <f_read+0x204>)
 8004444:	50e0      	str	r0, [r4, r3]
			sect = clust2sect(fp->fs, fp->clust);	/* Get current sector */
 8004446:	59e3      	ldr	r3, [r4, r7]
 8004448:	9302      	str	r3, [sp, #8]
 800444a:	4b4c      	ldr	r3, [pc, #304]	; (800457c <f_read+0x204>)
 800444c:	9802      	ldr	r0, [sp, #8]
 800444e:	58e1      	ldr	r1, [r4, r3]
 8004450:	f7fe fff6 	bl	8003440 <clust2sect>
			if (!sect) ABORT(fp->fs, FR_INT_ERR);
 8004454:	2800      	cmp	r0, #0
 8004456:	d0dc      	beq.n	8004412 <f_read+0x9a>
			sect += csect;
 8004458:	1983      	adds	r3, r0, r6
 800445a:	9303      	str	r3, [sp, #12]
			cc = btr / SS(fp->fs);				/* When remaining bytes >= sector size, */
 800445c:	4a44      	ldr	r2, [pc, #272]	; (8004570 <f_read+0x1f8>)
 800445e:	9b02      	ldr	r3, [sp, #8]
 8004460:	9800      	ldr	r0, [sp, #0]
 8004462:	5a99      	ldrh	r1, [r3, r2]
 8004464:	f7fb fe6c 	bl	8000140 <__udivsi3>
 8004468:	1e05      	subs	r5, r0, #0
			if (cc) {							/* Read maximum contiguous sectors directly */
 800446a:	d03c      	beq.n	80044e6 <f_read+0x16e>
				if (csect + cc > fp->fs->csize)	/* Clip at cluster boundary */
 800446c:	4a41      	ldr	r2, [pc, #260]	; (8004574 <f_read+0x1fc>)
 800446e:	9b02      	ldr	r3, [sp, #8]
 8004470:	5c9b      	ldrb	r3, [r3, r2]
 8004472:	1832      	adds	r2, r6, r0
 8004474:	429a      	cmp	r2, r3
 8004476:	d900      	bls.n	800447a <f_read+0x102>
					cc = fp->fs->csize - csect;
 8004478:	1b9d      	subs	r5, r3, r6
				if (disk_read(fp->fs->drv, rbuff, sect, cc) != RES_OK)
 800447a:	4b41      	ldr	r3, [pc, #260]	; (8004580 <f_read+0x208>)
 800447c:	9a02      	ldr	r2, [sp, #8]
 800447e:	9904      	ldr	r1, [sp, #16]
 8004480:	5cd0      	ldrb	r0, [r2, r3]
 8004482:	002b      	movs	r3, r5
 8004484:	9a03      	ldr	r2, [sp, #12]
 8004486:	f7fe fb6b 	bl	8002b60 <disk_read>
 800448a:	2800      	cmp	r0, #0
 800448c:	d1d7      	bne.n	800443e <f_read+0xc6>
				if ((fp->flag & FA__DIRTY) && fp->dsect - sect < cc)
 800448e:	9b05      	ldr	r3, [sp, #20]
 8004490:	5ce3      	ldrb	r3, [r4, r3]
 8004492:	065b      	lsls	r3, r3, #25
 8004494:	d50f      	bpl.n	80044b6 <f_read+0x13e>
 8004496:	2383      	movs	r3, #131	; 0x83
 8004498:	00db      	lsls	r3, r3, #3
 800449a:	58e0      	ldr	r0, [r4, r3]
 800449c:	9b03      	ldr	r3, [sp, #12]
 800449e:	1ac0      	subs	r0, r0, r3
 80044a0:	4285      	cmp	r5, r0
 80044a2:	d908      	bls.n	80044b6 <f_read+0x13e>
					mem_cpy(rbuff + ((fp->dsect - sect) * SS(fp->fs)), fp->buf.d8, SS(fp->fs));
 80044a4:	59e3      	ldr	r3, [r4, r7]
 80044a6:	4a32      	ldr	r2, [pc, #200]	; (8004570 <f_read+0x1f8>)
 80044a8:	0021      	movs	r1, r4
 80044aa:	5a9a      	ldrh	r2, [r3, r2]
 80044ac:	9b04      	ldr	r3, [sp, #16]
 80044ae:	4350      	muls	r0, r2
 80044b0:	1818      	adds	r0, r3, r0
 80044b2:	f7fe fb7f 	bl	8002bb4 <mem_cpy>
				rcnt = SS(fp->fs) * cc;			/* Number of bytes transferred */
 80044b6:	59e3      	ldr	r3, [r4, r7]
 80044b8:	4a2d      	ldr	r2, [pc, #180]	; (8004570 <f_read+0x1f8>)
 80044ba:	5a9b      	ldrh	r3, [r3, r2]
 80044bc:	435d      	muls	r5, r3
		rbuff += rcnt, fp->fptr += rcnt, *br += rcnt, btr -= rcnt) {
 80044be:	9b04      	ldr	r3, [sp, #16]
 80044c0:	2281      	movs	r2, #129	; 0x81
 80044c2:	195b      	adds	r3, r3, r5
 80044c4:	9304      	str	r3, [sp, #16]
 80044c6:	2381      	movs	r3, #129	; 0x81
 80044c8:	00db      	lsls	r3, r3, #3
 80044ca:	58e3      	ldr	r3, [r4, r3]
 80044cc:	00d2      	lsls	r2, r2, #3
 80044ce:	195b      	adds	r3, r3, r5
 80044d0:	50a3      	str	r3, [r4, r2]
 80044d2:	9b06      	ldr	r3, [sp, #24]
 80044d4:	9a06      	ldr	r2, [sp, #24]
 80044d6:	681b      	ldr	r3, [r3, #0]
 80044d8:	9302      	str	r3, [sp, #8]
 80044da:	195b      	adds	r3, r3, r5
 80044dc:	6013      	str	r3, [r2, #0]
 80044de:	9b00      	ldr	r3, [sp, #0]
 80044e0:	1b5b      	subs	r3, r3, r5
 80044e2:	9300      	str	r3, [sp, #0]
 80044e4:	e76d      	b.n	80043c2 <f_read+0x4a>
			if (fp->dsect != sect) {			/* Load data sector if not in cache */
 80044e6:	2383      	movs	r3, #131	; 0x83
 80044e8:	00db      	lsls	r3, r3, #3
 80044ea:	58e2      	ldr	r2, [r4, r3]
 80044ec:	9b03      	ldr	r3, [sp, #12]
 80044ee:	4293      	cmp	r3, r2
 80044f0:	d01b      	beq.n	800452a <f_read+0x1b2>
				if (fp->flag & FA__DIRTY) {		/* Write-back dirty sector cache */
 80044f2:	2640      	movs	r6, #64	; 0x40
 80044f4:	9b05      	ldr	r3, [sp, #20]
 80044f6:	4d22      	ldr	r5, [pc, #136]	; (8004580 <f_read+0x208>)
 80044f8:	5ce3      	ldrb	r3, [r4, r3]
 80044fa:	4233      	tst	r3, r6
 80044fc:	d00c      	beq.n	8004518 <f_read+0x1a0>
					if (disk_write(fp->fs->drv, fp->buf.d8, fp->dsect, 1) != RES_OK)
 80044fe:	9b02      	ldr	r3, [sp, #8]
 8004500:	0021      	movs	r1, r4
 8004502:	5d58      	ldrb	r0, [r3, r5]
 8004504:	2301      	movs	r3, #1
 8004506:	f7fe fb39 	bl	8002b7c <disk_write>
 800450a:	2800      	cmp	r0, #0
 800450c:	d197      	bne.n	800443e <f_read+0xc6>
					fp->flag &= ~FA__DIRTY;
 800450e:	9b05      	ldr	r3, [sp, #20]
 8004510:	9a05      	ldr	r2, [sp, #20]
 8004512:	5ce3      	ldrb	r3, [r4, r3]
 8004514:	43b3      	bics	r3, r6
 8004516:	54a3      	strb	r3, [r4, r2]
				if (disk_read(fp->fs->drv, fp->buf.d8, sect, 1) != RES_OK)	/* Fill sector cache */
 8004518:	59e3      	ldr	r3, [r4, r7]
 800451a:	9a03      	ldr	r2, [sp, #12]
 800451c:	5d58      	ldrb	r0, [r3, r5]
 800451e:	0021      	movs	r1, r4
 8004520:	2301      	movs	r3, #1
 8004522:	f7fe fb1d 	bl	8002b60 <disk_read>
 8004526:	2800      	cmp	r0, #0
 8004528:	d189      	bne.n	800443e <f_read+0xc6>
			fp->dsect = sect;
 800452a:	2383      	movs	r3, #131	; 0x83
 800452c:	9a03      	ldr	r2, [sp, #12]
 800452e:	00db      	lsls	r3, r3, #3
 8004530:	50e2      	str	r2, [r4, r3]
		rcnt = SS(fp->fs) - ((UINT)fp->fptr % SS(fp->fs));	/* Get partial sector data from sector buffer */
 8004532:	59e3      	ldr	r3, [r4, r7]
 8004534:	4a0e      	ldr	r2, [pc, #56]	; (8004570 <f_read+0x1f8>)
 8004536:	5a9d      	ldrh	r5, [r3, r2]
 8004538:	2381      	movs	r3, #129	; 0x81
 800453a:	00db      	lsls	r3, r3, #3
 800453c:	58e3      	ldr	r3, [r4, r3]
 800453e:	0029      	movs	r1, r5
 8004540:	0018      	movs	r0, r3
 8004542:	9302      	str	r3, [sp, #8]
 8004544:	f7fb fe82 	bl	800024c <__aeabi_uidivmod>
 8004548:	1a6b      	subs	r3, r5, r1
 800454a:	9d00      	ldr	r5, [sp, #0]
 800454c:	429d      	cmp	r5, r3
 800454e:	d900      	bls.n	8004552 <f_read+0x1da>
 8004550:	001d      	movs	r5, r3
		mem_cpy(rbuff, &fp->buf.d8[fp->fptr % SS(fp->fs)], rcnt);	/* Pick partial sector */
 8004552:	1861      	adds	r1, r4, r1
 8004554:	002a      	movs	r2, r5
 8004556:	9804      	ldr	r0, [sp, #16]
 8004558:	f7fe fb2c 	bl	8002bb4 <mem_cpy>
 800455c:	e7af      	b.n	80044be <f_read+0x146>
		LEAVE_FF(fp->fs, FR_DENIED);
 800455e:	2307      	movs	r3, #7
 8004560:	e75a      	b.n	8004418 <f_read+0xa0>
 8004562:	46c0      	nop			; (mov r8, r8)
 8004564:	00000407 	.word	0x00000407
 8004568:	00000406 	.word	0x00000406
 800456c:	0000040c 	.word	0x0000040c
 8004570:	0000040a 	.word	0x0000040a
 8004574:	00000402 	.word	0x00000402
 8004578:	00000424 	.word	0x00000424
 800457c:	00000414 	.word	0x00000414
 8004580:	00000401 	.word	0x00000401

08004584 <f_write>:
	FIL* fp,			/* Pointer to the file object */
	const void *buff,	/* Pointer to the data to be written */
	UINT btw,			/* Number of bytes to write */
	UINT* bw			/* Pointer to number of bytes written */
)
{
 8004584:	b5f0      	push	{r4, r5, r6, r7, lr}
 8004586:	b08b      	sub	sp, #44	; 0x2c
 8004588:	9308      	str	r3, [sp, #32]
	UINT wcnt, cc;
	const BYTE *wbuff = (const BYTE*)buff;
	BYTE csect;


	*bw = 0;	/* Clear write byte counter */
 800458a:	2300      	movs	r3, #0
{
 800458c:	9202      	str	r2, [sp, #8]
	*bw = 0;	/* Clear write byte counter */
 800458e:	9a08      	ldr	r2, [sp, #32]
{
 8004590:	0004      	movs	r4, r0
	*bw = 0;	/* Clear write byte counter */
 8004592:	6013      	str	r3, [r2, #0]
{
 8004594:	000d      	movs	r5, r1

	res = validate(fp);						/* Check validity */
 8004596:	f7fe fc05 	bl	8002da4 <validate>
 800459a:	9003      	str	r0, [sp, #12]
	if (res != FR_OK) LEAVE_FF(fp->fs, res);
 800459c:	2800      	cmp	r0, #0
 800459e:	d159      	bne.n	8004654 <f_write+0xd0>
	if (fp->err)							/* Check error */
 80045a0:	4a87      	ldr	r2, [pc, #540]	; (80047c0 <f_write+0x23c>)
 80045a2:	5ca3      	ldrb	r3, [r4, r2]
 80045a4:	9209      	str	r2, [sp, #36]	; 0x24
 80045a6:	2b00      	cmp	r3, #0
 80045a8:	d13a      	bne.n	8004620 <f_write+0x9c>
		LEAVE_FF(fp->fs, (FRESULT)fp->err);
	if (!(fp->flag & FA_WRITE))				/* Check access mode */
 80045aa:	4b86      	ldr	r3, [pc, #536]	; (80047c4 <f_write+0x240>)
 80045ac:	5ce2      	ldrb	r2, [r4, r3]
 80045ae:	9301      	str	r3, [sp, #4]
 80045b0:	0793      	lsls	r3, r2, #30
 80045b2:	d400      	bmi.n	80045b6 <f_write+0x32>
 80045b4:	e101      	b.n	80047ba <f_write+0x236>
		LEAVE_FF(fp->fs, FR_DENIED);
	if (fp->fptr + btw < fp->fptr) btw = 0;	/* File size cannot reach 4GB */
 80045b6:	2381      	movs	r3, #129	; 0x81
 80045b8:	00db      	lsls	r3, r3, #3
 80045ba:	58e2      	ldr	r2, [r4, r3]
 80045bc:	9902      	ldr	r1, [sp, #8]
 80045be:	1889      	adds	r1, r1, r2
 80045c0:	428a      	cmp	r2, r1
 80045c2:	d839      	bhi.n	8004638 <f_write+0xb4>

	for ( ;  btw;							/* Repeat until all data written */
		wbuff += wcnt, fp->fptr += wcnt, *bw += wcnt, btw -= wcnt) {
		if ((fp->fptr % SS(fp->fs)) == 0) {	/* On the sector boundary? */
 80045c4:	2780      	movs	r7, #128	; 0x80
	if (fp->fptr + btw < fp->fptr) btw = 0;	/* File size cannot reach 4GB */
 80045c6:	9505      	str	r5, [sp, #20]
		if ((fp->fptr % SS(fp->fs)) == 0) {	/* On the sector boundary? */
 80045c8:	9306      	str	r3, [sp, #24]
 80045ca:	00ff      	lsls	r7, r7, #3
	for ( ;  btw;							/* Repeat until all data written */
 80045cc:	9b02      	ldr	r3, [sp, #8]
 80045ce:	2b00      	cmp	r3, #0
 80045d0:	d032      	beq.n	8004638 <f_write+0xb4>
		if ((fp->fptr % SS(fp->fs)) == 0) {	/* On the sector boundary? */
 80045d2:	9b06      	ldr	r3, [sp, #24]
 80045d4:	4a7c      	ldr	r2, [pc, #496]	; (80047c8 <f_write+0x244>)
 80045d6:	58e5      	ldr	r5, [r4, r3]
 80045d8:	59e3      	ldr	r3, [r4, r7]
 80045da:	0028      	movs	r0, r5
 80045dc:	9304      	str	r3, [sp, #16]
 80045de:	5a9b      	ldrh	r3, [r3, r2]
 80045e0:	0019      	movs	r1, r3
 80045e2:	9307      	str	r3, [sp, #28]
 80045e4:	f7fb fe32 	bl	800024c <__aeabi_uidivmod>
 80045e8:	2900      	cmp	r1, #0
 80045ea:	d000      	beq.n	80045ee <f_write+0x6a>
 80045ec:	e0c8      	b.n	8004780 <f_write+0x1fc>
			csect = (BYTE)(fp->fptr / SS(fp->fs) & (fp->fs->csize - 1));	/* Sector offset in the cluster */
 80045ee:	9b04      	ldr	r3, [sp, #16]
 80045f0:	4a76      	ldr	r2, [pc, #472]	; (80047cc <f_write+0x248>)
 80045f2:	9907      	ldr	r1, [sp, #28]
 80045f4:	0028      	movs	r0, r5
 80045f6:	5c9e      	ldrb	r6, [r3, r2]
 80045f8:	f7fb fda2 	bl	8000140 <__udivsi3>
 80045fc:	3e01      	subs	r6, #1
 80045fe:	4006      	ands	r6, r0
 8004600:	b2f3      	uxtb	r3, r6
 8004602:	9307      	str	r3, [sp, #28]
			if (!csect) {					/* On the cluster boundary? */
 8004604:	2b00      	cmp	r3, #0
 8004606:	d139      	bne.n	800467c <f_write+0xf8>
				if (fp->fptr == 0) {		/* On the top of the file? */
 8004608:	2d00      	cmp	r5, #0
 800460a:	d10b      	bne.n	8004624 <f_write+0xa0>
					clst = fp->sclust;		/* Follow from the origin */
 800460c:	2382      	movs	r3, #130	; 0x82
 800460e:	00db      	lsls	r3, r3, #3
 8004610:	58e0      	ldr	r0, [r4, r3]
					if (clst == 0)			/* When no cluster is allocated, */
						clst = create_chain(fp->fs, 0);	/* Create a new cluster chain */
 8004612:	1e01      	subs	r1, r0, #0
					if (clst == 0)			/* When no cluster is allocated, */
 8004614:	d023      	beq.n	800465e <f_write+0xda>
					else
#endif
						clst = create_chain(fp->fs, fp->clust);	/* Follow or stretch cluster chain on the FAT */
				}
				if (clst == 0) break;		/* Could not allocate a new cluster (disk full) */
				if (clst == 1) ABORT(fp->fs, FR_INT_ERR);
 8004616:	2801      	cmp	r0, #1
 8004618:	d125      	bne.n	8004666 <f_write+0xe2>
 800461a:	2302      	movs	r3, #2
				if (clst == 0xFFFFFFFF) ABORT(fp->fs, FR_DISK_ERR);
 800461c:	9a09      	ldr	r2, [sp, #36]	; 0x24
 800461e:	54a3      	strb	r3, [r4, r2]
		LEAVE_FF(fp->fs, FR_DENIED);
 8004620:	9303      	str	r3, [sp, #12]
 8004622:	e017      	b.n	8004654 <f_write+0xd0>
					if (fp->cltbl)
 8004624:	4b6a      	ldr	r3, [pc, #424]	; (80047d0 <f_write+0x24c>)
 8004626:	58e3      	ldr	r3, [r4, r3]
 8004628:	2b00      	cmp	r3, #0
 800462a:	d016      	beq.n	800465a <f_write+0xd6>
						clst = clmt_clust(fp, fp->fptr);	/* Get cluster# from the CLMT */
 800462c:	0029      	movs	r1, r5
 800462e:	0020      	movs	r0, r4
 8004630:	f7fe fb72 	bl	8002d18 <clmt_clust>
				if (clst == 0) break;		/* Could not allocate a new cluster (disk full) */
 8004634:	2800      	cmp	r0, #0
 8004636:	d1ee      	bne.n	8004616 <f_write+0x92>
		mem_cpy(&fp->buf.d8[fp->fptr % SS(fp->fs)], wbuff, wcnt);	/* Fit partial sector */
		fp->flag |= FA__DIRTY;
#endif
	}

	if (fp->fptr > fp->fsize) fp->fsize = fp->fptr;	/* Update file size if needed */
 8004638:	2381      	movs	r3, #129	; 0x81
 800463a:	00db      	lsls	r3, r3, #3
 800463c:	58e2      	ldr	r2, [r4, r3]
 800463e:	4b65      	ldr	r3, [pc, #404]	; (80047d4 <f_write+0x250>)
 8004640:	58e1      	ldr	r1, [r4, r3]
 8004642:	428a      	cmp	r2, r1
 8004644:	d900      	bls.n	8004648 <f_write+0xc4>
 8004646:	e0b6      	b.n	80047b6 <f_write+0x232>
	fp->flag |= FA__WRITTEN;						/* Set file change flag */
 8004648:	9b01      	ldr	r3, [sp, #4]
 800464a:	5ce2      	ldrb	r2, [r4, r3]
 800464c:	2320      	movs	r3, #32
 800464e:	4313      	orrs	r3, r2
 8004650:	9a01      	ldr	r2, [sp, #4]
 8004652:	54a3      	strb	r3, [r4, r2]

	LEAVE_FF(fp->fs, FR_OK);
}
 8004654:	9803      	ldr	r0, [sp, #12]
 8004656:	b00b      	add	sp, #44	; 0x2c
 8004658:	bdf0      	pop	{r4, r5, r6, r7, pc}
						clst = create_chain(fp->fs, fp->clust);	/* Follow or stretch cluster chain on the FAT */
 800465a:	4b5f      	ldr	r3, [pc, #380]	; (80047d8 <f_write+0x254>)
 800465c:	58e1      	ldr	r1, [r4, r3]
 800465e:	9804      	ldr	r0, [sp, #16]
 8004660:	f7ff f8ae 	bl	80037c0 <create_chain>
 8004664:	e7e6      	b.n	8004634 <f_write+0xb0>
				if (clst == 0xFFFFFFFF) ABORT(fp->fs, FR_DISK_ERR);
 8004666:	1c43      	adds	r3, r0, #1
 8004668:	d101      	bne.n	800466e <f_write+0xea>
 800466a:	2301      	movs	r3, #1
 800466c:	e7d6      	b.n	800461c <f_write+0x98>
				fp->clust = clst;			/* Update current cluster */
 800466e:	4b5a      	ldr	r3, [pc, #360]	; (80047d8 <f_write+0x254>)
 8004670:	50e0      	str	r0, [r4, r3]
				if (fp->sclust == 0) fp->sclust = clst;	/* Set start cluster if the first write */
 8004672:	3b04      	subs	r3, #4
 8004674:	58e2      	ldr	r2, [r4, r3]
 8004676:	2a00      	cmp	r2, #0
 8004678:	d100      	bne.n	800467c <f_write+0xf8>
 800467a:	50e0      	str	r0, [r4, r3]
			if (fp->flag & FA__DIRTY) {		/* Write-back sector cache */
 800467c:	2540      	movs	r5, #64	; 0x40
 800467e:	9b01      	ldr	r3, [sp, #4]
 8004680:	5ce3      	ldrb	r3, [r4, r3]
 8004682:	422b      	tst	r3, r5
 8004684:	d010      	beq.n	80046a8 <f_write+0x124>
				if (disk_write(fp->fs->drv, fp->buf.d8, fp->dsect, 1) != RES_OK)
 8004686:	4b55      	ldr	r3, [pc, #340]	; (80047dc <f_write+0x258>)
 8004688:	59e2      	ldr	r2, [r4, r7]
 800468a:	0021      	movs	r1, r4
 800468c:	5cd0      	ldrb	r0, [r2, r3]
 800468e:	2283      	movs	r2, #131	; 0x83
 8004690:	00d2      	lsls	r2, r2, #3
 8004692:	2301      	movs	r3, #1
 8004694:	58a2      	ldr	r2, [r4, r2]
 8004696:	f7fe fa71 	bl	8002b7c <disk_write>
 800469a:	2800      	cmp	r0, #0
 800469c:	d1e5      	bne.n	800466a <f_write+0xe6>
				fp->flag &= ~FA__DIRTY;
 800469e:	9b01      	ldr	r3, [sp, #4]
 80046a0:	9a01      	ldr	r2, [sp, #4]
 80046a2:	5ce3      	ldrb	r3, [r4, r3]
 80046a4:	43ab      	bics	r3, r5
 80046a6:	54a3      	strb	r3, [r4, r2]
			sect = clust2sect(fp->fs, fp->clust);	/* Get current sector */
 80046a8:	59e3      	ldr	r3, [r4, r7]
 80046aa:	9304      	str	r3, [sp, #16]
 80046ac:	4b4a      	ldr	r3, [pc, #296]	; (80047d8 <f_write+0x254>)
 80046ae:	9804      	ldr	r0, [sp, #16]
 80046b0:	58e1      	ldr	r1, [r4, r3]
 80046b2:	f7fe fec5 	bl	8003440 <clust2sect>
			if (!sect) ABORT(fp->fs, FR_INT_ERR);
 80046b6:	2800      	cmp	r0, #0
 80046b8:	d0af      	beq.n	800461a <f_write+0x96>
			sect += csect;
 80046ba:	9b07      	ldr	r3, [sp, #28]
			cc = btw / SS(fp->fs);			/* When remaining bytes >= sector size, */
 80046bc:	4a42      	ldr	r2, [pc, #264]	; (80047c8 <f_write+0x244>)
			sect += csect;
 80046be:	18c5      	adds	r5, r0, r3
			cc = btw / SS(fp->fs);			/* When remaining bytes >= sector size, */
 80046c0:	9b04      	ldr	r3, [sp, #16]
 80046c2:	9802      	ldr	r0, [sp, #8]
 80046c4:	5a99      	ldrh	r1, [r3, r2]
 80046c6:	f7fb fd3b 	bl	8000140 <__udivsi3>
 80046ca:	1e06      	subs	r6, r0, #0
			if (cc) {						/* Write maximum contiguous sectors directly */
 80046cc:	d03d      	beq.n	800474a <f_write+0x1c6>
				if (csect + cc > fp->fs->csize)	/* Clip at cluster boundary */
 80046ce:	4a3f      	ldr	r2, [pc, #252]	; (80047cc <f_write+0x248>)
 80046d0:	9b04      	ldr	r3, [sp, #16]
 80046d2:	5c9b      	ldrb	r3, [r3, r2]
 80046d4:	9a07      	ldr	r2, [sp, #28]
 80046d6:	1812      	adds	r2, r2, r0
 80046d8:	429a      	cmp	r2, r3
 80046da:	d901      	bls.n	80046e0 <f_write+0x15c>
					cc = fp->fs->csize - csect;
 80046dc:	9a07      	ldr	r2, [sp, #28]
 80046de:	1a9e      	subs	r6, r3, r2
				if (disk_write(fp->fs->drv, wbuff, sect, cc) != RES_OK)
 80046e0:	4b3e      	ldr	r3, [pc, #248]	; (80047dc <f_write+0x258>)
 80046e2:	9a04      	ldr	r2, [sp, #16]
 80046e4:	9905      	ldr	r1, [sp, #20]
 80046e6:	5cd0      	ldrb	r0, [r2, r3]
 80046e8:	0033      	movs	r3, r6
 80046ea:	002a      	movs	r2, r5
 80046ec:	f7fe fa46 	bl	8002b7c <disk_write>
 80046f0:	2800      	cmp	r0, #0
 80046f2:	d1ba      	bne.n	800466a <f_write+0xe6>
				if (fp->dsect - sect < cc) { /* Refill sector cache if it gets invalidated by the direct write */
 80046f4:	2383      	movs	r3, #131	; 0x83
 80046f6:	00db      	lsls	r3, r3, #3
 80046f8:	58e0      	ldr	r0, [r4, r3]
 80046fa:	1b45      	subs	r5, r0, r5
 80046fc:	42ae      	cmp	r6, r5
 80046fe:	d90e      	bls.n	800471e <f_write+0x19a>
					mem_cpy(fp->buf.d8, wbuff + ((fp->dsect - sect) * SS(fp->fs)), SS(fp->fs));
 8004700:	59e3      	ldr	r3, [r4, r7]
 8004702:	4a31      	ldr	r2, [pc, #196]	; (80047c8 <f_write+0x244>)
 8004704:	0020      	movs	r0, r4
 8004706:	5a9a      	ldrh	r2, [r3, r2]
 8004708:	9b05      	ldr	r3, [sp, #20]
 800470a:	4355      	muls	r5, r2
 800470c:	1959      	adds	r1, r3, r5
 800470e:	f7fe fa51 	bl	8002bb4 <mem_cpy>
					fp->flag &= ~FA__DIRTY;
 8004712:	2240      	movs	r2, #64	; 0x40
 8004714:	9b01      	ldr	r3, [sp, #4]
 8004716:	5ce3      	ldrb	r3, [r4, r3]
 8004718:	4393      	bics	r3, r2
 800471a:	9a01      	ldr	r2, [sp, #4]
 800471c:	54a3      	strb	r3, [r4, r2]
				wcnt = SS(fp->fs) * cc;		/* Number of bytes transferred */
 800471e:	59e3      	ldr	r3, [r4, r7]
 8004720:	4a29      	ldr	r2, [pc, #164]	; (80047c8 <f_write+0x244>)
 8004722:	5a9b      	ldrh	r3, [r3, r2]
 8004724:	435e      	muls	r6, r3
		wbuff += wcnt, fp->fptr += wcnt, *bw += wcnt, btw -= wcnt) {
 8004726:	9b05      	ldr	r3, [sp, #20]
 8004728:	9a06      	ldr	r2, [sp, #24]
 800472a:	199b      	adds	r3, r3, r6
 800472c:	9305      	str	r3, [sp, #20]
 800472e:	9b06      	ldr	r3, [sp, #24]
 8004730:	58e3      	ldr	r3, [r4, r3]
 8004732:	199b      	adds	r3, r3, r6
 8004734:	50a3      	str	r3, [r4, r2]
 8004736:	9b08      	ldr	r3, [sp, #32]
 8004738:	9a08      	ldr	r2, [sp, #32]
 800473a:	681b      	ldr	r3, [r3, #0]
 800473c:	9304      	str	r3, [sp, #16]
 800473e:	199b      	adds	r3, r3, r6
 8004740:	6013      	str	r3, [r2, #0]
 8004742:	9b02      	ldr	r3, [sp, #8]
 8004744:	1b9b      	subs	r3, r3, r6
 8004746:	9302      	str	r3, [sp, #8]
 8004748:	e740      	b.n	80045cc <f_write+0x48>
			if (fp->dsect != sect) {		/* Fill sector cache with file data */
 800474a:	2383      	movs	r3, #131	; 0x83
 800474c:	00db      	lsls	r3, r3, #3
 800474e:	58e3      	ldr	r3, [r4, r3]
 8004750:	429d      	cmp	r5, r3
 8004752:	d012      	beq.n	800477a <f_write+0x1f6>
				if (fp->fptr < fp->fsize &&
 8004754:	9b06      	ldr	r3, [sp, #24]
 8004756:	58e3      	ldr	r3, [r4, r3]
 8004758:	9307      	str	r3, [sp, #28]
 800475a:	4b1e      	ldr	r3, [pc, #120]	; (80047d4 <f_write+0x250>)
 800475c:	9a07      	ldr	r2, [sp, #28]
 800475e:	58e3      	ldr	r3, [r4, r3]
 8004760:	429a      	cmp	r2, r3
 8004762:	d20a      	bcs.n	800477a <f_write+0x1f6>
					disk_read(fp->fs->drv, fp->buf.d8, sect, 1) != RES_OK)
 8004764:	4b1d      	ldr	r3, [pc, #116]	; (80047dc <f_write+0x258>)
 8004766:	9a04      	ldr	r2, [sp, #16]
 8004768:	0021      	movs	r1, r4
 800476a:	5cd0      	ldrb	r0, [r2, r3]
 800476c:	2301      	movs	r3, #1
 800476e:	002a      	movs	r2, r5
 8004770:	f7fe f9f6 	bl	8002b60 <disk_read>
				if (fp->fptr < fp->fsize &&
 8004774:	2800      	cmp	r0, #0
 8004776:	d000      	beq.n	800477a <f_write+0x1f6>
 8004778:	e777      	b.n	800466a <f_write+0xe6>
			fp->dsect = sect;
 800477a:	2383      	movs	r3, #131	; 0x83
 800477c:	00db      	lsls	r3, r3, #3
 800477e:	50e5      	str	r5, [r4, r3]
		wcnt = SS(fp->fs) - ((UINT)fp->fptr % SS(fp->fs));/* Put partial sector into file I/O buffer */
 8004780:	59e3      	ldr	r3, [r4, r7]
 8004782:	4a11      	ldr	r2, [pc, #68]	; (80047c8 <f_write+0x244>)
 8004784:	5a9d      	ldrh	r5, [r3, r2]
 8004786:	9b06      	ldr	r3, [sp, #24]
 8004788:	0029      	movs	r1, r5
 800478a:	58e3      	ldr	r3, [r4, r3]
 800478c:	0018      	movs	r0, r3
 800478e:	9304      	str	r3, [sp, #16]
 8004790:	f7fb fd5c 	bl	800024c <__aeabi_uidivmod>
 8004794:	9e02      	ldr	r6, [sp, #8]
 8004796:	1a6d      	subs	r5, r5, r1
 8004798:	42ae      	cmp	r6, r5
 800479a:	d900      	bls.n	800479e <f_write+0x21a>
 800479c:	002e      	movs	r6, r5
		mem_cpy(&fp->buf.d8[fp->fptr % SS(fp->fs)], wbuff, wcnt);	/* Fit partial sector */
 800479e:	1860      	adds	r0, r4, r1
 80047a0:	0032      	movs	r2, r6
 80047a2:	9905      	ldr	r1, [sp, #20]
 80047a4:	f7fe fa06 	bl	8002bb4 <mem_cpy>
		fp->flag |= FA__DIRTY;
 80047a8:	9b01      	ldr	r3, [sp, #4]
 80047aa:	5ce2      	ldrb	r2, [r4, r3]
 80047ac:	2340      	movs	r3, #64	; 0x40
 80047ae:	4313      	orrs	r3, r2
 80047b0:	9a01      	ldr	r2, [sp, #4]
 80047b2:	54a3      	strb	r3, [r4, r2]
 80047b4:	e7b7      	b.n	8004726 <f_write+0x1a2>
	if (fp->fptr > fp->fsize) fp->fsize = fp->fptr;	/* Update file size if needed */
 80047b6:	50e2      	str	r2, [r4, r3]
 80047b8:	e746      	b.n	8004648 <f_write+0xc4>
		LEAVE_FF(fp->fs, FR_DENIED);
 80047ba:	2307      	movs	r3, #7
 80047bc:	e730      	b.n	8004620 <f_write+0x9c>
 80047be:	46c0      	nop			; (mov r8, r8)
 80047c0:	00000407 	.word	0x00000407
 80047c4:	00000406 	.word	0x00000406
 80047c8:	0000040a 	.word	0x0000040a
 80047cc:	00000402 	.word	0x00000402
 80047d0:	00000424 	.word	0x00000424
 80047d4:	0000040c 	.word	0x0000040c
 80047d8:	00000414 	.word	0x00000414
 80047dc:	00000401 	.word	0x00000401

080047e0 <putc_bfd>:
static
void putc_bfd (
	putbuff* pb,
	TCHAR c
)
{
 80047e0:	b573      	push	{r0, r1, r4, r5, r6, lr}
 80047e2:	0004      	movs	r4, r0
 80047e4:	000e      	movs	r6, r1
	UINT bw;
	int i;


	if (_USE_STRFUNC == 2 && c == '\n')	 /* LF -> CRLF conversion */
 80047e6:	290a      	cmp	r1, #10
 80047e8:	d102      	bne.n	80047f0 <putc_bfd+0x10>
		putc_bfd(pb, '\r');
 80047ea:	210d      	movs	r1, #13
 80047ec:	f7ff fff8 	bl	80047e0 <putc_bfd>

	i = pb->idx;	/* Buffer write index (-1:error) */
 80047f0:	6863      	ldr	r3, [r4, #4]
	if (i < 0) return;
 80047f2:	2b00      	cmp	r3, #0
 80047f4:	db14      	blt.n	8004820 <putc_bfd+0x40>
	if (c >= 0x100)
		pb->buf[i++] = (BYTE)(c >> 8);
	pb->buf[i++] = (BYTE)c;
#endif
#else							/* Write a character without conversion */
	pb->buf[i++] = (BYTE)c;
 80047f6:	1c5d      	adds	r5, r3, #1
 80047f8:	18e3      	adds	r3, r4, r3
 80047fa:	731e      	strb	r6, [r3, #12]
#endif

	if (i >= (int)(sizeof pb->buf) - 3) {	/* Write buffered characters to the file */
 80047fc:	2d3c      	cmp	r5, #60	; 0x3c
 80047fe:	dd0b      	ble.n	8004818 <putc_bfd+0x38>
		f_write(pb->fp, pb->buf, (UINT)i, &bw);
 8004800:	0021      	movs	r1, r4
 8004802:	ab01      	add	r3, sp, #4
 8004804:	002a      	movs	r2, r5
 8004806:	310c      	adds	r1, #12
 8004808:	6820      	ldr	r0, [r4, #0]
 800480a:	f7ff febb 	bl	8004584 <f_write>
		i = (bw == (UINT)i) ? 0 : -1;
 800480e:	9b01      	ldr	r3, [sp, #4]
 8004810:	1b5d      	subs	r5, r3, r5
 8004812:	1e6b      	subs	r3, r5, #1
 8004814:	419d      	sbcs	r5, r3
 8004816:	426d      	negs	r5, r5
	}
	pb->idx = i;
	pb->nchr++;
 8004818:	68a3      	ldr	r3, [r4, #8]
	pb->idx = i;
 800481a:	6065      	str	r5, [r4, #4]
	pb->nchr++;
 800481c:	3301      	adds	r3, #1
 800481e:	60a3      	str	r3, [r4, #8]
}
 8004820:	bd73      	pop	{r0, r1, r4, r5, r6, pc}
	...

08004824 <f_sync>:
{
 8004824:	b5f8      	push	{r3, r4, r5, r6, r7, lr}
 8004826:	0004      	movs	r4, r0
	res = validate(fp);					/* Check validity of the object */
 8004828:	f7fe fabc 	bl	8002da4 <validate>
 800482c:	1e06      	subs	r6, r0, #0
	if (res == FR_OK) {
 800482e:	d155      	bne.n	80048dc <f_sync+0xb8>
		if (fp->flag & FA__WRITTEN) {	/* Has the file been written? */
 8004830:	4f2b      	ldr	r7, [pc, #172]	; (80048e0 <f_sync+0xbc>)
 8004832:	5de3      	ldrb	r3, [r4, r7]
 8004834:	069a      	lsls	r2, r3, #26
 8004836:	d551      	bpl.n	80048dc <f_sync+0xb8>
			if (fp->flag & FA__DIRTY) {
 8004838:	2540      	movs	r5, #64	; 0x40
 800483a:	422b      	tst	r3, r5
 800483c:	d011      	beq.n	8004862 <f_sync+0x3e>
				if (disk_write(fp->fs->drv, fp->buf.d8, fp->dsect, 1) != RES_OK)
 800483e:	2380      	movs	r3, #128	; 0x80
 8004840:	00db      	lsls	r3, r3, #3
 8004842:	58e2      	ldr	r2, [r4, r3]
 8004844:	4b27      	ldr	r3, [pc, #156]	; (80048e4 <f_sync+0xc0>)
 8004846:	0021      	movs	r1, r4
 8004848:	5cd0      	ldrb	r0, [r2, r3]
 800484a:	2283      	movs	r2, #131	; 0x83
 800484c:	00d2      	lsls	r2, r2, #3
 800484e:	2301      	movs	r3, #1
 8004850:	58a2      	ldr	r2, [r4, r2]
 8004852:	f7fe f993 	bl	8002b7c <disk_write>
					LEAVE_FF(fp->fs, FR_DISK_ERR);
 8004856:	3601      	adds	r6, #1
				if (disk_write(fp->fs->drv, fp->buf.d8, fp->dsect, 1) != RES_OK)
 8004858:	2800      	cmp	r0, #0
 800485a:	d13f      	bne.n	80048dc <f_sync+0xb8>
				fp->flag &= ~FA__DIRTY;
 800485c:	5de3      	ldrb	r3, [r4, r7]
 800485e:	43ab      	bics	r3, r5
 8004860:	55e3      	strb	r3, [r4, r7]
			res = move_window(fp->fs, fp->dir_sect);
 8004862:	4b21      	ldr	r3, [pc, #132]	; (80048e8 <f_sync+0xc4>)
 8004864:	58e1      	ldr	r1, [r4, r3]
 8004866:	3b1c      	subs	r3, #28
 8004868:	58e0      	ldr	r0, [r4, r3]
 800486a:	f7fe fbf7 	bl	800305c <move_window>
 800486e:	1e06      	subs	r6, r0, #0
			if (res == FR_OK) {
 8004870:	d134      	bne.n	80048dc <f_sync+0xb8>
				dir = fp->dir_ptr;
 8004872:	2384      	movs	r3, #132	; 0x84
				dir[DIR_Attr] |= AM_ARC;					/* Set archive bit */
 8004874:	2220      	movs	r2, #32
				dir = fp->dir_ptr;
 8004876:	00db      	lsls	r3, r3, #3
 8004878:	58e5      	ldr	r5, [r4, r3]
				dir[DIR_Attr] |= AM_ARC;					/* Set archive bit */
 800487a:	7aeb      	ldrb	r3, [r5, #11]
 800487c:	4313      	orrs	r3, r2
 800487e:	72eb      	strb	r3, [r5, #11]
				ST_DWORD(dir + DIR_FileSize, fp->fsize);	/* Update file size */
 8004880:	4b1a      	ldr	r3, [pc, #104]	; (80048ec <f_sync+0xc8>)
 8004882:	5ce2      	ldrb	r2, [r4, r3]
 8004884:	772a      	strb	r2, [r5, #28]
 8004886:	58e2      	ldr	r2, [r4, r3]
 8004888:	0a12      	lsrs	r2, r2, #8
 800488a:	776a      	strb	r2, [r5, #29]
 800488c:	58e2      	ldr	r2, [r4, r3]
 800488e:	0c12      	lsrs	r2, r2, #16
 8004890:	77aa      	strb	r2, [r5, #30]
 8004892:	58e3      	ldr	r3, [r4, r3]
 8004894:	0e1b      	lsrs	r3, r3, #24
 8004896:	77eb      	strb	r3, [r5, #31]
				st_clust(dir, fp->sclust);					/* Update start cluster */
 8004898:	2382      	movs	r3, #130	; 0x82
 800489a:	00db      	lsls	r3, r3, #3
 800489c:	58e3      	ldr	r3, [r4, r3]
	ST_WORD(dir + DIR_FstClusLO, cl);
 800489e:	0a1a      	lsrs	r2, r3, #8
 80048a0:	76ab      	strb	r3, [r5, #26]
	ST_WORD(dir + DIR_FstClusHI, cl >> 16);
 80048a2:	0c1b      	lsrs	r3, r3, #16
 80048a4:	752b      	strb	r3, [r5, #20]
 80048a6:	0a1b      	lsrs	r3, r3, #8
	ST_WORD(dir + DIR_FstClusLO, cl);
 80048a8:	76ea      	strb	r2, [r5, #27]
	ST_WORD(dir + DIR_FstClusHI, cl >> 16);
 80048aa:	756b      	strb	r3, [r5, #21]
				tm = GET_FATTIME();							/* Update updated time */
 80048ac:	f000 fb36 	bl	8004f1c <get_fattime>
				fp->flag &= ~FA__WRITTEN;
 80048b0:	2220      	movs	r2, #32
				ST_DWORD(dir + DIR_WrtTime, tm);
 80048b2:	0a03      	lsrs	r3, r0, #8
 80048b4:	75a8      	strb	r0, [r5, #22]
 80048b6:	75eb      	strb	r3, [r5, #23]
 80048b8:	0c03      	lsrs	r3, r0, #16
 80048ba:	0e00      	lsrs	r0, r0, #24
				ST_WORD(dir + DIR_LstAccDate, 0);
 80048bc:	74ae      	strb	r6, [r5, #18]
 80048be:	74ee      	strb	r6, [r5, #19]
				ST_DWORD(dir + DIR_WrtTime, tm);
 80048c0:	762b      	strb	r3, [r5, #24]
 80048c2:	7668      	strb	r0, [r5, #25]
				fp->flag &= ~FA__WRITTEN;
 80048c4:	5de3      	ldrb	r3, [r4, r7]
 80048c6:	4393      	bics	r3, r2
 80048c8:	55e3      	strb	r3, [r4, r7]
				fp->fs->wflag = 1;
 80048ca:	2380      	movs	r3, #128	; 0x80
 80048cc:	00db      	lsls	r3, r3, #3
 80048ce:	58e0      	ldr	r0, [r4, r3]
 80048d0:	4b07      	ldr	r3, [pc, #28]	; (80048f0 <f_sync+0xcc>)
 80048d2:	3a1f      	subs	r2, #31
 80048d4:	54c2      	strb	r2, [r0, r3]
				res = sync_fs(fp->fs);
 80048d6:	f7fe fb4d 	bl	8002f74 <sync_fs>
 80048da:	0006      	movs	r6, r0
}
 80048dc:	0030      	movs	r0, r6
 80048de:	bdf8      	pop	{r3, r4, r5, r6, r7, pc}
 80048e0:	00000406 	.word	0x00000406
 80048e4:	00000401 	.word	0x00000401
 80048e8:	0000041c 	.word	0x0000041c
 80048ec:	0000040c 	.word	0x0000040c
 80048f0:	00000404 	.word	0x00000404

080048f4 <f_close>:
{
 80048f4:	b510      	push	{r4, lr}
 80048f6:	0004      	movs	r4, r0
	res = f_sync(fp);					/* Flush cached data */
 80048f8:	f7ff ff94 	bl	8004824 <f_sync>
	if (res == FR_OK)
 80048fc:	2800      	cmp	r0, #0
 80048fe:	d10e      	bne.n	800491e <f_close+0x2a>
		res = validate(fp);				/* Lock volume */
 8004900:	0020      	movs	r0, r4
 8004902:	f7fe fa4f 	bl	8002da4 <validate>
		if (res == FR_OK) {
 8004906:	2800      	cmp	r0, #0
 8004908:	d109      	bne.n	800491e <f_close+0x2a>
			res = dec_lock(fp->lockid);	/* Decrement file open counter */
 800490a:	2385      	movs	r3, #133	; 0x85
 800490c:	00db      	lsls	r3, r3, #3
 800490e:	58e0      	ldr	r0, [r4, r3]
 8004910:	f7fe f9e6 	bl	8002ce0 <dec_lock>
			if (res == FR_OK)
 8004914:	2800      	cmp	r0, #0
 8004916:	d102      	bne.n	800491e <f_close+0x2a>
				fp->fs = 0;				/* Invalidate file object */
 8004918:	2380      	movs	r3, #128	; 0x80
 800491a:	00db      	lsls	r3, r3, #3
 800491c:	50e0      	str	r0, [r4, r3]
}
 800491e:	bd10      	pop	{r4, pc}

08004920 <f_lseek>:
{
 8004920:	b5f0      	push	{r4, r5, r6, r7, lr}
 8004922:	b089      	sub	sp, #36	; 0x24
 8004924:	0006      	movs	r6, r0
 8004926:	000f      	movs	r7, r1
	res = validate(fp);					/* Check validity of the object */
 8004928:	f7fe fa3c 	bl	8002da4 <validate>
 800492c:	9002      	str	r0, [sp, #8]
	if (res != FR_OK) LEAVE_FF(fp->fs, res);
 800492e:	2800      	cmp	r0, #0
 8004930:	d14d      	bne.n	80049ce <f_lseek+0xae>
	if (fp->err)						/* Check error */
 8004932:	4ac0      	ldr	r2, [pc, #768]	; (8004c34 <f_lseek+0x314>)
 8004934:	5cb3      	ldrb	r3, [r6, r2]
 8004936:	9205      	str	r2, [sp, #20]
 8004938:	2b00      	cmp	r3, #0
 800493a:	d121      	bne.n	8004980 <f_lseek+0x60>
	if (fp->cltbl) {	/* Fast seek */
 800493c:	4abe      	ldr	r2, [pc, #760]	; (8004c38 <f_lseek+0x318>)
 800493e:	58b3      	ldr	r3, [r6, r2]
 8004940:	9206      	str	r2, [sp, #24]
 8004942:	2b00      	cmp	r3, #0
 8004944:	d100      	bne.n	8004948 <f_lseek+0x28>
 8004946:	e09a      	b.n	8004a7e <f_lseek+0x15e>
		if (ofs == CREATE_LINKMAP) {	/* Create CLMT */
 8004948:	1c7a      	adds	r2, r7, #1
 800494a:	d143      	bne.n	80049d4 <f_lseek+0xb4>
			tlen = *tbl++; ulen = 2;	/* Given table size and required table size */
 800494c:	1d1d      	adds	r5, r3, #4
 800494e:	681b      	ldr	r3, [r3, #0]
 8004950:	2402      	movs	r4, #2
 8004952:	9304      	str	r3, [sp, #16]
			cl = fp->sclust;			/* Top of the chain */
 8004954:	2382      	movs	r3, #130	; 0x82
 8004956:	00db      	lsls	r3, r3, #3
 8004958:	58f7      	ldr	r7, [r6, r3]
			if (cl) {
 800495a:	2f00      	cmp	r7, #0
 800495c:	d02e      	beq.n	80049bc <f_lseek+0x9c>
					tcl = cl; ncl = 0; ulen += 2;	/* Top, length and used items */
 800495e:	2300      	movs	r3, #0
 8004960:	9701      	str	r7, [sp, #4]
 8004962:	9303      	str	r3, [sp, #12]
						pcl = cl; ncl++;
 8004964:	9b03      	ldr	r3, [sp, #12]
						cl = get_fat(fp->fs, cl);
 8004966:	9901      	ldr	r1, [sp, #4]
						pcl = cl; ncl++;
 8004968:	3301      	adds	r3, #1
 800496a:	9303      	str	r3, [sp, #12]
						cl = get_fat(fp->fs, cl);
 800496c:	2380      	movs	r3, #128	; 0x80
 800496e:	00db      	lsls	r3, r3, #3
 8004970:	58f0      	ldr	r0, [r6, r3]
 8004972:	f7fe fd79 	bl	8003468 <get_fat>
						if (cl <= 1) ABORT(fp->fs, FR_INT_ERR);
 8004976:	2801      	cmp	r0, #1
 8004978:	d806      	bhi.n	8004988 <f_lseek+0x68>
 800497a:	2302      	movs	r3, #2
						if (cl == 0xFFFFFFFF) ABORT(fp->fs, FR_DISK_ERR);
 800497c:	9a05      	ldr	r2, [sp, #20]
 800497e:	54b3      	strb	r3, [r6, r2]
				res = FR_NOT_ENOUGH_CORE;	/* Given table size is smaller than required */
 8004980:	9302      	str	r3, [sp, #8]
 8004982:	e024      	b.n	80049ce <f_lseek+0xae>
 8004984:	0007      	movs	r7, r0
 8004986:	e7ea      	b.n	800495e <f_lseek+0x3e>
						if (cl == 0xFFFFFFFF) ABORT(fp->fs, FR_DISK_ERR);
 8004988:	1c43      	adds	r3, r0, #1
 800498a:	d101      	bne.n	8004990 <f_lseek+0x70>
 800498c:	2301      	movs	r3, #1
 800498e:	e7f5      	b.n	800497c <f_lseek+0x5c>
					} while (cl == pcl + 1);
 8004990:	9b01      	ldr	r3, [sp, #4]
 8004992:	9001      	str	r0, [sp, #4]
 8004994:	3301      	adds	r3, #1
 8004996:	4298      	cmp	r0, r3
 8004998:	d0e4      	beq.n	8004964 <f_lseek+0x44>
					if (ulen <= tlen) {		/* Store the length and top of the fragment */
 800499a:	9b04      	ldr	r3, [sp, #16]
					tcl = cl; ncl = 0; ulen += 2;	/* Top, length and used items */
 800499c:	3402      	adds	r4, #2
					if (ulen <= tlen) {		/* Store the length and top of the fragment */
 800499e:	42a3      	cmp	r3, r4
 80049a0:	d303      	bcc.n	80049aa <f_lseek+0x8a>
						*tbl++ = ncl; *tbl++ = tcl;
 80049a2:	9b03      	ldr	r3, [sp, #12]
 80049a4:	606f      	str	r7, [r5, #4]
 80049a6:	602b      	str	r3, [r5, #0]
 80049a8:	3508      	adds	r5, #8
				} while (cl < fp->fs->n_fatent);	/* Repeat until end of chain */
 80049aa:	2380      	movs	r3, #128	; 0x80
 80049ac:	00db      	lsls	r3, r3, #3
 80049ae:	58f3      	ldr	r3, [r6, r3]
 80049b0:	9301      	str	r3, [sp, #4]
 80049b2:	9a01      	ldr	r2, [sp, #4]
 80049b4:	4ba1      	ldr	r3, [pc, #644]	; (8004c3c <f_lseek+0x31c>)
 80049b6:	58d3      	ldr	r3, [r2, r3]
 80049b8:	4298      	cmp	r0, r3
 80049ba:	d3e3      	bcc.n	8004984 <f_lseek+0x64>
			*fp->cltbl = ulen;	/* Number of items used */
 80049bc:	9b06      	ldr	r3, [sp, #24]
 80049be:	58f3      	ldr	r3, [r6, r3]
 80049c0:	601c      	str	r4, [r3, #0]
			if (ulen <= tlen)
 80049c2:	9b04      	ldr	r3, [sp, #16]
 80049c4:	429c      	cmp	r4, r3
 80049c6:	d900      	bls.n	80049ca <f_lseek+0xaa>
 80049c8:	e131      	b.n	8004c2e <f_lseek+0x30e>
				*tbl = 0;		/* Terminate table */
 80049ca:	2300      	movs	r3, #0
 80049cc:	602b      	str	r3, [r5, #0]
}
 80049ce:	9802      	ldr	r0, [sp, #8]
 80049d0:	b009      	add	sp, #36	; 0x24
 80049d2:	bdf0      	pop	{r4, r5, r6, r7, pc}
			if (ofs > fp->fsize)		/* Clip offset at the file size */
 80049d4:	4b9a      	ldr	r3, [pc, #616]	; (8004c40 <f_lseek+0x320>)
 80049d6:	58f4      	ldr	r4, [r6, r3]
 80049d8:	42bc      	cmp	r4, r7
 80049da:	d900      	bls.n	80049de <f_lseek+0xbe>
 80049dc:	003c      	movs	r4, r7
			fp->fptr = ofs;				/* Set file pointer */
 80049de:	2381      	movs	r3, #129	; 0x81
 80049e0:	00db      	lsls	r3, r3, #3
 80049e2:	50f4      	str	r4, [r6, r3]
			if (ofs) {
 80049e4:	2c00      	cmp	r4, #0
 80049e6:	d0f2      	beq.n	80049ce <f_lseek+0xae>
				fp->clust = clmt_clust(fp, ofs - 1);
 80049e8:	1e63      	subs	r3, r4, #1
 80049ea:	0019      	movs	r1, r3
 80049ec:	0030      	movs	r0, r6
 80049ee:	9303      	str	r3, [sp, #12]
 80049f0:	f7fe f992 	bl	8002d18 <clmt_clust>
 80049f4:	4b91      	ldr	r3, [pc, #580]	; (8004c3c <f_lseek+0x31c>)
 80049f6:	0001      	movs	r1, r0
 80049f8:	50f0      	str	r0, [r6, r3]
				dsc = clust2sect(fp->fs, fp->clust);
 80049fa:	3b14      	subs	r3, #20
 80049fc:	58f3      	ldr	r3, [r6, r3]
 80049fe:	0018      	movs	r0, r3
 8004a00:	9301      	str	r3, [sp, #4]
 8004a02:	f7fe fd1d 	bl	8003440 <clust2sect>
 8004a06:	1e05      	subs	r5, r0, #0
				if (!dsc) ABORT(fp->fs, FR_INT_ERR);
 8004a08:	d0b7      	beq.n	800497a <f_lseek+0x5a>
				dsc += (ofs - 1) / SS(fp->fs) & (fp->fs->csize - 1);
 8004a0a:	4b8e      	ldr	r3, [pc, #568]	; (8004c44 <f_lseek+0x324>)
 8004a0c:	9a01      	ldr	r2, [sp, #4]
				if (fp->fptr % SS(fp->fs) && dsc != fp->dsect) {	/* Refill sector cache if needed */
 8004a0e:	0020      	movs	r0, r4
				dsc += (ofs - 1) / SS(fp->fs) & (fp->fs->csize - 1);
 8004a10:	5ad7      	ldrh	r7, [r2, r3]
				if (fp->fptr % SS(fp->fs) && dsc != fp->dsect) {	/* Refill sector cache if needed */
 8004a12:	0039      	movs	r1, r7
 8004a14:	f7fb fc1a 	bl	800024c <__aeabi_uidivmod>
 8004a18:	2900      	cmp	r1, #0
 8004a1a:	d0d8      	beq.n	80049ce <f_lseek+0xae>
				dsc += (ofs - 1) / SS(fp->fs) & (fp->fs->csize - 1);
 8004a1c:	4b8a      	ldr	r3, [pc, #552]	; (8004c48 <f_lseek+0x328>)
 8004a1e:	9a01      	ldr	r2, [sp, #4]
 8004a20:	0039      	movs	r1, r7
 8004a22:	9803      	ldr	r0, [sp, #12]
 8004a24:	5cd4      	ldrb	r4, [r2, r3]
 8004a26:	f7fb fb8b 	bl	8000140 <__udivsi3>
				if (fp->fptr % SS(fp->fs) && dsc != fp->dsect) {	/* Refill sector cache if needed */
 8004a2a:	2383      	movs	r3, #131	; 0x83
				dsc += (ofs - 1) / SS(fp->fs) & (fp->fs->csize - 1);
 8004a2c:	3c01      	subs	r4, #1
				if (fp->fptr % SS(fp->fs) && dsc != fp->dsect) {	/* Refill sector cache if needed */
 8004a2e:	00db      	lsls	r3, r3, #3
				dsc += (ofs - 1) / SS(fp->fs) & (fp->fs->csize - 1);
 8004a30:	4004      	ands	r4, r0
				if (fp->fptr % SS(fp->fs) && dsc != fp->dsect) {	/* Refill sector cache if needed */
 8004a32:	58f2      	ldr	r2, [r6, r3]
				dsc += (ofs - 1) / SS(fp->fs) & (fp->fs->csize - 1);
 8004a34:	1965      	adds	r5, r4, r5
				if (fp->fptr % SS(fp->fs) && dsc != fp->dsect) {	/* Refill sector cache if needed */
 8004a36:	4295      	cmp	r5, r2
 8004a38:	d0c9      	beq.n	80049ce <f_lseek+0xae>
					if (fp->flag & FA__DIRTY) {		/* Write-back dirty sector cache */
 8004a3a:	2140      	movs	r1, #64	; 0x40
 8004a3c:	4c83      	ldr	r4, [pc, #524]	; (8004c4c <f_lseek+0x32c>)
 8004a3e:	4f84      	ldr	r7, [pc, #528]	; (8004c50 <f_lseek+0x330>)
 8004a40:	5d33      	ldrb	r3, [r6, r4]
 8004a42:	420b      	tst	r3, r1
 8004a44:	d00b      	beq.n	8004a5e <f_lseek+0x13e>
						if (disk_write(fp->fs->drv, fp->buf.d8, fp->dsect, 1) != RES_OK)
 8004a46:	9b01      	ldr	r3, [sp, #4]
 8004a48:	0031      	movs	r1, r6
 8004a4a:	5dd8      	ldrb	r0, [r3, r7]
 8004a4c:	2301      	movs	r3, #1
 8004a4e:	f7fe f895 	bl	8002b7c <disk_write>
 8004a52:	2800      	cmp	r0, #0
 8004a54:	d19a      	bne.n	800498c <f_lseek+0x6c>
						fp->flag &= ~FA__DIRTY;
 8004a56:	2240      	movs	r2, #64	; 0x40
 8004a58:	5d33      	ldrb	r3, [r6, r4]
 8004a5a:	4393      	bics	r3, r2
 8004a5c:	5533      	strb	r3, [r6, r4]
					if (disk_read(fp->fs->drv, fp->buf.d8, dsc, 1) != RES_OK)	/* Load current sector */
 8004a5e:	2380      	movs	r3, #128	; 0x80
 8004a60:	00db      	lsls	r3, r3, #3
 8004a62:	58f3      	ldr	r3, [r6, r3]
 8004a64:	002a      	movs	r2, r5
 8004a66:	5dd8      	ldrb	r0, [r3, r7]
 8004a68:	0031      	movs	r1, r6
 8004a6a:	2301      	movs	r3, #1
 8004a6c:	f7fe f878 	bl	8002b60 <disk_read>
 8004a70:	2800      	cmp	r0, #0
 8004a72:	d000      	beq.n	8004a76 <f_lseek+0x156>
 8004a74:	e78a      	b.n	800498c <f_lseek+0x6c>
					fp->dsect = dsc;
 8004a76:	2383      	movs	r3, #131	; 0x83
 8004a78:	00db      	lsls	r3, r3, #3
 8004a7a:	50f5      	str	r5, [r6, r3]
 8004a7c:	e7a7      	b.n	80049ce <f_lseek+0xae>
		if (ofs > fp->fsize					/* In read-only mode, clip offset with the file size */
 8004a7e:	4a70      	ldr	r2, [pc, #448]	; (8004c40 <f_lseek+0x320>)
 8004a80:	58b3      	ldr	r3, [r6, r2]
 8004a82:	9204      	str	r2, [sp, #16]
 8004a84:	429f      	cmp	r7, r3
 8004a86:	d904      	bls.n	8004a92 <f_lseek+0x172>
			 && !(fp->flag & FA_WRITE)
 8004a88:	4a70      	ldr	r2, [pc, #448]	; (8004c4c <f_lseek+0x32c>)
 8004a8a:	5cb2      	ldrb	r2, [r6, r2]
 8004a8c:	0792      	lsls	r2, r2, #30
 8004a8e:	d400      	bmi.n	8004a92 <f_lseek+0x172>
 8004a90:	001f      	movs	r7, r3
		ifptr = fp->fptr;
 8004a92:	2481      	movs	r4, #129	; 0x81
		fp->fptr = nsect = 0;
 8004a94:	2300      	movs	r3, #0
		ifptr = fp->fptr;
 8004a96:	00e4      	lsls	r4, r4, #3
 8004a98:	5935      	ldr	r5, [r6, r4]
		fp->fptr = nsect = 0;
 8004a9a:	5133      	str	r3, [r6, r4]
		if (ofs) {
 8004a9c:	429f      	cmp	r7, r3
 8004a9e:	d146      	bne.n	8004b2e <f_lseek+0x20e>
		if (fp->fptr > fp->fsize) {			/* Set file change flag if the file size is extended */
 8004aa0:	2381      	movs	r3, #129	; 0x81
 8004aa2:	9a04      	ldr	r2, [sp, #16]
 8004aa4:	00db      	lsls	r3, r3, #3
 8004aa6:	58b2      	ldr	r2, [r6, r2]
 8004aa8:	58f3      	ldr	r3, [r6, r3]
 8004aaa:	9201      	str	r2, [sp, #4]
 8004aac:	4293      	cmp	r3, r2
 8004aae:	d800      	bhi.n	8004ab2 <f_lseek+0x192>
 8004ab0:	e78d      	b.n	80049ce <f_lseek+0xae>
			fp->fsize = fp->fptr;
 8004ab2:	9a04      	ldr	r2, [sp, #16]
 8004ab4:	50b3      	str	r3, [r6, r2]
			fp->flag |= FA__WRITTEN;
 8004ab6:	2320      	movs	r3, #32
 8004ab8:	4a64      	ldr	r2, [pc, #400]	; (8004c4c <f_lseek+0x32c>)
 8004aba:	5cb1      	ldrb	r1, [r6, r2]
 8004abc:	430b      	orrs	r3, r1
 8004abe:	54b3      	strb	r3, [r6, r2]
 8004ac0:	e785      	b.n	80049ce <f_lseek+0xae>
		fp->fptr = nsect = 0;
 8004ac2:	2400      	movs	r4, #0
		if (fp->fptr % SS(fp->fs) && nsect != fp->dsect) {	/* Fill sector cache if needed */
 8004ac4:	2380      	movs	r3, #128	; 0x80
 8004ac6:	00db      	lsls	r3, r3, #3
 8004ac8:	58f3      	ldr	r3, [r6, r3]
 8004aca:	9a06      	ldr	r2, [sp, #24]
 8004acc:	9301      	str	r3, [sp, #4]
 8004ace:	5a99      	ldrh	r1, [r3, r2]
 8004ad0:	2381      	movs	r3, #129	; 0x81
 8004ad2:	00db      	lsls	r3, r3, #3
 8004ad4:	58f0      	ldr	r0, [r6, r3]
 8004ad6:	f7fb fbb9 	bl	800024c <__aeabi_uidivmod>
 8004ada:	2900      	cmp	r1, #0
 8004adc:	d0e0      	beq.n	8004aa0 <f_lseek+0x180>
 8004ade:	2383      	movs	r3, #131	; 0x83
 8004ae0:	00db      	lsls	r3, r3, #3
 8004ae2:	58f2      	ldr	r2, [r6, r3]
 8004ae4:	4294      	cmp	r4, r2
 8004ae6:	d0db      	beq.n	8004aa0 <f_lseek+0x180>
			if (fp->flag & FA__DIRTY) {			/* Write-back dirty sector cache */
 8004ae8:	2140      	movs	r1, #64	; 0x40
 8004aea:	4d58      	ldr	r5, [pc, #352]	; (8004c4c <f_lseek+0x32c>)
 8004aec:	4f58      	ldr	r7, [pc, #352]	; (8004c50 <f_lseek+0x330>)
 8004aee:	5d73      	ldrb	r3, [r6, r5]
 8004af0:	420b      	tst	r3, r1
 8004af2:	d00c      	beq.n	8004b0e <f_lseek+0x1ee>
				if (disk_write(fp->fs->drv, fp->buf.d8, fp->dsect, 1) != RES_OK)
 8004af4:	9b01      	ldr	r3, [sp, #4]
 8004af6:	0031      	movs	r1, r6
 8004af8:	5dd8      	ldrb	r0, [r3, r7]
 8004afa:	2301      	movs	r3, #1
 8004afc:	f7fe f83e 	bl	8002b7c <disk_write>
 8004b00:	2800      	cmp	r0, #0
 8004b02:	d000      	beq.n	8004b06 <f_lseek+0x1e6>
 8004b04:	e742      	b.n	800498c <f_lseek+0x6c>
				fp->flag &= ~FA__DIRTY;
 8004b06:	2240      	movs	r2, #64	; 0x40
 8004b08:	5d73      	ldrb	r3, [r6, r5]
 8004b0a:	4393      	bics	r3, r2
 8004b0c:	5573      	strb	r3, [r6, r5]
			if (disk_read(fp->fs->drv, fp->buf.d8, nsect, 1) != RES_OK)	/* Fill sector cache */
 8004b0e:	2380      	movs	r3, #128	; 0x80
 8004b10:	00db      	lsls	r3, r3, #3
 8004b12:	58f3      	ldr	r3, [r6, r3]
 8004b14:	0022      	movs	r2, r4
 8004b16:	5dd8      	ldrb	r0, [r3, r7]
 8004b18:	0031      	movs	r1, r6
 8004b1a:	2301      	movs	r3, #1
 8004b1c:	f7fe f820 	bl	8002b60 <disk_read>
 8004b20:	2800      	cmp	r0, #0
 8004b22:	d000      	beq.n	8004b26 <f_lseek+0x206>
 8004b24:	e732      	b.n	800498c <f_lseek+0x6c>
			fp->dsect = nsect;
 8004b26:	2383      	movs	r3, #131	; 0x83
 8004b28:	00db      	lsls	r3, r3, #3
 8004b2a:	50f4      	str	r4, [r6, r3]
 8004b2c:	e7b8      	b.n	8004aa0 <f_lseek+0x180>
			bcs = (DWORD)fp->fs->csize * SS(fp->fs);	/* Cluster size (byte) */
 8004b2e:	2380      	movs	r3, #128	; 0x80
 8004b30:	00db      	lsls	r3, r3, #3
 8004b32:	58f3      	ldr	r3, [r6, r3]
 8004b34:	9303      	str	r3, [sp, #12]
 8004b36:	9a03      	ldr	r2, [sp, #12]
 8004b38:	4b43      	ldr	r3, [pc, #268]	; (8004c48 <f_lseek+0x328>)
 8004b3a:	9903      	ldr	r1, [sp, #12]
 8004b3c:	5cd2      	ldrb	r2, [r2, r3]
 8004b3e:	4b41      	ldr	r3, [pc, #260]	; (8004c44 <f_lseek+0x324>)
 8004b40:	5ac9      	ldrh	r1, [r1, r3]
 8004b42:	9306      	str	r3, [sp, #24]
 8004b44:	4351      	muls	r1, r2
 8004b46:	9101      	str	r1, [sp, #4]
			if (ifptr > 0 &&
 8004b48:	2d00      	cmp	r5, #0
 8004b4a:	d037      	beq.n	8004bbc <f_lseek+0x29c>
				(ofs - 1) / bcs >= (ifptr - 1) / bcs) {	/* When seek to same or following cluster, */
 8004b4c:	1e78      	subs	r0, r7, #1
 8004b4e:	f7fb faf7 	bl	8000140 <__udivsi3>
 8004b52:	3d01      	subs	r5, #1
 8004b54:	9007      	str	r0, [sp, #28]
 8004b56:	9901      	ldr	r1, [sp, #4]
 8004b58:	0028      	movs	r0, r5
 8004b5a:	f7fb faf1 	bl	8000140 <__udivsi3>
			if (ifptr > 0 &&
 8004b5e:	9b07      	ldr	r3, [sp, #28]
 8004b60:	4283      	cmp	r3, r0
 8004b62:	d32b      	bcc.n	8004bbc <f_lseek+0x29c>
				fp->fptr = (ifptr - 1) & ~(bcs - 1);	/* start from the current cluster */
 8004b64:	9b01      	ldr	r3, [sp, #4]
 8004b66:	425b      	negs	r3, r3
 8004b68:	401d      	ands	r5, r3
				clst = fp->clust;
 8004b6a:	4b34      	ldr	r3, [pc, #208]	; (8004c3c <f_lseek+0x31c>)
				fp->fptr = (ifptr - 1) & ~(bcs - 1);	/* start from the current cluster */
 8004b6c:	5135      	str	r5, [r6, r4]
				clst = fp->clust;
 8004b6e:	58f4      	ldr	r4, [r6, r3]
				ofs -= fp->fptr;
 8004b70:	1b7f      	subs	r7, r7, r5
			if (clst != 0) {
 8004b72:	2c00      	cmp	r4, #0
 8004b74:	d0a5      	beq.n	8004ac2 <f_lseek+0x1a2>
 8004b76:	2580      	movs	r5, #128	; 0x80
 8004b78:	00ed      	lsls	r5, r5, #3
				while (ofs > bcs) {						/* Cluster following loop */
 8004b7a:	9b01      	ldr	r3, [sp, #4]
 8004b7c:	429f      	cmp	r7, r3
 8004b7e:	d831      	bhi.n	8004be4 <f_lseek+0x2c4>
				fp->fptr += ofs;
 8004b80:	2281      	movs	r2, #129	; 0x81
 8004b82:	00d2      	lsls	r2, r2, #3
 8004b84:	58b3      	ldr	r3, [r6, r2]
				if (ofs % SS(fp->fs)) {
 8004b86:	0038      	movs	r0, r7
				fp->fptr += ofs;
 8004b88:	19db      	adds	r3, r3, r7
 8004b8a:	50b3      	str	r3, [r6, r2]
				if (ofs % SS(fp->fs)) {
 8004b8c:	2380      	movs	r3, #128	; 0x80
 8004b8e:	00db      	lsls	r3, r3, #3
 8004b90:	58f3      	ldr	r3, [r6, r3]
 8004b92:	9a06      	ldr	r2, [sp, #24]
 8004b94:	9301      	str	r3, [sp, #4]
 8004b96:	5a9d      	ldrh	r5, [r3, r2]
 8004b98:	0029      	movs	r1, r5
 8004b9a:	f7fb fb57 	bl	800024c <__aeabi_uidivmod>
 8004b9e:	2900      	cmp	r1, #0
 8004ba0:	d08f      	beq.n	8004ac2 <f_lseek+0x1a2>
					nsect = clust2sect(fp->fs, clst);	/* Current sector */
 8004ba2:	0021      	movs	r1, r4
 8004ba4:	9801      	ldr	r0, [sp, #4]
 8004ba6:	f7fe fc4b 	bl	8003440 <clust2sect>
 8004baa:	1e04      	subs	r4, r0, #0
					if (!nsect) ABORT(fp->fs, FR_INT_ERR);
 8004bac:	d100      	bne.n	8004bb0 <f_lseek+0x290>
 8004bae:	e6e4      	b.n	800497a <f_lseek+0x5a>
					nsect += ofs / SS(fp->fs);
 8004bb0:	0029      	movs	r1, r5
 8004bb2:	0038      	movs	r0, r7
 8004bb4:	f7fb fac4 	bl	8000140 <__udivsi3>
 8004bb8:	1904      	adds	r4, r0, r4
 8004bba:	e783      	b.n	8004ac4 <f_lseek+0x1a4>
				clst = fp->sclust;						/* start from the first cluster */
 8004bbc:	2582      	movs	r5, #130	; 0x82
 8004bbe:	00ed      	lsls	r5, r5, #3
 8004bc0:	5974      	ldr	r4, [r6, r5]
				if (clst == 0) {						/* If no cluster chain, create a new chain */
 8004bc2:	2c00      	cmp	r4, #0
 8004bc4:	d10b      	bne.n	8004bde <f_lseek+0x2be>
					clst = create_chain(fp->fs, 0);
 8004bc6:	0021      	movs	r1, r4
 8004bc8:	9803      	ldr	r0, [sp, #12]
 8004bca:	f7fe fdf9 	bl	80037c0 <create_chain>
 8004bce:	0004      	movs	r4, r0
					if (clst == 1) ABORT(fp->fs, FR_INT_ERR);
 8004bd0:	2801      	cmp	r0, #1
 8004bd2:	d100      	bne.n	8004bd6 <f_lseek+0x2b6>
 8004bd4:	e6d1      	b.n	800497a <f_lseek+0x5a>
					if (clst == 0xFFFFFFFF) ABORT(fp->fs, FR_DISK_ERR);
 8004bd6:	1c43      	adds	r3, r0, #1
 8004bd8:	d100      	bne.n	8004bdc <f_lseek+0x2bc>
 8004bda:	e6d7      	b.n	800498c <f_lseek+0x6c>
					fp->sclust = clst;
 8004bdc:	5170      	str	r0, [r6, r5]
				fp->clust = clst;
 8004bde:	4b17      	ldr	r3, [pc, #92]	; (8004c3c <f_lseek+0x31c>)
 8004be0:	50f4      	str	r4, [r6, r3]
 8004be2:	e7c6      	b.n	8004b72 <f_lseek+0x252>
					if (fp->flag & FA_WRITE) {			/* Check if in write mode or not */
 8004be4:	2202      	movs	r2, #2
 8004be6:	4b19      	ldr	r3, [pc, #100]	; (8004c4c <f_lseek+0x32c>)
						clst = create_chain(fp->fs, clst);	/* Force stretch if in write mode */
 8004be8:	0021      	movs	r1, r4
					if (fp->flag & FA_WRITE) {			/* Check if in write mode or not */
 8004bea:	5cf3      	ldrb	r3, [r6, r3]
						clst = create_chain(fp->fs, clst);	/* Force stretch if in write mode */
 8004bec:	5970      	ldr	r0, [r6, r5]
					if (fp->flag & FA_WRITE) {			/* Check if in write mode or not */
 8004bee:	4213      	tst	r3, r2
 8004bf0:	d005      	beq.n	8004bfe <f_lseek+0x2de>
						clst = create_chain(fp->fs, clst);	/* Force stretch if in write mode */
 8004bf2:	f7fe fde5 	bl	80037c0 <create_chain>
 8004bf6:	1e04      	subs	r4, r0, #0
						if (clst == 0) {				/* When disk gets full, clip file size */
 8004bf8:	d104      	bne.n	8004c04 <f_lseek+0x2e4>
 8004bfa:	9f01      	ldr	r7, [sp, #4]
 8004bfc:	e7c0      	b.n	8004b80 <f_lseek+0x260>
						clst = get_fat(fp->fs, clst);	/* Follow cluster chain if not in write mode */
 8004bfe:	f7fe fc33 	bl	8003468 <get_fat>
 8004c02:	0004      	movs	r4, r0
					if (clst == 0xFFFFFFFF) ABORT(fp->fs, FR_DISK_ERR);
 8004c04:	1c63      	adds	r3, r4, #1
 8004c06:	d100      	bne.n	8004c0a <f_lseek+0x2ea>
 8004c08:	e6c0      	b.n	800498c <f_lseek+0x6c>
					if (clst <= 1 || clst >= fp->fs->n_fatent) ABORT(fp->fs, FR_INT_ERR);
 8004c0a:	2c01      	cmp	r4, #1
 8004c0c:	d800      	bhi.n	8004c10 <f_lseek+0x2f0>
 8004c0e:	e6b4      	b.n	800497a <f_lseek+0x5a>
 8004c10:	4b0a      	ldr	r3, [pc, #40]	; (8004c3c <f_lseek+0x31c>)
 8004c12:	5972      	ldr	r2, [r6, r5]
 8004c14:	58d2      	ldr	r2, [r2, r3]
 8004c16:	4294      	cmp	r4, r2
 8004c18:	d300      	bcc.n	8004c1c <f_lseek+0x2fc>
 8004c1a:	e6ae      	b.n	800497a <f_lseek+0x5a>
					fp->fptr += bcs;
 8004c1c:	2281      	movs	r2, #129	; 0x81
 8004c1e:	00d2      	lsls	r2, r2, #3
					fp->clust = clst;
 8004c20:	50f4      	str	r4, [r6, r3]
					fp->fptr += bcs;
 8004c22:	9901      	ldr	r1, [sp, #4]
 8004c24:	58b3      	ldr	r3, [r6, r2]
					ofs -= bcs;
 8004c26:	1a7f      	subs	r7, r7, r1
					fp->fptr += bcs;
 8004c28:	185b      	adds	r3, r3, r1
 8004c2a:	50b3      	str	r3, [r6, r2]
 8004c2c:	e7a5      	b.n	8004b7a <f_lseek+0x25a>
				res = FR_NOT_ENOUGH_CORE;	/* Given table size is smaller than required */
 8004c2e:	2311      	movs	r3, #17
 8004c30:	e6a6      	b.n	8004980 <f_lseek+0x60>
 8004c32:	46c0      	nop			; (mov r8, r8)
 8004c34:	00000407 	.word	0x00000407
 8004c38:	00000424 	.word	0x00000424
 8004c3c:	00000414 	.word	0x00000414
 8004c40:	0000040c 	.word	0x0000040c
 8004c44:	0000040a 	.word	0x0000040a
 8004c48:	00000402 	.word	0x00000402
 8004c4c:	00000406 	.word	0x00000406
 8004c50:	00000401 	.word	0x00000401

08004c54 <f_stat>:
{
 8004c54:	b570      	push	{r4, r5, r6, lr}
 8004c56:	4c15      	ldr	r4, [pc, #84]	; (8004cac <f_stat+0x58>)
 8004c58:	000e      	movs	r6, r1
 8004c5a:	44a5      	add	sp, r4
 8004c5c:	9001      	str	r0, [sp, #4]
	res = find_volume(&dj.fs, &path, 0);
 8004c5e:	a8ff      	add	r0, sp, #1020	; 0x3fc
 8004c60:	2200      	movs	r2, #0
 8004c62:	a901      	add	r1, sp, #4
 8004c64:	301c      	adds	r0, #28
 8004c66:	f7fe fa57 	bl	8003118 <find_volume>
 8004c6a:	ad06      	add	r5, sp, #24
 8004c6c:	1e04      	subs	r4, r0, #0
	if (res == FR_OK) {
 8004c6e:	d116      	bne.n	8004c9e <f_stat+0x4a>
		INIT_BUF(dj);
 8004c70:	2383      	movs	r3, #131	; 0x83
 8004c72:	aa03      	add	r2, sp, #12
 8004c74:	00db      	lsls	r3, r3, #3
 8004c76:	50ea      	str	r2, [r5, r3]
 8004c78:	4a0d      	ldr	r2, [pc, #52]	; (8004cb0 <f_stat+0x5c>)
 8004c7a:	3308      	adds	r3, #8
		res = follow_path(&dj, path);	/* Follow the file path */
 8004c7c:	9901      	ldr	r1, [sp, #4]
 8004c7e:	0028      	movs	r0, r5
		INIT_BUF(dj);
 8004c80:	50ea      	str	r2, [r5, r3]
		res = follow_path(&dj, path);	/* Follow the file path */
 8004c82:	f7fe ff65 	bl	8003b50 <follow_path>
 8004c86:	1e04      	subs	r4, r0, #0
		if (res == FR_OK) {				/* Follow completed */
 8004c88:	d109      	bne.n	8004c9e <f_stat+0x4a>
			if (dj.dir) {		/* Found an object */
 8004c8a:	4b0a      	ldr	r3, [pc, #40]	; (8004cb4 <f_stat+0x60>)
 8004c8c:	58eb      	ldr	r3, [r5, r3]
 8004c8e:	2b00      	cmp	r3, #0
 8004c90:	d00a      	beq.n	8004ca8 <f_stat+0x54>
				if (fno) get_fileinfo(&dj, fno);
 8004c92:	2e00      	cmp	r6, #0
 8004c94:	d003      	beq.n	8004c9e <f_stat+0x4a>
 8004c96:	0031      	movs	r1, r6
 8004c98:	0028      	movs	r0, r5
 8004c9a:	f7fe f8a5 	bl	8002de8 <get_fileinfo>
}
 8004c9e:	0020      	movs	r0, r4
 8004ca0:	2388      	movs	r3, #136	; 0x88
 8004ca2:	00db      	lsls	r3, r3, #3
 8004ca4:	449d      	add	sp, r3
 8004ca6:	bd70      	pop	{r4, r5, r6, pc}
				res = FR_INVALID_NAME;
 8004ca8:	2406      	movs	r4, #6
 8004caa:	e7f8      	b.n	8004c9e <f_stat+0x4a>
 8004cac:	fffffbc0 	.word	0xfffffbc0
 8004cb0:	200000c2 	.word	0x200000c2
 8004cb4:	00000414 	.word	0x00000414

08004cb8 <f_getfree>:
{
 8004cb8:	b5f0      	push	{r4, r5, r6, r7, lr}
 8004cba:	0014      	movs	r4, r2
 8004cbc:	b087      	sub	sp, #28
 8004cbe:	9005      	str	r0, [sp, #20]
 8004cc0:	9103      	str	r1, [sp, #12]
	res = find_volume(fatfs, &path, 0);
 8004cc2:	2200      	movs	r2, #0
 8004cc4:	a905      	add	r1, sp, #20
 8004cc6:	0020      	movs	r0, r4
 8004cc8:	f7fe fa26 	bl	8003118 <find_volume>
 8004ccc:	1e05      	subs	r5, r0, #0
	if (res == FR_OK) {
 8004cce:	d10c      	bne.n	8004cea <f_getfree+0x32>
		if (fs->free_clust <= fs->n_fatent - 2) {
 8004cd0:	2382      	movs	r3, #130	; 0x82
	fs = *fatfs;
 8004cd2:	6824      	ldr	r4, [r4, #0]
		if (fs->free_clust <= fs->n_fatent - 2) {
 8004cd4:	4f35      	ldr	r7, [pc, #212]	; (8004dac <f_getfree+0xf4>)
 8004cd6:	00db      	lsls	r3, r3, #3
 8004cd8:	59e2      	ldr	r2, [r4, r7]
 8004cda:	58e3      	ldr	r3, [r4, r3]
 8004cdc:	9201      	str	r2, [sp, #4]
 8004cde:	3a02      	subs	r2, #2
 8004ce0:	9704      	str	r7, [sp, #16]
 8004ce2:	4293      	cmp	r3, r2
 8004ce4:	d804      	bhi.n	8004cf0 <f_getfree+0x38>
			*nclst = fs->free_clust;
 8004ce6:	9a03      	ldr	r2, [sp, #12]
 8004ce8:	6013      	str	r3, [r2, #0]
}
 8004cea:	0028      	movs	r0, r5
 8004cec:	b007      	add	sp, #28
 8004cee:	bdf0      	pop	{r4, r5, r6, r7, pc}
			fat = fs->fs_type;
 8004cf0:	2380      	movs	r3, #128	; 0x80
 8004cf2:	00db      	lsls	r3, r3, #3
 8004cf4:	5ce3      	ldrb	r3, [r4, r3]
 8004cf6:	9302      	str	r3, [sp, #8]
			if (fat == FS_FAT12) {
 8004cf8:	2b01      	cmp	r3, #1
 8004cfa:	d11d      	bne.n	8004d38 <f_getfree+0x80>
 8004cfc:	2602      	movs	r6, #2
 8004cfe:	0007      	movs	r7, r0
					stat = get_fat(fs, clst);
 8004d00:	0031      	movs	r1, r6
 8004d02:	0020      	movs	r0, r4
 8004d04:	f7fe fbb0 	bl	8003468 <get_fat>
					if (stat == 0xFFFFFFFF) { res = FR_DISK_ERR; break; }
 8004d08:	1c43      	adds	r3, r0, #1
 8004d0a:	d049      	beq.n	8004da0 <f_getfree+0xe8>
					if (stat == 1) { res = FR_INT_ERR; break; }
 8004d0c:	2801      	cmp	r0, #1
 8004d0e:	d049      	beq.n	8004da4 <f_getfree+0xec>
					if (stat == 0) n++;
 8004d10:	4243      	negs	r3, r0
 8004d12:	4158      	adcs	r0, r3
				} while (++clst < fs->n_fatent);
 8004d14:	9b04      	ldr	r3, [sp, #16]
 8004d16:	3601      	adds	r6, #1
 8004d18:	58e3      	ldr	r3, [r4, r3]
					if (stat == 0) n++;
 8004d1a:	183f      	adds	r7, r7, r0
				} while (++clst < fs->n_fatent);
 8004d1c:	9301      	str	r3, [sp, #4]
 8004d1e:	429e      	cmp	r6, r3
 8004d20:	d3ee      	bcc.n	8004d00 <f_getfree+0x48>
			fs->free_clust = n;
 8004d22:	2382      	movs	r3, #130	; 0x82
 8004d24:	00db      	lsls	r3, r3, #3
 8004d26:	50e7      	str	r7, [r4, r3]
			fs->fsi_flag |= 1;
 8004d28:	2301      	movs	r3, #1
 8004d2a:	4a21      	ldr	r2, [pc, #132]	; (8004db0 <f_getfree+0xf8>)
 8004d2c:	5ca1      	ldrb	r1, [r4, r2]
 8004d2e:	430b      	orrs	r3, r1
 8004d30:	54a3      	strb	r3, [r4, r2]
			*nclst = n;
 8004d32:	9b03      	ldr	r3, [sp, #12]
 8004d34:	601f      	str	r7, [r3, #0]
 8004d36:	e7d8      	b.n	8004cea <f_getfree+0x32>
				sect = fs->fatbase;
 8004d38:	2384      	movs	r3, #132	; 0x84
 8004d3a:	00db      	lsls	r3, r3, #3
 8004d3c:	58e1      	ldr	r1, [r4, r3]
			n = 0;
 8004d3e:	0007      	movs	r7, r0
				i = 0; p = 0;
 8004d40:	0003      	movs	r3, r0
					if (!i) {
 8004d42:	2800      	cmp	r0, #0
 8004d44:	d109      	bne.n	8004d5a <f_getfree+0xa2>
						res = move_window(fs, sect++);
 8004d46:	0020      	movs	r0, r4
 8004d48:	1c4e      	adds	r6, r1, #1
 8004d4a:	f7fe f987 	bl	800305c <move_window>
						if (res != FR_OK) break;
 8004d4e:	2800      	cmp	r0, #0
 8004d50:	d12a      	bne.n	8004da8 <f_getfree+0xf0>
						p = fs->win.d8;
 8004d52:	0023      	movs	r3, r4
						res = move_window(fs, sect++);
 8004d54:	0031      	movs	r1, r6
						i = SS(fs);
 8004d56:	4a17      	ldr	r2, [pc, #92]	; (8004db4 <f_getfree+0xfc>)
 8004d58:	5aa0      	ldrh	r0, [r4, r2]
					if (fat == FS_FAT16) {
 8004d5a:	9a02      	ldr	r2, [sp, #8]
 8004d5c:	2a02      	cmp	r2, #2
 8004d5e:	d10e      	bne.n	8004d7e <f_getfree+0xc6>
						if (LD_WORD(p) == 0) n++;
 8004d60:	785e      	ldrb	r6, [r3, #1]
 8004d62:	781a      	ldrb	r2, [r3, #0]
 8004d64:	0236      	lsls	r6, r6, #8
 8004d66:	4332      	orrs	r2, r6
 8004d68:	4256      	negs	r6, r2
 8004d6a:	4172      	adcs	r2, r6
						p += 2; i -= 2;
 8004d6c:	3302      	adds	r3, #2
						if (LD_WORD(p) == 0) n++;
 8004d6e:	18bf      	adds	r7, r7, r2
						p += 2; i -= 2;
 8004d70:	3802      	subs	r0, #2
				} while (--clst);
 8004d72:	9a01      	ldr	r2, [sp, #4]
 8004d74:	3a01      	subs	r2, #1
 8004d76:	9201      	str	r2, [sp, #4]
 8004d78:	2a00      	cmp	r2, #0
 8004d7a:	d1e2      	bne.n	8004d42 <f_getfree+0x8a>
 8004d7c:	e7d1      	b.n	8004d22 <f_getfree+0x6a>
						if ((LD_DWORD(p) & 0x0FFFFFFF) == 0) n++;
 8004d7e:	785e      	ldrb	r6, [r3, #1]
 8004d80:	781a      	ldrb	r2, [r3, #0]
 8004d82:	0236      	lsls	r6, r6, #8
 8004d84:	4316      	orrs	r6, r2
 8004d86:	789a      	ldrb	r2, [r3, #2]
						p += 4; i -= 4;
 8004d88:	3804      	subs	r0, #4
						if ((LD_DWORD(p) & 0x0FFFFFFF) == 0) n++;
 8004d8a:	0412      	lsls	r2, r2, #16
 8004d8c:	4316      	orrs	r6, r2
 8004d8e:	78da      	ldrb	r2, [r3, #3]
						p += 4; i -= 4;
 8004d90:	3304      	adds	r3, #4
						if ((LD_DWORD(p) & 0x0FFFFFFF) == 0) n++;
 8004d92:	0612      	lsls	r2, r2, #24
 8004d94:	4332      	orrs	r2, r6
 8004d96:	0112      	lsls	r2, r2, #4
 8004d98:	4256      	negs	r6, r2
 8004d9a:	4172      	adcs	r2, r6
 8004d9c:	18bf      	adds	r7, r7, r2
 8004d9e:	e7e8      	b.n	8004d72 <f_getfree+0xba>
					if (stat == 0xFFFFFFFF) { res = FR_DISK_ERR; break; }
 8004da0:	2501      	movs	r5, #1
 8004da2:	e7be      	b.n	8004d22 <f_getfree+0x6a>
					if (stat == 1) { res = FR_INT_ERR; break; }
 8004da4:	2502      	movs	r5, #2
 8004da6:	e7bc      	b.n	8004d22 <f_getfree+0x6a>
						res = move_window(fs, sect++);
 8004da8:	0005      	movs	r5, r0
 8004daa:	e7ba      	b.n	8004d22 <f_getfree+0x6a>
 8004dac:	00000414 	.word	0x00000414
 8004db0:	00000405 	.word	0x00000405
 8004db4:	0000040a 	.word	0x0000040a

08004db8 <f_gets>:
{
 8004db8:	b5f0      	push	{r4, r5, r6, r7, lr}
 8004dba:	0006      	movs	r6, r0
 8004dbc:	0017      	movs	r7, r2
	TCHAR c, *p = buff;
 8004dbe:	0005      	movs	r5, r0
	int n = 0;
 8004dc0:	2400      	movs	r4, #0
{
 8004dc2:	b085      	sub	sp, #20
 8004dc4:	9101      	str	r1, [sp, #4]
	while (n < len - 1) {	/* Read characters until buffer gets filled */
 8004dc6:	9b01      	ldr	r3, [sp, #4]
 8004dc8:	3b01      	subs	r3, #1
 8004dca:	429c      	cmp	r4, r3
 8004dcc:	da12      	bge.n	8004df4 <f_gets+0x3c>
		f_read(fp, s, 1, &rc);
 8004dce:	ab03      	add	r3, sp, #12
 8004dd0:	2201      	movs	r2, #1
 8004dd2:	a902      	add	r1, sp, #8
 8004dd4:	0038      	movs	r0, r7
 8004dd6:	f7ff facf 	bl	8004378 <f_read>
		if (rc != 1) break;
 8004dda:	9b03      	ldr	r3, [sp, #12]
 8004ddc:	2b01      	cmp	r3, #1
 8004dde:	d109      	bne.n	8004df4 <f_gets+0x3c>
		c = s[0];
 8004de0:	ab02      	add	r3, sp, #8
 8004de2:	781b      	ldrb	r3, [r3, #0]
		if (_USE_STRFUNC == 2 && c == '\r') continue;	/* Strip '\r' */
 8004de4:	2b0d      	cmp	r3, #13
 8004de6:	d0ee      	beq.n	8004dc6 <f_gets+0xe>
		*p++ = c;
 8004de8:	1c6a      	adds	r2, r5, #1
 8004dea:	702b      	strb	r3, [r5, #0]
		n++;
 8004dec:	3401      	adds	r4, #1
		*p++ = c;
 8004dee:	0015      	movs	r5, r2
		if (c == '\n') break;		/* Break on EOL */
 8004df0:	2b0a      	cmp	r3, #10
 8004df2:	d1e8      	bne.n	8004dc6 <f_gets+0xe>
	*p = 0;
 8004df4:	2300      	movs	r3, #0
 8004df6:	702b      	strb	r3, [r5, #0]
	return n ? buff : 0;			/* When no data read (eof or error), return with error. */
 8004df8:	1e63      	subs	r3, r4, #1
 8004dfa:	419c      	sbcs	r4, r3
 8004dfc:	4264      	negs	r4, r4
 8004dfe:	4026      	ands	r6, r4
}
 8004e00:	0030      	movs	r0, r6
 8004e02:	b005      	add	sp, #20
 8004e04:	bdf0      	pop	{r4, r5, r6, r7, pc}

08004e06 <f_puts>:
	putbuff pb;
	UINT nw;


	pb.fp = fp;				/* Initialize output buffer */
	pb.nchr = pb.idx = 0;
 8004e06:	2300      	movs	r3, #0
{
 8004e08:	b510      	push	{r4, lr}
 8004e0a:	0004      	movs	r4, r0
 8004e0c:	b096      	sub	sp, #88	; 0x58
	pb.fp = fp;				/* Initialize output buffer */
 8004e0e:	9103      	str	r1, [sp, #12]
	pb.nchr = pb.idx = 0;
 8004e10:	9304      	str	r3, [sp, #16]
 8004e12:	9305      	str	r3, [sp, #20]

	while (*str)			/* Put the string */
 8004e14:	7821      	ldrb	r1, [r4, #0]
 8004e16:	2900      	cmp	r1, #0
 8004e18:	d106      	bne.n	8004e28 <f_puts+0x22>
		putc_bfd(&pb, *str++);

	if (   pb.idx >= 0		/* Flush buffered characters to the file */
 8004e1a:	9a04      	ldr	r2, [sp, #16]
 8004e1c:	2a00      	cmp	r2, #0
 8004e1e:	da08      	bge.n	8004e32 <f_puts+0x2c>
		&& f_write(pb.fp, pb.buf, (UINT)pb.idx, &nw) == FR_OK
		&& (UINT)pb.idx == nw) return pb.nchr;
	return EOF;
 8004e20:	2001      	movs	r0, #1
 8004e22:	4240      	negs	r0, r0
}
 8004e24:	b016      	add	sp, #88	; 0x58
 8004e26:	bd10      	pop	{r4, pc}
		putc_bfd(&pb, *str++);
 8004e28:	a803      	add	r0, sp, #12
 8004e2a:	3401      	adds	r4, #1
 8004e2c:	f7ff fcd8 	bl	80047e0 <putc_bfd>
 8004e30:	e7f0      	b.n	8004e14 <f_puts+0xe>
		&& f_write(pb.fp, pb.buf, (UINT)pb.idx, &nw) == FR_OK
 8004e32:	ab02      	add	r3, sp, #8
 8004e34:	a906      	add	r1, sp, #24
 8004e36:	9803      	ldr	r0, [sp, #12]
 8004e38:	f7ff fba4 	bl	8004584 <f_write>
 8004e3c:	2800      	cmp	r0, #0
 8004e3e:	d1ef      	bne.n	8004e20 <f_puts+0x1a>
		&& (UINT)pb.idx == nw) return pb.nchr;
 8004e40:	9b04      	ldr	r3, [sp, #16]
 8004e42:	9a02      	ldr	r2, [sp, #8]
 8004e44:	9301      	str	r3, [sp, #4]
 8004e46:	4293      	cmp	r3, r2
 8004e48:	d1ea      	bne.n	8004e20 <f_puts+0x1a>
 8004e4a:	9805      	ldr	r0, [sp, #20]
 8004e4c:	e7ea      	b.n	8004e24 <f_puts+0x1e>
	...

08004e50 <FATFS_LinkDriverEx>:
  * @param  lun : only used for USB Key Disk to add multi-lun management
            else the paramter must be equal to 0
  * @retval Returns 0 in case of success, otherwise 1.
  */
uint8_t FATFS_LinkDriverEx(Diskio_drvTypeDef *drv, char *path, uint8_t lun)
{
 8004e50:	b530      	push	{r4, r5, lr}
  uint8_t ret = 1;
 8004e52:	2401      	movs	r4, #1
  uint8_t DiskNum = 0;
  
  if(disk.nbr <= _VOLUMES)
 8004e54:	4b0e      	ldr	r3, [pc, #56]	; (8004e90 <FATFS_LinkDriverEx+0x40>)
 8004e56:	7a5d      	ldrb	r5, [r3, #9]
 8004e58:	42a5      	cmp	r5, r4
 8004e5a:	d816      	bhi.n	8004e8a <FATFS_LinkDriverEx+0x3a>
  {
    disk.is_initialized[disk.nbr] = 0;
 8004e5c:	2400      	movs	r4, #0
 8004e5e:	7a5d      	ldrb	r5, [r3, #9]
 8004e60:	b2ed      	uxtb	r5, r5
 8004e62:	555c      	strb	r4, [r3, r5]
    disk.drv[disk.nbr] = drv;  
 8004e64:	7a5d      	ldrb	r5, [r3, #9]
 8004e66:	00ad      	lsls	r5, r5, #2
 8004e68:	195d      	adds	r5, r3, r5
 8004e6a:	6068      	str	r0, [r5, #4]
    disk.lun[disk.nbr] = lun;  
 8004e6c:	7a58      	ldrb	r0, [r3, #9]
 8004e6e:	1818      	adds	r0, r3, r0
 8004e70:	7202      	strb	r2, [r0, #8]
    DiskNum = disk.nbr++;
 8004e72:	7a5a      	ldrb	r2, [r3, #9]
 8004e74:	b2d2      	uxtb	r2, r2
 8004e76:	1c50      	adds	r0, r2, #1
 8004e78:	b2c0      	uxtb	r0, r0
 8004e7a:	7258      	strb	r0, [r3, #9]
    path[0] = DiskNum + '0';
    path[1] = ':';
 8004e7c:	233a      	movs	r3, #58	; 0x3a
    path[0] = DiskNum + '0';
 8004e7e:	3230      	adds	r2, #48	; 0x30
    path[1] = ':';
 8004e80:	704b      	strb	r3, [r1, #1]
    path[2] = '/';
 8004e82:	3b0b      	subs	r3, #11
    path[0] = DiskNum + '0';
 8004e84:	700a      	strb	r2, [r1, #0]
    path[2] = '/';
 8004e86:	708b      	strb	r3, [r1, #2]
    path[3] = 0;
 8004e88:	70cc      	strb	r4, [r1, #3]
    ret = 0;
  }
  
  return ret;
}
 8004e8a:	0020      	movs	r0, r4
 8004e8c:	bd30      	pop	{r4, r5, pc}
 8004e8e:	46c0      	nop			; (mov r8, r8)
 8004e90:	200002c4 	.word	0x200002c4

08004e94 <FATFS_LinkDriver>:
  * @param  drv: pointer to the disk IO Driver structure
  * @param  path: pointer to the logical drive path 
  * @retval Returns 0 in case of success, otherwise 1.
  */
uint8_t FATFS_LinkDriver(Diskio_drvTypeDef *drv, char *path)
{
 8004e94:	b510      	push	{r4, lr}
  return FATFS_LinkDriverEx(drv, path, 0);
 8004e96:	2200      	movs	r2, #0
 8004e98:	f7ff ffda 	bl	8004e50 <FATFS_LinkDriverEx>
}
 8004e9c:	bd10      	pop	{r4, pc}
	...

08004ea0 <ff_convert>:

WCHAR ff_convert (	/* Converted character, Returns zero on error */
	WCHAR	chr,	/* Character code to be converted */
	UINT	dir		/* 0: Unicode to OEMCP, 1: OEMCP to Unicode */
)
{
 8004ea0:	b510      	push	{r4, lr}
	WCHAR c;


	if (chr < 0x80) {	/* ASCII */
 8004ea2:	287f      	cmp	r0, #127	; 0x7f
 8004ea4:	d907      	bls.n	8004eb6 <ff_convert+0x16>
		c = chr;

	} else {
		if (dir) {		/* OEMCP to Unicode */
 8004ea6:	2900      	cmp	r1, #0
 8004ea8:	d006      	beq.n	8004eb8 <ff_convert+0x18>
			c = (chr >= 0x100) ? 0 : Tbl[chr - 0x80];
 8004eaa:	28ff      	cmp	r0, #255	; 0xff
 8004eac:	d811      	bhi.n	8004ed2 <ff_convert+0x32>
 8004eae:	3880      	subs	r0, #128	; 0x80
 8004eb0:	4b09      	ldr	r3, [pc, #36]	; (8004ed8 <ff_convert+0x38>)
 8004eb2:	0040      	lsls	r0, r0, #1
 8004eb4:	5ac0      	ldrh	r0, [r0, r3]
			c = (c + 0x80) & 0xFF;
		}
	}

	return c;
}
 8004eb6:	bd10      	pop	{r4, pc}
				if (chr == Tbl[c]) break;
 8004eb8:	4a07      	ldr	r2, [pc, #28]	; (8004ed8 <ff_convert+0x38>)
 8004eba:	004c      	lsls	r4, r1, #1
 8004ebc:	5aa4      	ldrh	r4, [r4, r2]
 8004ebe:	b28b      	uxth	r3, r1
 8004ec0:	4284      	cmp	r4, r0
 8004ec2:	d003      	beq.n	8004ecc <ff_convert+0x2c>
 8004ec4:	3101      	adds	r1, #1
			for (c = 0; c < 0x80; c++) {
 8004ec6:	2980      	cmp	r1, #128	; 0x80
 8004ec8:	d1f7      	bne.n	8004eba <ff_convert+0x1a>
 8004eca:	000b      	movs	r3, r1
			c = (c + 0x80) & 0xFF;
 8004ecc:	3380      	adds	r3, #128	; 0x80
 8004ece:	b2d8      	uxtb	r0, r3
 8004ed0:	e7f1      	b.n	8004eb6 <ff_convert+0x16>
			c = (chr >= 0x100) ? 0 : Tbl[chr - 0x80];
 8004ed2:	2000      	movs	r0, #0
 8004ed4:	e7ef      	b.n	8004eb6 <ff_convert+0x16>
 8004ed6:	46c0      	nop			; (mov r8, r8)
 8004ed8:	0800670a 	.word	0x0800670a

08004edc <ff_wtoupper>:
	static const WCHAR tbl_lower[] = { 0x61, 0x62, 0x63, 0x64, 0x65, 0x66, 0x67, 0x68, 0x69, 0x6A, 0x6B, 0x6C, 0x6D, 0x6E, 0x6F, 0x70, 0x71, 0x72, 0x73, 0x74, 0x75, 0x76, 0x77, 0x78, 0x79, 0x7A, 0xA1, 0x00A2, 0x00A3, 0x00A5, 0x00AC, 0x00AF, 0xE0, 0xE1, 0xE2, 0xE3, 0xE4, 0xE5, 0xE6, 0xE7, 0xE8, 0xE9, 0xEA, 0xEB, 0xEC, 0xED, 0xEE, 0xEF, 0xF0, 0xF1, 0xF2, 0xF3, 0xF4, 0xF5, 0xF6, 0xF8, 0xF9, 0xFA, 0xFB, 0xFC, 0xFD, 0xFE, 0x0FF, 0x101, 0x103, 0x105, 0x107, 0x109, 0x10B, 0x10D, 0x10F, 0x111, 0x113, 0x115, 0x117, 0x119, 0x11B, 0x11D, 0x11F, 0x121, 0x123, 0x125, 0x127, 0x129, 0x12B, 0x12D, 0x12F, 0x131, 0x133, 0x135, 0x137, 0x13A, 0x13C, 0x13E, 0x140, 0x142, 0x144, 0x146, 0x148, 0x14B, 0x14D, 0x14F, 0x151, 0x153, 0x155, 0x157, 0x159, 0x15B, 0x15D, 0x15F, 0x161, 0x163, 0x165, 0x167, 0x169, 0x16B, 0x16D, 0x16F, 0x171, 0x173, 0x175, 0x177, 0x17A, 0x17C, 0x17E, 0x192, 0x3B1, 0x3B2, 0x3B3, 0x3B4, 0x3B5, 0x3B6, 0x3B7, 0x3B8, 0x3B9, 0x3BA, 0x3BB, 0x3BC, 0x3BD, 0x3BE, 0x3BF, 0x3C0, 0x3C1, 0x3C3, 0x3C4, 0x3C5, 0x3C6, 0x3C7, 0x3C8, 0x3C9, 0x3CA, 0x430, 0x431, 0x432, 0x433, 0x434, 0x435, 0x436, 0x437, 0x438, 0x439, 0x43A, 0x43B, 0x43C, 0x43D, 0x43E, 0x43F, 0x440, 0x441, 0x442, 0x443, 0x444, 0x445, 0x446, 0x447, 0x448, 0x449, 0x44A, 0x44B, 0x44C, 0x44D, 0x44E, 0x44F, 0x451, 0x452, 0x453, 0x454, 0x455, 0x456, 0x457, 0x458, 0x459, 0x45A, 0x45B, 0x45C, 0x45E, 0x45F, 0x2170, 0x2171, 0x2172, 0x2173, 0x2174, 0x2175, 0x2176, 0x2177, 0x2178, 0x2179, 0x217A, 0x217B, 0x217C, 0x217D, 0x217E, 0x217F, 0xFF41, 0xFF42, 0xFF43, 0xFF44, 0xFF45, 0xFF46, 0xFF47, 0xFF48, 0xFF49, 0xFF4A, 0xFF4B, 0xFF4C, 0xFF4D, 0xFF4E, 0xFF4F, 0xFF50, 0xFF51, 0xFF52, 0xFF53, 0xFF54, 0xFF55, 0xFF56, 0xFF57, 0xFF58, 0xFF59, 0xFF5A, 0 };
	static const WCHAR tbl_upper[] = { 0x41, 0x42, 0x43, 0x44, 0x45, 0x46, 0x47, 0x48, 0x49, 0x4A, 0x4B, 0x4C, 0x4D, 0x4E, 0x4F, 0x50, 0x51, 0x52, 0x53, 0x54, 0x55, 0x56, 0x57, 0x58, 0x59, 0x5A, 0x21, 0xFFE0, 0xFFE1, 0xFFE5, 0xFFE2, 0xFFE3, 0xC0, 0xC1, 0xC2, 0xC3, 0xC4, 0xC5, 0xC6, 0xC7, 0xC8, 0xC9, 0xCA, 0xCB, 0xCC, 0xCD, 0xCE, 0xCF, 0xD0, 0xD1, 0xD2, 0xD3, 0xD4, 0xD5, 0xD6, 0xD8, 0xD9, 0xDA, 0xDB, 0xDC, 0xDD, 0xDE, 0x178, 0x100, 0x102, 0x104, 0x106, 0x108, 0x10A, 0x10C, 0x10E, 0x110, 0x112, 0x114, 0x116, 0x118, 0x11A, 0x11C, 0x11E, 0x120, 0x122, 0x124, 0x126, 0x128, 0x12A, 0x12C, 0x12E, 0x130, 0x132, 0x134, 0x136, 0x139, 0x13B, 0x13D, 0x13F, 0x141, 0x143, 0x145, 0x147, 0x14A, 0x14C, 0x14E, 0x150, 0x152, 0x154, 0x156, 0x158, 0x15A, 0x15C, 0x15E, 0x160, 0x162, 0x164, 0x166, 0x168, 0x16A, 0x16C, 0x16E, 0x170, 0x172, 0x174, 0x176, 0x179, 0x17B, 0x17D, 0x191, 0x391, 0x392, 0x393, 0x394, 0x395, 0x396, 0x397, 0x398, 0x399, 0x39A, 0x39B, 0x39C, 0x39D, 0x39E, 0x39F, 0x3A0, 0x3A1, 0x3A3, 0x3A4, 0x3A5, 0x3A6, 0x3A7, 0x3A8, 0x3A9, 0x3AA, 0x410, 0x411, 0x412, 0x413, 0x414, 0x415, 0x416, 0x417, 0x418, 0x419, 0x41A, 0x41B, 0x41C, 0x41D, 0x41E, 0x41F, 0x420, 0x421, 0x422, 0x423, 0x424, 0x425, 0x426, 0x427, 0x428, 0x429, 0x42A, 0x42B, 0x42C, 0x42D, 0x42E, 0x42F, 0x401, 0x402, 0x403, 0x404, 0x405, 0x406, 0x407, 0x408, 0x409, 0x40A, 0x40B, 0x40C, 0x40E, 0x40F, 0x2160, 0x2161, 0x2162, 0x2163, 0x2164, 0x2165, 0x2166, 0x2167, 0x2168, 0x2169, 0x216A, 0x216B, 0x216C, 0x216D, 0x216E, 0x216F, 0xFF21, 0xFF22, 0xFF23, 0xFF24, 0xFF25, 0xFF26, 0xFF27, 0xFF28, 0xFF29, 0xFF2A, 0xFF2B, 0xFF2C, 0xFF2D, 0xFF2E, 0xFF2F, 0xFF30, 0xFF31, 0xFF32, 0xFF33, 0xFF34, 0xFF35, 0xFF36, 0xFF37, 0xFF38, 0xFF39, 0xFF3A, 0 };
	int i;


	for (i = 0; tbl_lower[i] && chr != tbl_lower[i]; i++) ;
 8004edc:	2300      	movs	r3, #0
{
 8004ede:	b510      	push	{r4, lr}
	for (i = 0; tbl_lower[i] && chr != tbl_lower[i]; i++) ;
 8004ee0:	4c05      	ldr	r4, [pc, #20]	; (8004ef8 <ff_wtoupper+0x1c>)
 8004ee2:	005a      	lsls	r2, r3, #1
 8004ee4:	5b11      	ldrh	r1, [r2, r4]
 8004ee6:	2900      	cmp	r1, #0
 8004ee8:	d003      	beq.n	8004ef2 <ff_wtoupper+0x16>
 8004eea:	4281      	cmp	r1, r0
 8004eec:	d102      	bne.n	8004ef4 <ff_wtoupper+0x18>

	return tbl_lower[i] ? tbl_upper[i] : chr;
 8004eee:	4b03      	ldr	r3, [pc, #12]	; (8004efc <ff_wtoupper+0x20>)
 8004ef0:	5ad0      	ldrh	r0, [r2, r3]
}
 8004ef2:	bd10      	pop	{r4, pc}
	for (i = 0; tbl_lower[i] && chr != tbl_lower[i]; i++) ;
 8004ef4:	3301      	adds	r3, #1
 8004ef6:	e7f4      	b.n	8004ee2 <ff_wtoupper+0x6>
 8004ef8:	0800680a 	.word	0x0800680a
 8004efc:	080069ea 	.word	0x080069ea

08004f00 <MX_FATFS_Init>:
/* USER CODE BEGIN Variables */

/* USER CODE END Variables */

void MX_FATFS_Init(void)
{
 8004f00:	b510      	push	{r4, lr}
  /*## FatFS: Link the USER driver ###########################*/
  retUSER = FATFS_LinkDriver(&USER_Driver, USERPath);
 8004f02:	4903      	ldr	r1, [pc, #12]	; (8004f10 <MX_FATFS_Init+0x10>)
 8004f04:	4803      	ldr	r0, [pc, #12]	; (8004f14 <MX_FATFS_Init+0x14>)
 8004f06:	f7ff ffc5 	bl	8004e94 <FATFS_LinkDriver>
 8004f0a:	4b03      	ldr	r3, [pc, #12]	; (8004f18 <MX_FATFS_Init+0x18>)
 8004f0c:	7018      	strb	r0, [r3, #0]

  /* USER CODE BEGIN Init */
  /* additional user code for init */     
  /* USER CODE END Init */
}
 8004f0e:	bd10      	pop	{r4, pc}
 8004f10:	200002f0 	.word	0x200002f0
 8004f14:	20000010 	.word	0x20000010
 8004f18:	200002f4 	.word	0x200002f4

08004f1c <get_fattime>:
DWORD get_fattime(void)
{
  /* USER CODE BEGIN get_fattime */
  return 0;
  /* USER CODE END get_fattime */
}
 8004f1c:	2000      	movs	r0, #0
 8004f1e:	4770      	bx	lr

08004f20 <SPI_TxByte>:
  HAL_GPIO_WritePin(SD_CS_GPIO_Port, SD_CS_Pin, GPIO_PIN_SET);
}

/* SPI Transmit*/
static void SPI_TxByte(BYTE data)
{
 8004f20:	b537      	push	{r0, r1, r2, r4, r5, lr}
 8004f22:	466b      	mov	r3, sp
 8004f24:	1ddd      	adds	r5, r3, #7
 8004f26:	7028      	strb	r0, [r5, #0]
  while (HAL_SPI_GetState(&hspi1) != HAL_SPI_STATE_READY);
 8004f28:	4c06      	ldr	r4, [pc, #24]	; (8004f44 <SPI_TxByte+0x24>)
 8004f2a:	0020      	movs	r0, r4
 8004f2c:	f7fd fbd0 	bl	80026d0 <HAL_SPI_GetState>
 8004f30:	0002      	movs	r2, r0
 8004f32:	2801      	cmp	r0, #1
 8004f34:	d1f8      	bne.n	8004f28 <SPI_TxByte+0x8>
  HAL_SPI_Transmit(&hspi1, &data, 1, SPI_TIMEOUT);
 8004f36:	23fa      	movs	r3, #250	; 0xfa
 8004f38:	0029      	movs	r1, r5
 8004f3a:	009b      	lsls	r3, r3, #2
 8004f3c:	0020      	movs	r0, r4
 8004f3e:	f7fd f9c5 	bl	80022cc <HAL_SPI_Transmit>
}
 8004f42:	bd37      	pop	{r0, r1, r2, r4, r5, pc}
 8004f44:	2000143c 	.word	0x2000143c

08004f48 <SELECT>:
{
 8004f48:	b510      	push	{r4, lr}
  HAL_GPIO_WritePin(SD_CS_GPIO_Port, SD_CS_Pin, GPIO_PIN_RESET);
 8004f4a:	2200      	movs	r2, #0
 8004f4c:	2140      	movs	r1, #64	; 0x40
 8004f4e:	4802      	ldr	r0, [pc, #8]	; (8004f58 <SELECT+0x10>)
 8004f50:	f7fc fd70 	bl	8001a34 <HAL_GPIO_WritePin>
}
 8004f54:	bd10      	pop	{r4, pc}
 8004f56:	46c0      	nop			; (mov r8, r8)
 8004f58:	48000400 	.word	0x48000400

08004f5c <DESELECT>:
{
 8004f5c:	b510      	push	{r4, lr}
  HAL_GPIO_WritePin(SD_CS_GPIO_Port, SD_CS_Pin, GPIO_PIN_SET);
 8004f5e:	2201      	movs	r2, #1
 8004f60:	2140      	movs	r1, #64	; 0x40
 8004f62:	4802      	ldr	r0, [pc, #8]	; (8004f6c <DESELECT+0x10>)
 8004f64:	f7fc fd66 	bl	8001a34 <HAL_GPIO_WritePin>
}
 8004f68:	bd10      	pop	{r4, pc}
 8004f6a:	46c0      	nop			; (mov r8, r8)
 8004f6c:	48000400 	.word	0x48000400

08004f70 <SPI_RxByte>:

/* SPI Data send / receive return type function */
static uint8_t SPI_RxByte(void)
{
 8004f70:	b57f      	push	{r0, r1, r2, r3, r4, r5, r6, lr}
  uint8_t dummy, data;
  dummy = 0xFF;
 8004f72:	260e      	movs	r6, #14
 8004f74:	23ff      	movs	r3, #255	; 0xff
 8004f76:	446e      	add	r6, sp
  data = 0;
 8004f78:	240f      	movs	r4, #15
  dummy = 0xFF;
 8004f7a:	7033      	strb	r3, [r6, #0]
  data = 0;
 8004f7c:	2300      	movs	r3, #0
 8004f7e:	446c      	add	r4, sp
 8004f80:	7023      	strb	r3, [r4, #0]
  
  while ((HAL_SPI_GetState(&hspi1) != HAL_SPI_STATE_READY));
 8004f82:	4d09      	ldr	r5, [pc, #36]	; (8004fa8 <SPI_RxByte+0x38>)
 8004f84:	0028      	movs	r0, r5
 8004f86:	f7fd fba3 	bl	80026d0 <HAL_SPI_GetState>
 8004f8a:	0003      	movs	r3, r0
 8004f8c:	2801      	cmp	r0, #1
 8004f8e:	d1f8      	bne.n	8004f82 <SPI_RxByte+0x12>
  HAL_SPI_TransmitReceive(&hspi1, &dummy, &data, 1, SPI_TIMEOUT);
 8004f90:	22fa      	movs	r2, #250	; 0xfa
 8004f92:	0092      	lsls	r2, r2, #2
 8004f94:	9200      	str	r2, [sp, #0]
 8004f96:	0031      	movs	r1, r6
 8004f98:	0022      	movs	r2, r4
 8004f9a:	0028      	movs	r0, r5
 8004f9c:	f7fd fa66 	bl	800246c <HAL_SPI_TransmitReceive>
  
  return data;
 8004fa0:	7820      	ldrb	r0, [r4, #0]
}
 8004fa2:	b004      	add	sp, #16
 8004fa4:	bd70      	pop	{r4, r5, r6, pc}
 8004fa6:	46c0      	nop			; (mov r8, r8)
 8004fa8:	2000143c 	.word	0x2000143c

08004fac <SD_PowerOn>:
  return res;
}

/*Power on*/
static void SD_PowerOn(void) 
{
 8004fac:	b513      	push	{r0, r1, r4, lr}
  uint8_t cmd_arg[6];
  uint32_t Count = 0x1FFF;
  

  DESELECT();
 8004fae:	f7ff ffd5 	bl	8004f5c <DESELECT>
 8004fb2:	240a      	movs	r4, #10
  
  for(int i = 0; i < 10; i++)
  {
    SPI_TxByte(0xFF);
 8004fb4:	20ff      	movs	r0, #255	; 0xff
 8004fb6:	3c01      	subs	r4, #1
 8004fb8:	f7ff ffb2 	bl	8004f20 <SPI_TxByte>
  for(int i = 0; i < 10; i++)
 8004fbc:	2c00      	cmp	r4, #0
 8004fbe:	d1f9      	bne.n	8004fb4 <SD_PowerOn+0x8>
  }
  
  /* SPI Chips Select */
  SELECT();
 8004fc0:	f7ff ffc2 	bl	8004f48 <SELECT>
  
  /*  GO_IDLE_STATE State transitions*/
  cmd_arg[0] = (CMD0 | 0x40);
 8004fc4:	466a      	mov	r2, sp
 8004fc6:	2340      	movs	r3, #64	; 0x40
 8004fc8:	7013      	strb	r3, [r2, #0]
  cmd_arg[1] = 0;
  cmd_arg[2] = 0;
  cmd_arg[3] = 0;
  cmd_arg[4] = 0;
  cmd_arg[5] = 0x95;
 8004fca:	2395      	movs	r3, #149	; 0x95
  cmd_arg[1] = 0;
 8004fcc:	7054      	strb	r4, [r2, #1]
  cmd_arg[2] = 0;
 8004fce:	7094      	strb	r4, [r2, #2]
  cmd_arg[3] = 0;
 8004fd0:	70d4      	strb	r4, [r2, #3]
  cmd_arg[4] = 0;
 8004fd2:	7114      	strb	r4, [r2, #4]
  cmd_arg[5] = 0x95;
 8004fd4:	7153      	strb	r3, [r2, #5]
  
  /* Command transmission*/
  for (int i = 0; i < 6; i++)
  {
    SPI_TxByte(cmd_arg[i]);
 8004fd6:	466b      	mov	r3, sp
 8004fd8:	5d18      	ldrb	r0, [r3, r4]
  for (int i = 0; i < 6; i++)
 8004fda:	3401      	adds	r4, #1
    SPI_TxByte(cmd_arg[i]);
 8004fdc:	f7ff ffa0 	bl	8004f20 <SPI_TxByte>
  for (int i = 0; i < 6; i++)
 8004fe0:	2c06      	cmp	r4, #6
 8004fe2:	d1f8      	bne.n	8004fd6 <SD_PowerOn+0x2a>
 8004fe4:	2480      	movs	r4, #128	; 0x80
 8004fe6:	01a4      	lsls	r4, r4, #6
  }
  
  /* Answer waiting*/
  while ((SPI_RxByte() != 0x01) && Count)
 8004fe8:	f7ff ffc2 	bl	8004f70 <SPI_RxByte>
 8004fec:	2801      	cmp	r0, #1
 8004fee:	d002      	beq.n	8004ff6 <SD_PowerOn+0x4a>
 8004ff0:	3c01      	subs	r4, #1
 8004ff2:	2c00      	cmp	r4, #0
 8004ff4:	d1f8      	bne.n	8004fe8 <SD_PowerOn+0x3c>
  {
    Count--;
  }
  
  DESELECT();
 8004ff6:	f7ff ffb1 	bl	8004f5c <DESELECT>
  SPI_TxByte(0XFF);
 8004ffa:	20ff      	movs	r0, #255	; 0xff
 8004ffc:	f7ff ff90 	bl	8004f20 <SPI_TxByte>
  
  PowerFlag = 1;
 8005000:	2201      	movs	r2, #1
 8005002:	4b01      	ldr	r3, [pc, #4]	; (8005008 <SD_PowerOn+0x5c>)
 8005004:	701a      	strb	r2, [r3, #0]
}
 8005006:	bd13      	pop	{r0, r1, r4, pc}
 8005008:	200002d1 	.word	0x200002d1

0800500c <SD_ReadyWait>:
  Timer2 = 50;
 800500c:	2332      	movs	r3, #50	; 0x32
{
 800500e:	b510      	push	{r4, lr}
  Timer2 = 50;
 8005010:	4c05      	ldr	r4, [pc, #20]	; (8005028 <SD_ReadyWait+0x1c>)
 8005012:	7023      	strb	r3, [r4, #0]
  SPI_RxByte();
 8005014:	f7ff ffac 	bl	8004f70 <SPI_RxByte>
    res = SPI_RxByte();
 8005018:	f7ff ffaa 	bl	8004f70 <SPI_RxByte>
  } while ((res != 0xFF) && Timer2);
 800501c:	28ff      	cmp	r0, #255	; 0xff
 800501e:	d002      	beq.n	8005026 <SD_ReadyWait+0x1a>
 8005020:	7823      	ldrb	r3, [r4, #0]
 8005022:	2b00      	cmp	r3, #0
 8005024:	d1f8      	bne.n	8005018 <SD_ReadyWait+0xc>
}
 8005026:	bd10      	pop	{r4, pc}
 8005028:	200019a8 	.word	0x200019a8

0800502c <SD_TxDataBlock>:
}

/*    */
#if _READONLY == 0
static bool SD_TxDataBlock(const BYTE *buff, BYTE token)
{
 800502c:	b570      	push	{r4, r5, r6, lr}
 800502e:	0005      	movs	r5, r0
 8005030:	000e      	movs	r6, r1
  uint8_t resp, wc;
  uint8_t i = 0;
    
  /* SD   */
  if (SD_ReadyWait() != 0xFF)
 8005032:	f7ff ffeb 	bl	800500c <SD_ReadyWait>
 8005036:	0003      	movs	r3, r0
    return FALSE;
 8005038:	2000      	movs	r0, #0
  if (SD_ReadyWait() != 0xFF)
 800503a:	2bff      	cmp	r3, #255	; 0xff
 800503c:	d12c      	bne.n	8005098 <SD_TxDataBlock+0x6c>
  
  /*   */
  SPI_TxByte(token);      
 800503e:	0030      	movs	r0, r6
 8005040:	f7ff ff6e 	bl	8004f20 <SPI_TxByte>
  
  /*    */
  if (token != 0xFD) 
 8005044:	2efd      	cmp	r6, #253	; 0xfd
 8005046:	d021      	beq.n	800508c <SD_TxDataBlock+0x60>
 8005048:	2380      	movs	r3, #128	; 0x80
 800504a:	009b      	lsls	r3, r3, #2
 800504c:	002c      	movs	r4, r5
 800504e:	18ed      	adds	r5, r5, r3
    wc = 0;
    
    /* 512    */
    do 
    { 
      SPI_TxByte(*buff++);
 8005050:	7820      	ldrb	r0, [r4, #0]
 8005052:	f7ff ff65 	bl	8004f20 <SPI_TxByte>
      SPI_TxByte(*buff++);
 8005056:	7860      	ldrb	r0, [r4, #1]
 8005058:	3402      	adds	r4, #2
 800505a:	f7ff ff61 	bl	8004f20 <SPI_TxByte>
    } while (--wc);
 800505e:	42ac      	cmp	r4, r5
 8005060:	d1f6      	bne.n	8005050 <SD_TxDataBlock+0x24>
    
    SPI_RxByte();       /* CRC  */
 8005062:	f7ff ff85 	bl	8004f70 <SPI_RxByte>
    SPI_RxByte();
 8005066:	2541      	movs	r5, #65	; 0x41
 8005068:	f7ff ff82 	bl	8004f70 <SPI_RxByte>
    while (i <= 64) 
    {			
      resp = SPI_RxByte();
      
      /*    */
      if ((resp & 0x1F) == 0x05) 
 800506c:	261f      	movs	r6, #31
      resp = SPI_RxByte();
 800506e:	f7ff ff7f 	bl	8004f70 <SPI_RxByte>
      if ((resp & 0x1F) == 0x05) 
 8005072:	0003      	movs	r3, r0
      resp = SPI_RxByte();
 8005074:	0004      	movs	r4, r0
      if ((resp & 0x1F) == 0x05) 
 8005076:	4033      	ands	r3, r6
 8005078:	2b05      	cmp	r3, #5
 800507a:	d003      	beq.n	8005084 <SD_TxDataBlock+0x58>
 800507c:	3d01      	subs	r5, #1
 800507e:	b2ed      	uxtb	r5, r5
    while (i <= 64) 
 8005080:	2d00      	cmp	r5, #0
 8005082:	d1f4      	bne.n	800506e <SD_TxDataBlock+0x42>
      
      i++;
    }
    
    /* SPI   Clear */
    while (SPI_RxByte() == 0);
 8005084:	f7ff ff74 	bl	8004f70 <SPI_RxByte>
 8005088:	2800      	cmp	r0, #0
 800508a:	d0fb      	beq.n	8005084 <SD_TxDataBlock+0x58>
  }
  
  if ((resp & 0x1F) == 0x05)
 800508c:	201f      	movs	r0, #31
 800508e:	4004      	ands	r4, r0
 8005090:	3c05      	subs	r4, #5
 8005092:	4260      	negs	r0, r4
 8005094:	4160      	adcs	r0, r4
    return FALSE;
 8005096:	b2c0      	uxtb	r0, r0
    return TRUE;
  else
    return FALSE;
}
 8005098:	bd70      	pop	{r4, r5, r6, pc}

0800509a <SD_SendCmd>:
#endif /* _READONLY */

/* CMD   */
static BYTE SD_SendCmd(BYTE cmd, DWORD arg) 
{
 800509a:	b570      	push	{r4, r5, r6, lr}
 800509c:	0005      	movs	r5, r0
 800509e:	000c      	movs	r4, r1
  uint8_t crc, res;
  
  /* SD  */
  if (SD_ReadyWait() != 0xFF)
 80050a0:	f7ff ffb4 	bl	800500c <SD_ReadyWait>
 80050a4:	0003      	movs	r3, r0
    return 0xFF;
 80050a6:	20ff      	movs	r0, #255	; 0xff
  if (SD_ReadyWait() != 0xFF)
 80050a8:	4283      	cmp	r3, r0
 80050aa:	d126      	bne.n	80050fa <SD_SendCmd+0x60>
  
  /*    */
  SPI_TxByte(cmd); 			/* Command */
 80050ac:	0028      	movs	r0, r5
 80050ae:	f7ff ff37 	bl	8004f20 <SPI_TxByte>
  SPI_TxByte((BYTE) (arg >> 24)); 	/* Argument[31..24] */
 80050b2:	0e20      	lsrs	r0, r4, #24
 80050b4:	f7ff ff34 	bl	8004f20 <SPI_TxByte>
  SPI_TxByte((BYTE) (arg >> 16)); 	/* Argument[23..16] */
 80050b8:	0c20      	lsrs	r0, r4, #16
 80050ba:	b2c0      	uxtb	r0, r0
 80050bc:	f7ff ff30 	bl	8004f20 <SPI_TxByte>
  SPI_TxByte((BYTE) (arg >> 8)); 	/* Argument[15..8] */
 80050c0:	0a20      	lsrs	r0, r4, #8
 80050c2:	b2c0      	uxtb	r0, r0
 80050c4:	f7ff ff2c 	bl	8004f20 <SPI_TxByte>
  SPI_TxByte((BYTE) arg); 		/* Argument[7..0] */
 80050c8:	b2e0      	uxtb	r0, r4
 80050ca:	f7ff ff29 	bl	8004f20 <SPI_TxByte>
  
  /*  CRC  */
  crc = 0;  
  if (cmd == CMD0)
    crc = 0x95; /* CRC for CMD0(0) */
 80050ce:	2095      	movs	r0, #149	; 0x95
  if (cmd == CMD0)
 80050d0:	2d40      	cmp	r5, #64	; 0x40
 80050d2:	d003      	beq.n	80050dc <SD_SendCmd+0x42>
  crc = 0;  
 80050d4:	2000      	movs	r0, #0
  
  if (cmd == CMD8)
 80050d6:	2d48      	cmp	r5, #72	; 0x48
 80050d8:	d100      	bne.n	80050dc <SD_SendCmd+0x42>
    crc = 0x87; /* CRC for CMD8(0x1AA) */
 80050da:	3087      	adds	r0, #135	; 0x87
  
  /* CRC  */
  SPI_TxByte(crc);
 80050dc:	f7ff ff20 	bl	8004f20 <SPI_TxByte>
  
  /* CMD12 Stop Reading       */
  if (cmd == CMD12)
 80050e0:	2d4c      	cmp	r5, #76	; 0x4c
 80050e2:	d101      	bne.n	80050e8 <SD_SendCmd+0x4e>
    SPI_RxByte();
 80050e4:	f7ff ff44 	bl	8004f70 <SPI_RxByte>
  crc = 0;  
 80050e8:	240a      	movs	r4, #10
  
  /* 10    . */
  uint8_t n = 10; 
  do
  {
    res = SPI_RxByte();
 80050ea:	f7ff ff41 	bl	8004f70 <SPI_RxByte>
  } while ((res & 0x80) && --n);
 80050ee:	0603      	lsls	r3, r0, #24
 80050f0:	d503      	bpl.n	80050fa <SD_SendCmd+0x60>
 80050f2:	3c01      	subs	r4, #1
 80050f4:	b2e4      	uxtb	r4, r4
 80050f6:	2c00      	cmp	r4, #0
 80050f8:	d1f7      	bne.n	80050ea <SD_SendCmd+0x50>
  
  return res;
}
 80050fa:	bd70      	pop	{r4, r5, r6, pc}

080050fc <SD_RxDataBlock>:
  Timer1 = 10;
 80050fc:	230a      	movs	r3, #10
{
 80050fe:	b570      	push	{r4, r5, r6, lr}
 8005100:	0004      	movs	r4, r0
 8005102:	000d      	movs	r5, r1
  Timer1 = 10;
 8005104:	4e0f      	ldr	r6, [pc, #60]	; (8005144 <SD_RxDataBlock+0x48>)
 8005106:	7033      	strb	r3, [r6, #0]
    token = SPI_RxByte();
 8005108:	f7ff ff32 	bl	8004f70 <SPI_RxByte>
 800510c:	0003      	movs	r3, r0
  } while((token == 0xFF) && Timer1);
 800510e:	28ff      	cmp	r0, #255	; 0xff
 8005110:	d104      	bne.n	800511c <SD_RxDataBlock+0x20>
 8005112:	7830      	ldrb	r0, [r6, #0]
 8005114:	b2c0      	uxtb	r0, r0
 8005116:	2800      	cmp	r0, #0
 8005118:	d1f6      	bne.n	8005108 <SD_RxDataBlock+0xc>
}
 800511a:	bd70      	pop	{r4, r5, r6, pc}
    return FALSE;
 800511c:	2000      	movs	r0, #0
  if(token != 0xFE)
 800511e:	2bfe      	cmp	r3, #254	; 0xfe
 8005120:	d1fb      	bne.n	800511a <SD_RxDataBlock+0x1e>
 8005122:	0026      	movs	r6, r4
  *buff = SPI_RxByte();
 8005124:	f7ff ff24 	bl	8004f70 <SPI_RxByte>
 8005128:	7030      	strb	r0, [r6, #0]
 800512a:	f7ff ff21 	bl	8004f70 <SPI_RxByte>
 800512e:	7070      	strb	r0, [r6, #1]
 8005130:	3602      	adds	r6, #2
  } while(btr -= 2);
 8005132:	1b73      	subs	r3, r6, r5
 8005134:	42a3      	cmp	r3, r4
 8005136:	d1f5      	bne.n	8005124 <SD_RxDataBlock+0x28>
  SPI_RxByte(); /* CRC  */
 8005138:	f7ff ff1a 	bl	8004f70 <SPI_RxByte>
  SPI_RxByte();
 800513c:	f7ff ff18 	bl	8004f70 <SPI_RxByte>
 8005140:	2001      	movs	r0, #1
 8005142:	e7ea      	b.n	800511a <SD_RxDataBlock+0x1e>
 8005144:	200019a9 	.word	0x200019a9

08005148 <SD_disk_initialize>:
  user_diskio.c  .
-----------------------------------------------------------------------*/

/* SD  */
DSTATUS SD_disk_initialize(BYTE drv) 
{
 8005148:	b5f7      	push	{r0, r1, r2, r4, r5, r6, r7, lr}
  uint8_t n, type, ocr[4];
  
  /*    */
  if(drv)
    return STA_NOINIT;  
 800514a:	2301      	movs	r3, #1
  if(drv)
 800514c:	2800      	cmp	r0, #0
 800514e:	d106      	bne.n	800515e <SD_disk_initialize+0x16>
  
  /* SD  */
  if(Stat & STA_NODISK)
 8005150:	2602      	movs	r6, #2
 8005152:	4d46      	ldr	r5, [pc, #280]	; (800526c <SD_disk_initialize+0x124>)
 8005154:	782c      	ldrb	r4, [r5, #0]
 8005156:	4034      	ands	r4, r6
 8005158:	d003      	beq.n	8005162 <SD_disk_initialize+0x1a>
  {
    /* Initialization failed */
    SD_PowerOff();
  }
  
  return Stat;
 800515a:	782b      	ldrb	r3, [r5, #0]
 800515c:	b2db      	uxtb	r3, r3
}
 800515e:	0018      	movs	r0, r3
 8005160:	bdfe      	pop	{r1, r2, r3, r4, r5, r6, r7, pc}
  SD_PowerOn();         
 8005162:	f7ff ff23 	bl	8004fac <SD_PowerOn>
  SELECT();             
 8005166:	f7ff feef 	bl	8004f48 <SELECT>
  if (SD_SendCmd(CMD0, 0) == 1) 
 800516a:	0021      	movs	r1, r4
 800516c:	2040      	movs	r0, #64	; 0x40
 800516e:	f7ff ff94 	bl	800509a <SD_SendCmd>
 8005172:	2801      	cmp	r0, #1
 8005174:	d16d      	bne.n	8005252 <SD_disk_initialize+0x10a>
    if (SD_SendCmd(CMD8, 0x1AA) == 1) 
 8005176:	21d5      	movs	r1, #213	; 0xd5
    Timer1 = 100;
 8005178:	2364      	movs	r3, #100	; 0x64
 800517a:	4f3d      	ldr	r7, [pc, #244]	; (8005270 <SD_disk_initialize+0x128>)
    if (SD_SendCmd(CMD8, 0x1AA) == 1) 
 800517c:	0049      	lsls	r1, r1, #1
 800517e:	3047      	adds	r0, #71	; 0x47
    Timer1 = 100;
 8005180:	703b      	strb	r3, [r7, #0]
    if (SD_SendCmd(CMD8, 0x1AA) == 1) 
 8005182:	f7ff ff8a 	bl	800509a <SD_SendCmd>
 8005186:	2801      	cmp	r0, #1
 8005188:	d140      	bne.n	800520c <SD_disk_initialize+0xc4>
        ocr[n] = SPI_RxByte();
 800518a:	f7ff fef1 	bl	8004f70 <SPI_RxByte>
 800518e:	ae01      	add	r6, sp, #4
 8005190:	55a0      	strb	r0, [r4, r6]
 8005192:	3401      	adds	r4, #1
      for (n = 0; n < 4; n++)
 8005194:	2c04      	cmp	r4, #4
 8005196:	d1f8      	bne.n	800518a <SD_disk_initialize+0x42>
      if (ocr[2] == 0x01 && ocr[3] == 0xAA) 
 8005198:	78b3      	ldrb	r3, [r6, #2]
 800519a:	2b01      	cmp	r3, #1
 800519c:	d159      	bne.n	8005252 <SD_disk_initialize+0x10a>
 800519e:	78f3      	ldrb	r3, [r6, #3]
 80051a0:	2baa      	cmp	r3, #170	; 0xaa
 80051a2:	d156      	bne.n	8005252 <SD_disk_initialize+0x10a>
          if (SD_SendCmd(CMD55, 0) <= 1 && SD_SendCmd(CMD41, 1UL << 30) == 0)
 80051a4:	2480      	movs	r4, #128	; 0x80
 80051a6:	05e4      	lsls	r4, r4, #23
 80051a8:	2100      	movs	r1, #0
 80051aa:	2077      	movs	r0, #119	; 0x77
 80051ac:	f7ff ff75 	bl	800509a <SD_SendCmd>
 80051b0:	2801      	cmp	r0, #1
 80051b2:	d924      	bls.n	80051fe <SD_disk_initialize+0xb6>
        } while (Timer1);
 80051b4:	783b      	ldrb	r3, [r7, #0]
 80051b6:	2b00      	cmp	r3, #0
 80051b8:	d1f6      	bne.n	80051a8 <SD_disk_initialize+0x60>
        if (Timer1 && SD_SendCmd(CMD58, 0) == 0) 
 80051ba:	783b      	ldrb	r3, [r7, #0]
 80051bc:	2b00      	cmp	r3, #0
 80051be:	d048      	beq.n	8005252 <SD_disk_initialize+0x10a>
 80051c0:	2100      	movs	r1, #0
 80051c2:	207a      	movs	r0, #122	; 0x7a
 80051c4:	f7ff ff69 	bl	800509a <SD_SendCmd>
 80051c8:	2800      	cmp	r0, #0
 80051ca:	d142      	bne.n	8005252 <SD_disk_initialize+0x10a>
 80051cc:	0004      	movs	r4, r0
            ocr[n] = SPI_RxByte();
 80051ce:	f7ff fecf 	bl	8004f70 <SPI_RxByte>
 80051d2:	5530      	strb	r0, [r6, r4]
 80051d4:	3401      	adds	r4, #1
          for (n = 0; n < 4; n++)
 80051d6:	2c04      	cmp	r4, #4
 80051d8:	d1f9      	bne.n	80051ce <SD_disk_initialize+0x86>
          type = (ocr[0] & 0x40) ? 6 : 2;
 80051da:	7833      	ldrb	r3, [r6, #0]
 80051dc:	2606      	movs	r6, #6
 80051de:	065b      	lsls	r3, r3, #25
 80051e0:	d400      	bmi.n	80051e4 <SD_disk_initialize+0x9c>
 80051e2:	3e04      	subs	r6, #4
  CardType = type;
 80051e4:	4b23      	ldr	r3, [pc, #140]	; (8005274 <SD_disk_initialize+0x12c>)
 80051e6:	701e      	strb	r6, [r3, #0]
  DESELECT();
 80051e8:	f7ff feb8 	bl	8004f5c <DESELECT>
  SPI_RxByte(); /* Idle   (Release DO) */
 80051ec:	f7ff fec0 	bl	8004f70 <SPI_RxByte>
  if (type) 
 80051f0:	2e00      	cmp	r6, #0
 80051f2:	d037      	beq.n	8005264 <SD_disk_initialize+0x11c>
    Stat &= ~STA_NOINIT; 
 80051f4:	2201      	movs	r2, #1
 80051f6:	782b      	ldrb	r3, [r5, #0]
 80051f8:	4393      	bics	r3, r2
 80051fa:	702b      	strb	r3, [r5, #0]
 80051fc:	e7ad      	b.n	800515a <SD_disk_initialize+0x12>
          if (SD_SendCmd(CMD55, 0) <= 1 && SD_SendCmd(CMD41, 1UL << 30) == 0)
 80051fe:	0021      	movs	r1, r4
 8005200:	2069      	movs	r0, #105	; 0x69
 8005202:	f7ff ff4a 	bl	800509a <SD_SendCmd>
 8005206:	2800      	cmp	r0, #0
 8005208:	d1d4      	bne.n	80051b4 <SD_disk_initialize+0x6c>
 800520a:	e7d6      	b.n	80051ba <SD_disk_initialize+0x72>
      type = (SD_SendCmd(CMD55, 0) <= 1 && SD_SendCmd(CMD41, 0) <= 1) ? 2 : 1; /* SDC : MMC */
 800520c:	0021      	movs	r1, r4
 800520e:	2077      	movs	r0, #119	; 0x77
 8005210:	f7ff ff43 	bl	800509a <SD_SendCmd>
 8005214:	2801      	cmp	r0, #1
 8005216:	d805      	bhi.n	8005224 <SD_disk_initialize+0xdc>
 8005218:	0021      	movs	r1, r4
 800521a:	2069      	movs	r0, #105	; 0x69
 800521c:	f7ff ff3d 	bl	800509a <SD_SendCmd>
 8005220:	2801      	cmp	r0, #1
 8005222:	d900      	bls.n	8005226 <SD_disk_initialize+0xde>
 8005224:	2601      	movs	r6, #1
          if (SD_SendCmd(CMD55, 0) <= 1 && SD_SendCmd(CMD41, 0) == 0)
 8005226:	2100      	movs	r1, #0
          if (SD_SendCmd(CMD1, 0) == 0)
 8005228:	2041      	movs	r0, #65	; 0x41
        if (type == 2) 
 800522a:	2e02      	cmp	r6, #2
 800522c:	d115      	bne.n	800525a <SD_disk_initialize+0x112>
          if (SD_SendCmd(CMD55, 0) <= 1 && SD_SendCmd(CMD41, 0) == 0)
 800522e:	2077      	movs	r0, #119	; 0x77
 8005230:	f7ff ff33 	bl	800509a <SD_SendCmd>
 8005234:	2801      	cmp	r0, #1
 8005236:	d90e      	bls.n	8005256 <SD_disk_initialize+0x10e>
      } while (Timer1);
 8005238:	783b      	ldrb	r3, [r7, #0]
 800523a:	2b00      	cmp	r3, #0
 800523c:	d1f3      	bne.n	8005226 <SD_disk_initialize+0xde>
      if (!Timer1 || SD_SendCmd(CMD16, 512) != 0) 
 800523e:	783b      	ldrb	r3, [r7, #0]
 8005240:	2b00      	cmp	r3, #0
 8005242:	d006      	beq.n	8005252 <SD_disk_initialize+0x10a>
 8005244:	2180      	movs	r1, #128	; 0x80
 8005246:	2050      	movs	r0, #80	; 0x50
 8005248:	0089      	lsls	r1, r1, #2
 800524a:	f7ff ff26 	bl	800509a <SD_SendCmd>
 800524e:	2800      	cmp	r0, #0
 8005250:	d0c8      	beq.n	80051e4 <SD_disk_initialize+0x9c>
        type = 0;
 8005252:	2600      	movs	r6, #0
 8005254:	e7c6      	b.n	80051e4 <SD_disk_initialize+0x9c>
          if (SD_SendCmd(CMD55, 0) <= 1 && SD_SendCmd(CMD41, 0) == 0)
 8005256:	2100      	movs	r1, #0
 8005258:	2069      	movs	r0, #105	; 0x69
 800525a:	f7ff ff1e 	bl	800509a <SD_SendCmd>
 800525e:	2800      	cmp	r0, #0
 8005260:	d1ea      	bne.n	8005238 <SD_disk_initialize+0xf0>
 8005262:	e7ec      	b.n	800523e <SD_disk_initialize+0xf6>
  PowerFlag = 0;
 8005264:	4b04      	ldr	r3, [pc, #16]	; (8005278 <SD_disk_initialize+0x130>)
 8005266:	701e      	strb	r6, [r3, #0]
 8005268:	e777      	b.n	800515a <SD_disk_initialize+0x12>
 800526a:	46c0      	nop			; (mov r8, r8)
 800526c:	20000008 	.word	0x20000008
 8005270:	200019a9 	.word	0x200019a9
 8005274:	200002d0 	.word	0x200002d0
 8005278:	200002d1 	.word	0x200002d1

0800527c <SD_disk_status>:

/*    */
DSTATUS SD_disk_status(BYTE drv) 
{
  if (drv)
    return STA_NOINIT; 
 800527c:	2301      	movs	r3, #1
  if (drv)
 800527e:	2800      	cmp	r0, #0
 8005280:	d102      	bne.n	8005288 <SD_disk_status+0xc>
  
  return Stat;
 8005282:	4b02      	ldr	r3, [pc, #8]	; (800528c <SD_disk_status+0x10>)
 8005284:	781b      	ldrb	r3, [r3, #0]
 8005286:	b2db      	uxtb	r3, r3
}
 8005288:	0018      	movs	r0, r3
 800528a:	4770      	bx	lr
 800528c:	20000008 	.word	0x20000008

08005290 <SD_disk_read>:

/*   */
DRESULT SD_disk_read(BYTE pdrv, BYTE* buff, DWORD sector, UINT count) 
{
 8005290:	b5f8      	push	{r3, r4, r5, r6, r7, lr}
 8005292:	0007      	movs	r7, r0
 8005294:	000d      	movs	r5, r1
 8005296:	0016      	movs	r6, r2
 8005298:	001c      	movs	r4, r3
  if (pdrv || !count)
    return RES_PARERR;
 800529a:	2004      	movs	r0, #4
  if (pdrv || !count)
 800529c:	2f00      	cmp	r7, #0
 800529e:	d123      	bne.n	80052e8 <SD_disk_read+0x58>
 80052a0:	2b00      	cmp	r3, #0
 80052a2:	d021      	beq.n	80052e8 <SD_disk_read+0x58>
  
  if (Stat & STA_NOINIT)
 80052a4:	4b1d      	ldr	r3, [pc, #116]	; (800531c <SD_disk_read+0x8c>)
    return RES_NOTRDY;
 80052a6:	3801      	subs	r0, #1
  if (Stat & STA_NOINIT)
 80052a8:	781b      	ldrb	r3, [r3, #0]
 80052aa:	07db      	lsls	r3, r3, #31
 80052ac:	d41c      	bmi.n	80052e8 <SD_disk_read+0x58>
  
  if (!(CardType & 4))
 80052ae:	4b1c      	ldr	r3, [pc, #112]	; (8005320 <SD_disk_read+0x90>)
 80052b0:	781b      	ldrb	r3, [r3, #0]
 80052b2:	075b      	lsls	r3, r3, #29
 80052b4:	d400      	bmi.n	80052b8 <SD_disk_read+0x28>
    sector *= 512;      /*  sector Byte addressing   */
 80052b6:	0256      	lsls	r6, r2, #9
  
  SELECT();
 80052b8:	f7ff fe46 	bl	8004f48 <SELECT>
  
  if (count == 1) 
  { 
    /*    */
    if ((SD_SendCmd(CMD17, sector) == 0) && SD_RxDataBlock(buff, 512))
 80052bc:	0031      	movs	r1, r6
  if (count == 1) 
 80052be:	2c01      	cmp	r4, #1
 80052c0:	d113      	bne.n	80052ea <SD_disk_read+0x5a>
    if ((SD_SendCmd(CMD17, sector) == 0) && SD_RxDataBlock(buff, 512))
 80052c2:	2051      	movs	r0, #81	; 0x51
 80052c4:	f7ff fee9 	bl	800509a <SD_SendCmd>
 80052c8:	2800      	cmp	r0, #0
 80052ca:	d106      	bne.n	80052da <SD_disk_read+0x4a>
 80052cc:	2180      	movs	r1, #128	; 0x80
 80052ce:	0028      	movs	r0, r5
 80052d0:	0089      	lsls	r1, r1, #2
 80052d2:	f7ff ff13 	bl	80050fc <SD_RxDataBlock>
 80052d6:	4244      	negs	r4, r0
 80052d8:	4144      	adcs	r4, r0
      /* STOP_TRANSMISSION,     ,    */
      SD_SendCmd(CMD12, 0); 
    }
  }
  
  DESELECT();
 80052da:	f7ff fe3f 	bl	8004f5c <DESELECT>
  SPI_RxByte(); /* Idle (Release DO) */
 80052de:	f7ff fe47 	bl	8004f70 <SPI_RxByte>
  
  return count ? RES_ERROR : RES_OK;
 80052e2:	1e60      	subs	r0, r4, #1
 80052e4:	4184      	sbcs	r4, r0
 80052e6:	b2e0      	uxtb	r0, r4
}
 80052e8:	bdf8      	pop	{r3, r4, r5, r6, r7, pc}
    if (SD_SendCmd(CMD18, sector) == 0) 
 80052ea:	2052      	movs	r0, #82	; 0x52
 80052ec:	f7ff fed5 	bl	800509a <SD_SendCmd>
 80052f0:	2800      	cmp	r0, #0
 80052f2:	d1f2      	bne.n	80052da <SD_disk_read+0x4a>
        if (!SD_RxDataBlock(buff, 512))
 80052f4:	2680      	movs	r6, #128	; 0x80
 80052f6:	00b6      	lsls	r6, r6, #2
 80052f8:	0031      	movs	r1, r6
 80052fa:	0028      	movs	r0, r5
 80052fc:	f7ff fefe 	bl	80050fc <SD_RxDataBlock>
 8005300:	2800      	cmp	r0, #0
 8005302:	d005      	beq.n	8005310 <SD_disk_read+0x80>
        buff += 512;
 8005304:	2380      	movs	r3, #128	; 0x80
      } while (--count);
 8005306:	3c01      	subs	r4, #1
        buff += 512;
 8005308:	009b      	lsls	r3, r3, #2
 800530a:	18ed      	adds	r5, r5, r3
      } while (--count);
 800530c:	2c00      	cmp	r4, #0
 800530e:	d1f3      	bne.n	80052f8 <SD_disk_read+0x68>
      SD_SendCmd(CMD12, 0); 
 8005310:	2100      	movs	r1, #0
 8005312:	204c      	movs	r0, #76	; 0x4c
 8005314:	f7ff fec1 	bl	800509a <SD_SendCmd>
 8005318:	e7df      	b.n	80052da <SD_disk_read+0x4a>
 800531a:	46c0      	nop			; (mov r8, r8)
 800531c:	20000008 	.word	0x20000008
 8005320:	200002d0 	.word	0x200002d0

08005324 <SD_disk_write>:

/*   */
#if _READONLY == 0
DRESULT SD_disk_write(BYTE pdrv, const BYTE* buff, DWORD sector, UINT count) 
{
 8005324:	b5f8      	push	{r3, r4, r5, r6, r7, lr}
 8005326:	0007      	movs	r7, r0
 8005328:	000d      	movs	r5, r1
 800532a:	0016      	movs	r6, r2
 800532c:	001c      	movs	r4, r3
  if (pdrv || !count)
    return RES_PARERR;
 800532e:	2004      	movs	r0, #4
  if (pdrv || !count)
 8005330:	2f00      	cmp	r7, #0
 8005332:	d127      	bne.n	8005384 <SD_disk_write+0x60>
 8005334:	2b00      	cmp	r3, #0
 8005336:	d025      	beq.n	8005384 <SD_disk_write+0x60>
  
  if (Stat & STA_NOINIT)
 8005338:	4b25      	ldr	r3, [pc, #148]	; (80053d0 <SD_disk_write+0xac>)
    return RES_NOTRDY;
 800533a:	3801      	subs	r0, #1
  if (Stat & STA_NOINIT)
 800533c:	781a      	ldrb	r2, [r3, #0]
 800533e:	07d2      	lsls	r2, r2, #31
 8005340:	d420      	bmi.n	8005384 <SD_disk_write+0x60>
  
  if (Stat & STA_PROTECT)
 8005342:	781a      	ldrb	r2, [r3, #0]
 8005344:	2304      	movs	r3, #4
    return RES_WRPRT;
 8005346:	3801      	subs	r0, #1
  if (Stat & STA_PROTECT)
 8005348:	421a      	tst	r2, r3
 800534a:	d11b      	bne.n	8005384 <SD_disk_write+0x60>
  
  if (!(CardType & 4))
 800534c:	4f21      	ldr	r7, [pc, #132]	; (80053d4 <SD_disk_write+0xb0>)
 800534e:	783a      	ldrb	r2, [r7, #0]
 8005350:	421a      	tst	r2, r3
 8005352:	d100      	bne.n	8005356 <SD_disk_write+0x32>
    sector *= 512; /*  sector Byte addressing   */
 8005354:	0276      	lsls	r6, r6, #9
  
  SELECT();
 8005356:	f7ff fdf7 	bl	8004f48 <SELECT>
  
  if (count == 1) 
 800535a:	2c01      	cmp	r4, #1
 800535c:	d113      	bne.n	8005386 <SD_disk_write+0x62>
  { 
    /*    */
    if ((SD_SendCmd(CMD24, sector) == 0) && SD_TxDataBlock(buff, 0xFE))
 800535e:	0031      	movs	r1, r6
 8005360:	2058      	movs	r0, #88	; 0x58
 8005362:	f7ff fe9a 	bl	800509a <SD_SendCmd>
 8005366:	2800      	cmp	r0, #0
 8005368:	d130      	bne.n	80053cc <SD_disk_write+0xa8>
 800536a:	21fe      	movs	r1, #254	; 0xfe
 800536c:	0028      	movs	r0, r5
 800536e:	f7ff fe5d 	bl	800502c <SD_TxDataBlock>
 8005372:	4244      	negs	r4, r0
 8005374:	4144      	adcs	r4, r0
        count = 1;
      }
    }
  }
  
  DESELECT();
 8005376:	f7ff fdf1 	bl	8004f5c <DESELECT>
  SPI_RxByte();
 800537a:	f7ff fdf9 	bl	8004f70 <SPI_RxByte>
  
  return count ? RES_ERROR : RES_OK;
 800537e:	1e60      	subs	r0, r4, #1
 8005380:	4184      	sbcs	r4, r0
 8005382:	b2e0      	uxtb	r0, r4
}
 8005384:	bdf8      	pop	{r3, r4, r5, r6, r7, pc}
    if (CardType & 2) 
 8005386:	783b      	ldrb	r3, [r7, #0]
 8005388:	079b      	lsls	r3, r3, #30
 800538a:	d507      	bpl.n	800539c <SD_disk_write+0x78>
      SD_SendCmd(CMD55, 0);
 800538c:	2100      	movs	r1, #0
 800538e:	2077      	movs	r0, #119	; 0x77
 8005390:	f7ff fe83 	bl	800509a <SD_SendCmd>
      SD_SendCmd(CMD23, count); /* ACMD23 */
 8005394:	0021      	movs	r1, r4
 8005396:	2057      	movs	r0, #87	; 0x57
 8005398:	f7ff fe7f 	bl	800509a <SD_SendCmd>
    if (SD_SendCmd(CMD25, sector) == 0) 
 800539c:	0031      	movs	r1, r6
 800539e:	2059      	movs	r0, #89	; 0x59
 80053a0:	f7ff fe7b 	bl	800509a <SD_SendCmd>
 80053a4:	2800      	cmp	r0, #0
 80053a6:	d1e6      	bne.n	8005376 <SD_disk_write+0x52>
        if(!SD_TxDataBlock(buff, 0xFC))
 80053a8:	21fc      	movs	r1, #252	; 0xfc
 80053aa:	0028      	movs	r0, r5
 80053ac:	f7ff fe3e 	bl	800502c <SD_TxDataBlock>
 80053b0:	2800      	cmp	r0, #0
 80053b2:	d005      	beq.n	80053c0 <SD_disk_write+0x9c>
        buff += 512;
 80053b4:	2380      	movs	r3, #128	; 0x80
      } while (--count);
 80053b6:	3c01      	subs	r4, #1
        buff += 512;
 80053b8:	009b      	lsls	r3, r3, #2
 80053ba:	18ed      	adds	r5, r5, r3
      } while (--count);
 80053bc:	2c00      	cmp	r4, #0
 80053be:	d1f3      	bne.n	80053a8 <SD_disk_write+0x84>
      if(!SD_TxDataBlock(0, 0xFD))
 80053c0:	21fd      	movs	r1, #253	; 0xfd
 80053c2:	2000      	movs	r0, #0
 80053c4:	f7ff fe32 	bl	800502c <SD_TxDataBlock>
 80053c8:	2800      	cmp	r0, #0
 80053ca:	d1d4      	bne.n	8005376 <SD_disk_write+0x52>
        count = 1;
 80053cc:	2401      	movs	r4, #1
 80053ce:	e7d2      	b.n	8005376 <SD_disk_write+0x52>
 80053d0:	20000008 	.word	0x20000008
 80053d4:	200002d0 	.word	0x200002d0

080053d8 <SD_disk_ioctl>:
#endif /* _READONLY */

/*   */
DRESULT SD_disk_ioctl(BYTE drv, BYTE ctrl, void *buff) 
{
 80053d8:	b5f0      	push	{r4, r5, r6, r7, lr}
 80053da:	0006      	movs	r6, r0
 80053dc:	b085      	sub	sp, #20
 80053de:	000f      	movs	r7, r1
 80053e0:	0015      	movs	r5, r2
  DRESULT res;
  BYTE n, csd[16], *ptr = buff;
  WORD csize;
  
  if (drv)
    return RES_PARERR;
 80053e2:	2404      	movs	r4, #4
  if (drv)
 80053e4:	2800      	cmp	r0, #0
 80053e6:	d108      	bne.n	80053fa <SD_disk_ioctl+0x22>
  
  res = RES_ERROR;
  
  if (ctrl == CTRL_POWER) 
 80053e8:	2905      	cmp	r1, #5
 80053ea:	d118      	bne.n	800541e <SD_disk_ioctl+0x46>
  {
    switch (*ptr) 
 80053ec:	7813      	ldrb	r3, [r2, #0]
 80053ee:	2b01      	cmp	r3, #1
 80053f0:	d00d      	beq.n	800540e <SD_disk_ioctl+0x36>
 80053f2:	2b00      	cmp	r3, #0
 80053f4:	d004      	beq.n	8005400 <SD_disk_ioctl+0x28>
 80053f6:	2b02      	cmp	r3, #2
 80053f8:	d00d      	beq.n	8005416 <SD_disk_ioctl+0x3e>
    DESELECT();
    SPI_RxByte();
  }
  
  return res;
}
 80053fa:	0020      	movs	r0, r4
 80053fc:	b005      	add	sp, #20
 80053fe:	bdf0      	pop	{r4, r5, r6, r7, pc}
  return PowerFlag;
 8005400:	4a46      	ldr	r2, [pc, #280]	; (800551c <SD_disk_ioctl+0x144>)
      res = RES_OK;
 8005402:	001c      	movs	r4, r3
      if (SD_CheckPower())
 8005404:	7811      	ldrb	r1, [r2, #0]
 8005406:	2900      	cmp	r1, #0
 8005408:	d0f7      	beq.n	80053fa <SD_disk_ioctl+0x22>
  PowerFlag = 0;
 800540a:	7013      	strb	r3, [r2, #0]
 800540c:	e7f5      	b.n	80053fa <SD_disk_ioctl+0x22>
      SD_PowerOn();             /* Power On */
 800540e:	f7ff fdcd 	bl	8004fac <SD_PowerOn>
      res = RES_OK;             /* Power Check */
 8005412:	0034      	movs	r4, r6
      break;
 8005414:	e7f1      	b.n	80053fa <SD_disk_ioctl+0x22>
  return PowerFlag;
 8005416:	4b41      	ldr	r3, [pc, #260]	; (800551c <SD_disk_ioctl+0x144>)
      *(ptr + 1) = (BYTE) SD_CheckPower();
 8005418:	781b      	ldrb	r3, [r3, #0]
 800541a:	7053      	strb	r3, [r2, #1]
 800541c:	e7f9      	b.n	8005412 <SD_disk_ioctl+0x3a>
    if (Stat & STA_NOINIT)
 800541e:	4b40      	ldr	r3, [pc, #256]	; (8005520 <SD_disk_ioctl+0x148>)
      return RES_NOTRDY;
 8005420:	2403      	movs	r4, #3
    if (Stat & STA_NOINIT)
 8005422:	781b      	ldrb	r3, [r3, #0]
 8005424:	07db      	lsls	r3, r3, #31
 8005426:	d4e8      	bmi.n	80053fa <SD_disk_ioctl+0x22>
    SELECT();
 8005428:	f7ff fd8e 	bl	8004f48 <SELECT>
    switch (ctrl) 
 800542c:	2f0d      	cmp	r7, #13
 800542e:	d86b      	bhi.n	8005508 <SD_disk_ioctl+0x130>
 8005430:	0038      	movs	r0, r7
 8005432:	f7fa fe7b 	bl	800012c <__gnu_thumb1_case_uqi>
 8005436:	074b      	.short	0x074b
 8005438:	69696946 	.word	0x69696946
 800543c:	69696969 	.word	0x69696969
 8005440:	63605369 	.word	0x63605369
      if ((SD_SendCmd(CMD9, 0) == 0) && SD_RxDataBlock(csd, 16)) 
 8005444:	2100      	movs	r1, #0
 8005446:	2049      	movs	r0, #73	; 0x49
 8005448:	f7ff fe27 	bl	800509a <SD_SendCmd>
 800544c:	1e04      	subs	r4, r0, #0
 800544e:	d005      	beq.n	800545c <SD_disk_ioctl+0x84>
  res = RES_ERROR;
 8005450:	2401      	movs	r4, #1
    DESELECT();
 8005452:	f7ff fd83 	bl	8004f5c <DESELECT>
    SPI_RxByte();
 8005456:	f7ff fd8b 	bl	8004f70 <SPI_RxByte>
 800545a:	e7ce      	b.n	80053fa <SD_disk_ioctl+0x22>
      if ((SD_SendCmd(CMD9, 0) == 0) && SD_RxDataBlock(csd, 16)) 
 800545c:	2110      	movs	r1, #16
 800545e:	4668      	mov	r0, sp
 8005460:	f7ff fe4c 	bl	80050fc <SD_RxDataBlock>
 8005464:	2800      	cmp	r0, #0
 8005466:	d0f3      	beq.n	8005450 <SD_disk_ioctl+0x78>
        if ((csd[0] >> 6) == 1) 
 8005468:	466b      	mov	r3, sp
 800546a:	7819      	ldrb	r1, [r3, #0]
 800546c:	7a5a      	ldrb	r2, [r3, #9]
 800546e:	0989      	lsrs	r1, r1, #6
 8005470:	7a1b      	ldrb	r3, [r3, #8]
 8005472:	2901      	cmp	r1, #1
 8005474:	d106      	bne.n	8005484 <SD_disk_ioctl+0xac>
          csize = csd[9] + ((WORD) csd[8] << 8) + 1;
 8005476:	3201      	adds	r2, #1
 8005478:	021b      	lsls	r3, r3, #8
 800547a:	18d3      	adds	r3, r2, r3
          *(DWORD*) buff = (DWORD) csize << 10;
 800547c:	b29b      	uxth	r3, r3
 800547e:	029b      	lsls	r3, r3, #10
          *(DWORD*) buff = (DWORD) csize << (n - 9);
 8005480:	602b      	str	r3, [r5, #0]
 8005482:	e7e6      	b.n	8005452 <SD_disk_ioctl+0x7a>
          csize = (csd[8] >> 6) + ((WORD) csd[7] << 2) + ((WORD) (csd[6] & 3) << 10) + 1;
 8005484:	4669      	mov	r1, sp
 8005486:	79c9      	ldrb	r1, [r1, #7]
 8005488:	099b      	lsrs	r3, r3, #6
 800548a:	0089      	lsls	r1, r1, #2
 800548c:	185b      	adds	r3, r3, r1
 800548e:	4669      	mov	r1, sp
 8005490:	20c0      	movs	r0, #192	; 0xc0
 8005492:	7989      	ldrb	r1, [r1, #6]
 8005494:	0100      	lsls	r0, r0, #4
 8005496:	0289      	lsls	r1, r1, #10
 8005498:	4001      	ands	r1, r0
 800549a:	3301      	adds	r3, #1
 800549c:	185b      	adds	r3, r3, r1
          n = (csd[5] & 15) + ((csd[10] & 128) >> 7) + ((csd[9] & 3) << 1) + 2;
 800549e:	4669      	mov	r1, sp
 80054a0:	200f      	movs	r0, #15
 80054a2:	7949      	ldrb	r1, [r1, #5]
 80054a4:	0052      	lsls	r2, r2, #1
 80054a6:	4001      	ands	r1, r0
 80054a8:	4668      	mov	r0, sp
 80054aa:	7a80      	ldrb	r0, [r0, #10]
          *(DWORD*) buff = (DWORD) csize << (n - 9);
 80054ac:	b29b      	uxth	r3, r3
          n = (csd[5] & 15) + ((csd[10] & 128) >> 7) + ((csd[9] & 3) << 1) + 2;
 80054ae:	09c0      	lsrs	r0, r0, #7
 80054b0:	1809      	adds	r1, r1, r0
 80054b2:	2006      	movs	r0, #6
 80054b4:	3102      	adds	r1, #2
 80054b6:	4002      	ands	r2, r0
 80054b8:	188a      	adds	r2, r1, r2
          *(DWORD*) buff = (DWORD) csize << (n - 9);
 80054ba:	b2d2      	uxtb	r2, r2
 80054bc:	3a09      	subs	r2, #9
 80054be:	4093      	lsls	r3, r2
 80054c0:	e7de      	b.n	8005480 <SD_disk_ioctl+0xa8>
      *(WORD*) buff = 512;
 80054c2:	2380      	movs	r3, #128	; 0x80
 80054c4:	009b      	lsls	r3, r3, #2
 80054c6:	802b      	strh	r3, [r5, #0]
      res = RES_OK;
 80054c8:	2400      	movs	r4, #0
      break;
 80054ca:	e7c2      	b.n	8005452 <SD_disk_ioctl+0x7a>
      if (SD_ReadyWait() == 0xFF)
 80054cc:	f7ff fd9e 	bl	800500c <SD_ReadyWait>
 80054d0:	38ff      	subs	r0, #255	; 0xff
 80054d2:	0004      	movs	r4, r0
 80054d4:	1e60      	subs	r0, r4, #1
 80054d6:	4184      	sbcs	r4, r0
  res = RES_ERROR;
 80054d8:	b2e4      	uxtb	r4, r4
 80054da:	e7ba      	b.n	8005452 <SD_disk_ioctl+0x7a>
      if (SD_SendCmd(CMD9, 0) == 0 && SD_RxDataBlock(ptr, 16))
 80054dc:	2100      	movs	r1, #0
 80054de:	2049      	movs	r0, #73	; 0x49
 80054e0:	f7ff fddb 	bl	800509a <SD_SendCmd>
 80054e4:	2800      	cmp	r0, #0
 80054e6:	d1b3      	bne.n	8005450 <SD_disk_ioctl+0x78>
 80054e8:	2110      	movs	r1, #16
 80054ea:	0028      	movs	r0, r5
 80054ec:	f7ff fe06 	bl	80050fc <SD_RxDataBlock>
 80054f0:	4244      	negs	r4, r0
 80054f2:	4144      	adcs	r4, r0
 80054f4:	e7f0      	b.n	80054d8 <SD_disk_ioctl+0x100>
      if (SD_SendCmd(CMD10, 0) == 0 && SD_RxDataBlock(ptr, 16))
 80054f6:	2100      	movs	r1, #0
 80054f8:	204a      	movs	r0, #74	; 0x4a
 80054fa:	e7f1      	b.n	80054e0 <SD_disk_ioctl+0x108>
      if (SD_SendCmd(CMD58, 0) == 0) 
 80054fc:	2100      	movs	r1, #0
 80054fe:	207a      	movs	r0, #122	; 0x7a
 8005500:	f7ff fdcb 	bl	800509a <SD_SendCmd>
 8005504:	2800      	cmp	r0, #0
 8005506:	d001      	beq.n	800550c <SD_disk_ioctl+0x134>
      res = RES_PARERR;
 8005508:	2404      	movs	r4, #4
 800550a:	e7a2      	b.n	8005452 <SD_disk_ioctl+0x7a>
 800550c:	1d2c      	adds	r4, r5, #4
          *ptr++ = SPI_RxByte();
 800550e:	f7ff fd2f 	bl	8004f70 <SPI_RxByte>
 8005512:	7028      	strb	r0, [r5, #0]
 8005514:	3501      	adds	r5, #1
        for (n = 0; n < 4; n++)
 8005516:	42a5      	cmp	r5, r4
 8005518:	d1f9      	bne.n	800550e <SD_disk_ioctl+0x136>
 800551a:	e7f5      	b.n	8005508 <SD_disk_ioctl+0x130>
 800551c:	200002d1 	.word	0x200002d1
 8005520:	20000008 	.word	0x20000008

08005524 <send_uart>:
volatile int bp = 0;                                      //number of times button has been pressed
char str[sizeof(uint32_t) * 10 + sizeof(char) * (9 + 2)]; //string var for sending to usart

/* to send the data to the uart */
void send_uart(char *string)
{
 8005524:	b510      	push	{r4, lr}
 8005526:	0004      	movs	r4, r0
  uint8_t len = strlen(string);
 8005528:	f7fa fdee 	bl	8000108 <strlen>
  HAL_UART_Transmit(&huart1, (uint8_t *)string, len, 2000); // transmit in blocking mode
 800552c:	23fa      	movs	r3, #250	; 0xfa
 800552e:	b2c2      	uxtb	r2, r0
 8005530:	00db      	lsls	r3, r3, #3
 8005532:	0021      	movs	r1, r4
 8005534:	4801      	ldr	r0, [pc, #4]	; (800553c <send_uart+0x18>)
 8005536:	f7fd fa25 	bl	8002984 <HAL_UART_Transmit>
}
 800553a:	bd10      	pop	{r4, pc}
 800553c:	20000f90 	.word	0x20000f90

08005540 <bufclear>:
  return i;
}

void bufclear(void) // clear buffer
{
  for (int i = 0; i < 1024; i++)
 8005540:	2300      	movs	r3, #0
 8005542:	2280      	movs	r2, #128	; 0x80
  {
    buffer[i] = '\0';
 8005544:	0018      	movs	r0, r3
{
 8005546:	b510      	push	{r4, lr}
    buffer[i] = '\0';
 8005548:	4c03      	ldr	r4, [pc, #12]	; (8005558 <bufclear+0x18>)
  for (int i = 0; i < 1024; i++)
 800554a:	00d2      	lsls	r2, r2, #3
    buffer[i] = '\0';
 800554c:	1919      	adds	r1, r3, r4
  for (int i = 0; i < 1024; i++)
 800554e:	3301      	adds	r3, #1
    buffer[i] = '\0';
 8005550:	7008      	strb	r0, [r1, #0]
  for (int i = 0; i < 1024; i++)
 8005552:	4293      	cmp	r3, r2
 8005554:	d1fa      	bne.n	800554c <bufclear+0xc>
  }
}
 8005556:	bd10      	pop	{r4, pc}
 8005558:	20001010 	.word	0x20001010

0800555c <SystemClock_Config>:
/**
  * @brief System Clock Configuration
  * @retval None
  */
void SystemClock_Config(void)
{
 800555c:	b530      	push	{r4, r5, lr}
  RCC_OscInitTypeDef RCC_OscInitStruct = {0};
  RCC_ClkInitTypeDef RCC_ClkInitStruct = {0};
 800555e:	2410      	movs	r4, #16
{
 8005560:	b097      	sub	sp, #92	; 0x5c
  RCC_OscInitTypeDef RCC_OscInitStruct = {0};
 8005562:	2230      	movs	r2, #48	; 0x30
 8005564:	2100      	movs	r1, #0
 8005566:	a80a      	add	r0, sp, #40	; 0x28
 8005568:	f000 fc21 	bl	8005dae <memset>
  RCC_ClkInitTypeDef RCC_ClkInitStruct = {0};
 800556c:	0022      	movs	r2, r4
 800556e:	2100      	movs	r1, #0
 8005570:	a801      	add	r0, sp, #4
 8005572:	f000 fc1c 	bl	8005dae <memset>
  RCC_PeriphCLKInitTypeDef PeriphClkInit = {0};
 8005576:	2214      	movs	r2, #20
 8005578:	2100      	movs	r1, #0
 800557a:	a805      	add	r0, sp, #20
 800557c:	f000 fc17 	bl	8005dae <memset>

  /** Initializes the CPU, AHB and APB busses clocks
  */
  RCC_OscInitStruct.OscillatorType = RCC_OSCILLATORTYPE_HSI|RCC_OSCILLATORTYPE_HSI14;
 8005580:	2312      	movs	r3, #18
 8005582:	930a      	str	r3, [sp, #40]	; 0x28
  RCC_OscInitStruct.HSI14State = RCC_HSI14_ON;
  RCC_OscInitStruct.HSICalibrationValue = RCC_HSICALIBRATION_DEFAULT;
  RCC_OscInitStruct.HSI14CalibrationValue = 16;
  RCC_OscInitStruct.PLL.PLLState = RCC_PLL_ON;
  RCC_OscInitStruct.PLL.PLLSource = RCC_PLLSOURCE_HSI;
  RCC_OscInitStruct.PLL.PLLMUL = RCC_PLL_MUL6;
 8005584:	2380      	movs	r3, #128	; 0x80
  RCC_OscInitStruct.HSIState = RCC_HSI_ON;
 8005586:	2501      	movs	r5, #1
  RCC_OscInitStruct.HSICalibrationValue = RCC_HSICALIBRATION_DEFAULT;
 8005588:	940e      	str	r4, [sp, #56]	; 0x38
  RCC_OscInitStruct.HSI14CalibrationValue = 16;
 800558a:	9410      	str	r4, [sp, #64]	; 0x40
  RCC_OscInitStruct.PLL.PLLMUL = RCC_PLL_MUL6;
 800558c:	035b      	lsls	r3, r3, #13
  RCC_OscInitStruct.PLL.PLLState = RCC_PLL_ON;
 800558e:	3c0e      	subs	r4, #14
  RCC_OscInitStruct.PLL.PREDIV = RCC_PREDIV_DIV1;
  if (HAL_RCC_OscConfig(&RCC_OscInitStruct) != HAL_OK)
 8005590:	a80a      	add	r0, sp, #40	; 0x28
  RCC_OscInitStruct.PLL.PLLState = RCC_PLL_ON;
 8005592:	9412      	str	r4, [sp, #72]	; 0x48
  RCC_OscInitStruct.PLL.PLLMUL = RCC_PLL_MUL6;
 8005594:	9314      	str	r3, [sp, #80]	; 0x50
  RCC_OscInitStruct.HSIState = RCC_HSI_ON;
 8005596:	950d      	str	r5, [sp, #52]	; 0x34
  RCC_OscInitStruct.HSI14State = RCC_HSI14_ON;
 8005598:	950f      	str	r5, [sp, #60]	; 0x3c
  if (HAL_RCC_OscConfig(&RCC_OscInitStruct) != HAL_OK)
 800559a:	f7fc fa63 	bl	8001a64 <HAL_RCC_OscConfig>
  }
  /** Initializes the CPU, AHB and APB busses clocks
  */
  RCC_ClkInitStruct.ClockType = RCC_CLOCKTYPE_HCLK|RCC_CLOCKTYPE_SYSCLK
                              |RCC_CLOCKTYPE_PCLK1;
  RCC_ClkInitStruct.SYSCLKSource = RCC_SYSCLKSOURCE_PLLCLK;
 800559e:	9402      	str	r4, [sp, #8]
  RCC_ClkInitStruct.AHBCLKDivider = RCC_SYSCLK_DIV1;
 80055a0:	2400      	movs	r4, #0
  RCC_ClkInitStruct.ClockType = RCC_CLOCKTYPE_HCLK|RCC_CLOCKTYPE_SYSCLK
 80055a2:	2307      	movs	r3, #7
  RCC_ClkInitStruct.APB1CLKDivider = RCC_HCLK_DIV1;

  if (HAL_RCC_ClockConfig(&RCC_ClkInitStruct, FLASH_LATENCY_0) != HAL_OK)
 80055a4:	0021      	movs	r1, r4
 80055a6:	a801      	add	r0, sp, #4
  RCC_ClkInitStruct.ClockType = RCC_CLOCKTYPE_HCLK|RCC_CLOCKTYPE_SYSCLK
 80055a8:	9301      	str	r3, [sp, #4]
  RCC_ClkInitStruct.AHBCLKDivider = RCC_SYSCLK_DIV1;
 80055aa:	9403      	str	r4, [sp, #12]
  RCC_ClkInitStruct.APB1CLKDivider = RCC_HCLK_DIV1;
 80055ac:	9404      	str	r4, [sp, #16]
  if (HAL_RCC_ClockConfig(&RCC_ClkInitStruct, FLASH_LATENCY_0) != HAL_OK)
 80055ae:	f7fc fc8d 	bl	8001ecc <HAL_RCC_ClockConfig>
  {
    Error_Handler();
  }
  PeriphClkInit.PeriphClockSelection = RCC_PERIPHCLK_USART1;
  PeriphClkInit.Usart1ClockSelection = RCC_USART1CLKSOURCE_PCLK1;
  if (HAL_RCCEx_PeriphCLKConfig(&PeriphClkInit) != HAL_OK)
 80055b2:	a805      	add	r0, sp, #20
  PeriphClkInit.PeriphClockSelection = RCC_PERIPHCLK_USART1;
 80055b4:	9505      	str	r5, [sp, #20]
  PeriphClkInit.Usart1ClockSelection = RCC_USART1CLKSOURCE_PCLK1;
 80055b6:	9407      	str	r4, [sp, #28]
  if (HAL_RCCEx_PeriphCLKConfig(&PeriphClkInit) != HAL_OK)
 80055b8:	f7fc fd1c 	bl	8001ff4 <HAL_RCCEx_PeriphCLKConfig>
  {
    Error_Handler();
  }
}
 80055bc:	b017      	add	sp, #92	; 0x5c
 80055be:	bd30      	pop	{r4, r5, pc}

080055c0 <main>:
{
 80055c0:	b5f0      	push	{r4, r5, r6, r7, lr}
 80055c2:	b091      	sub	sp, #68	; 0x44
  HAL_Init();
 80055c4:	f7fb fde8 	bl	8001198 <HAL_Init>
  SystemClock_Config();
 80055c8:	f7ff ffc8 	bl	800555c <SystemClock_Config>
  * @param None
  * @retval None
  */
static void MX_GPIO_Init(void)
{
  GPIO_InitTypeDef GPIO_InitStruct = {0};
 80055cc:	2214      	movs	r2, #20
 80055ce:	2100      	movs	r1, #0
 80055d0:	a80b      	add	r0, sp, #44	; 0x2c
 80055d2:	f000 fbec 	bl	8005dae <memset>

  /* GPIO Ports Clock Enable */
  __HAL_RCC_GPIOC_CLK_ENABLE();
 80055d6:	2180      	movs	r1, #128	; 0x80
 80055d8:	4cd6      	ldr	r4, [pc, #856]	; (8005934 <main+0x374>)
 80055da:	0309      	lsls	r1, r1, #12
 80055dc:	6962      	ldr	r2, [r4, #20]
  __HAL_RCC_GPIOA_CLK_ENABLE();
  __HAL_RCC_GPIOB_CLK_ENABLE();

  /*Configure GPIO pin Output Level */
  HAL_GPIO_WritePin(GPIOC, LD4_BLUE_LED_Pin|LD3_GREEN_LED_Pin, GPIO_PIN_RESET);
 80055de:	26c0      	movs	r6, #192	; 0xc0
  __HAL_RCC_GPIOC_CLK_ENABLE();
 80055e0:	430a      	orrs	r2, r1
 80055e2:	6162      	str	r2, [r4, #20]
 80055e4:	6963      	ldr	r3, [r4, #20]
  HAL_GPIO_WritePin(GPIOB, GPIO_PIN_6, GPIO_PIN_RESET);

  /*Configure GPIO pin : BUTTON_Pin */
  GPIO_InitStruct.Pin = BUTTON_Pin;
  GPIO_InitStruct.Mode = GPIO_MODE_IT_RISING;
  GPIO_InitStruct.Pull = GPIO_NOPULL;
 80055e6:	2500      	movs	r5, #0
  __HAL_RCC_GPIOC_CLK_ENABLE();
 80055e8:	400b      	ands	r3, r1
  __HAL_RCC_GPIOA_CLK_ENABLE();
 80055ea:	2180      	movs	r1, #128	; 0x80
  __HAL_RCC_GPIOC_CLK_ENABLE();
 80055ec:	9308      	str	r3, [sp, #32]
 80055ee:	9b08      	ldr	r3, [sp, #32]
  __HAL_RCC_GPIOA_CLK_ENABLE();
 80055f0:	6962      	ldr	r2, [r4, #20]
 80055f2:	0289      	lsls	r1, r1, #10
 80055f4:	430a      	orrs	r2, r1
 80055f6:	6162      	str	r2, [r4, #20]
 80055f8:	6963      	ldr	r3, [r4, #20]
  GPIO_InitStruct.Pin = BUTTON_Pin;
 80055fa:	2701      	movs	r7, #1
  __HAL_RCC_GPIOA_CLK_ENABLE();
 80055fc:	400b      	ands	r3, r1
  __HAL_RCC_GPIOB_CLK_ENABLE();
 80055fe:	2180      	movs	r1, #128	; 0x80
  __HAL_RCC_GPIOA_CLK_ENABLE();
 8005600:	9309      	str	r3, [sp, #36]	; 0x24
 8005602:	9b09      	ldr	r3, [sp, #36]	; 0x24
  __HAL_RCC_GPIOB_CLK_ENABLE();
 8005604:	6962      	ldr	r2, [r4, #20]
 8005606:	02c9      	lsls	r1, r1, #11
 8005608:	430a      	orrs	r2, r1
 800560a:	6162      	str	r2, [r4, #20]
 800560c:	6963      	ldr	r3, [r4, #20]
  HAL_GPIO_WritePin(GPIOC, LD4_BLUE_LED_Pin|LD3_GREEN_LED_Pin, GPIO_PIN_RESET);
 800560e:	00b6      	lsls	r6, r6, #2
  __HAL_RCC_GPIOB_CLK_ENABLE();
 8005610:	400b      	ands	r3, r1
 8005612:	930a      	str	r3, [sp, #40]	; 0x28
  HAL_GPIO_WritePin(GPIOC, LD4_BLUE_LED_Pin|LD3_GREEN_LED_Pin, GPIO_PIN_RESET);
 8005614:	0031      	movs	r1, r6
 8005616:	2200      	movs	r2, #0
 8005618:	48c7      	ldr	r0, [pc, #796]	; (8005938 <main+0x378>)
  __HAL_RCC_GPIOB_CLK_ENABLE();
 800561a:	9b0a      	ldr	r3, [sp, #40]	; 0x28
  HAL_GPIO_WritePin(GPIOC, LD4_BLUE_LED_Pin|LD3_GREEN_LED_Pin, GPIO_PIN_RESET);
 800561c:	f7fc fa0a 	bl	8001a34 <HAL_GPIO_WritePin>
  HAL_GPIO_WritePin(GPIOB, GPIO_PIN_6, GPIO_PIN_RESET);
 8005620:	2200      	movs	r2, #0
 8005622:	2140      	movs	r1, #64	; 0x40
 8005624:	48c5      	ldr	r0, [pc, #788]	; (800593c <main+0x37c>)
 8005626:	f7fc fa05 	bl	8001a34 <HAL_GPIO_WritePin>
  GPIO_InitStruct.Mode = GPIO_MODE_IT_RISING;
 800562a:	4bc5      	ldr	r3, [pc, #788]	; (8005940 <main+0x380>)
  HAL_GPIO_Init(BUTTON_GPIO_Port, &GPIO_InitStruct);
 800562c:	a90b      	add	r1, sp, #44	; 0x2c
 800562e:	48c2      	ldr	r0, [pc, #776]	; (8005938 <main+0x378>)
  GPIO_InitStruct.Mode = GPIO_MODE_IT_RISING;
 8005630:	930c      	str	r3, [sp, #48]	; 0x30
  GPIO_InitStruct.Pin = BUTTON_Pin;
 8005632:	970b      	str	r7, [sp, #44]	; 0x2c
  GPIO_InitStruct.Pull = GPIO_NOPULL;
 8005634:	950d      	str	r5, [sp, #52]	; 0x34
  HAL_GPIO_Init(BUTTON_GPIO_Port, &GPIO_InitStruct);
 8005636:	f7fc f94d 	bl	80018d4 <HAL_GPIO_Init>
  /*Configure GPIO pins : LD4_BLUE_LED_Pin LD3_GREEN_LED_Pin */
  GPIO_InitStruct.Pin = LD4_BLUE_LED_Pin|LD3_GREEN_LED_Pin;
  GPIO_InitStruct.Mode = GPIO_MODE_OUTPUT_PP;
  GPIO_InitStruct.Pull = GPIO_NOPULL;
  GPIO_InitStruct.Speed = GPIO_SPEED_FREQ_LOW;
  HAL_GPIO_Init(GPIOC, &GPIO_InitStruct);
 800563a:	a90b      	add	r1, sp, #44	; 0x2c
 800563c:	48be      	ldr	r0, [pc, #760]	; (8005938 <main+0x378>)
  GPIO_InitStruct.Pin = LD4_BLUE_LED_Pin|LD3_GREEN_LED_Pin;
 800563e:	960b      	str	r6, [sp, #44]	; 0x2c
  GPIO_InitStruct.Mode = GPIO_MODE_OUTPUT_PP;
 8005640:	970c      	str	r7, [sp, #48]	; 0x30
  GPIO_InitStruct.Pull = GPIO_NOPULL;
 8005642:	950d      	str	r5, [sp, #52]	; 0x34
  GPIO_InitStruct.Speed = GPIO_SPEED_FREQ_LOW;
 8005644:	950e      	str	r5, [sp, #56]	; 0x38
  HAL_GPIO_Init(GPIOC, &GPIO_InitStruct);
 8005646:	f7fc f945 	bl	80018d4 <HAL_GPIO_Init>

  /*Configure GPIO pin : PB6 */
  GPIO_InitStruct.Pin = GPIO_PIN_6;
 800564a:	2340      	movs	r3, #64	; 0x40
  GPIO_InitStruct.Mode = GPIO_MODE_OUTPUT_PP;
  GPIO_InitStruct.Pull = GPIO_NOPULL;
  GPIO_InitStruct.Speed = GPIO_SPEED_FREQ_LOW;
  HAL_GPIO_Init(GPIOB, &GPIO_InitStruct);
 800564c:	a90b      	add	r1, sp, #44	; 0x2c
 800564e:	48bb      	ldr	r0, [pc, #748]	; (800593c <main+0x37c>)
  GPIO_InitStruct.Pin = GPIO_PIN_6;
 8005650:	930b      	str	r3, [sp, #44]	; 0x2c
  GPIO_InitStruct.Mode = GPIO_MODE_OUTPUT_PP;
 8005652:	970c      	str	r7, [sp, #48]	; 0x30
  GPIO_InitStruct.Pull = GPIO_NOPULL;
 8005654:	950d      	str	r5, [sp, #52]	; 0x34
  GPIO_InitStruct.Speed = GPIO_SPEED_FREQ_LOW;
 8005656:	950e      	str	r5, [sp, #56]	; 0x38
  HAL_GPIO_Init(GPIOB, &GPIO_InitStruct);
 8005658:	f7fc f93c 	bl	80018d4 <HAL_GPIO_Init>

  /* EXTI interrupt init*/
  HAL_NVIC_SetPriority(EXTI0_1_IRQn, 0, 0);
 800565c:	002a      	movs	r2, r5
 800565e:	0029      	movs	r1, r5
 8005660:	2005      	movs	r0, #5
 8005662:	f7fc f82b 	bl	80016bc <HAL_NVIC_SetPriority>
  HAL_NVIC_EnableIRQ(EXTI0_1_IRQn);
 8005666:	2005      	movs	r0, #5
 8005668:	f7fc f858 	bl	800171c <HAL_NVIC_EnableIRQ>
  __HAL_RCC_DMA1_CLK_ENABLE();
 800566c:	6963      	ldr	r3, [r4, #20]
  HAL_NVIC_SetPriority(DMA1_Channel1_IRQn, 0, 0);
 800566e:	002a      	movs	r2, r5
  __HAL_RCC_DMA1_CLK_ENABLE();
 8005670:	433b      	orrs	r3, r7
 8005672:	6163      	str	r3, [r4, #20]
 8005674:	6963      	ldr	r3, [r4, #20]
  HAL_NVIC_SetPriority(DMA1_Channel1_IRQn, 0, 0);
 8005676:	0029      	movs	r1, r5
  __HAL_RCC_DMA1_CLK_ENABLE();
 8005678:	403b      	ands	r3, r7
 800567a:	9307      	str	r3, [sp, #28]
  HAL_NVIC_SetPriority(DMA1_Channel1_IRQn, 0, 0);
 800567c:	2009      	movs	r0, #9
  __HAL_RCC_DMA1_CLK_ENABLE();
 800567e:	9b07      	ldr	r3, [sp, #28]
  HAL_NVIC_SetPriority(DMA1_Channel1_IRQn, 0, 0);
 8005680:	f7fc f81c 	bl	80016bc <HAL_NVIC_SetPriority>
  HAL_NVIC_EnableIRQ(DMA1_Channel1_IRQn);
 8005684:	2009      	movs	r0, #9
 8005686:	f7fc f849 	bl	800171c <HAL_NVIC_EnableIRQ>
  hspi1.Instance = SPI1;
 800568a:	48ae      	ldr	r0, [pc, #696]	; (8005944 <main+0x384>)
 800568c:	4bae      	ldr	r3, [pc, #696]	; (8005948 <main+0x388>)
  hspi1.Init.Direction = SPI_DIRECTION_2LINES;
 800568e:	6085      	str	r5, [r0, #8]
  hspi1.Instance = SPI1;
 8005690:	6003      	str	r3, [r0, #0]
  hspi1.Init.Mode = SPI_MODE_MASTER;
 8005692:	2382      	movs	r3, #130	; 0x82
 8005694:	005b      	lsls	r3, r3, #1
 8005696:	6043      	str	r3, [r0, #4]
  hspi1.Init.DataSize = SPI_DATASIZE_8BIT;
 8005698:	23e0      	movs	r3, #224	; 0xe0
 800569a:	00db      	lsls	r3, r3, #3
 800569c:	60c3      	str	r3, [r0, #12]
  hspi1.Init.NSS = SPI_NSS_SOFT;
 800569e:	2380      	movs	r3, #128	; 0x80
 80056a0:	009b      	lsls	r3, r3, #2
 80056a2:	6183      	str	r3, [r0, #24]
  hspi1.Init.BaudRatePrescaler = SPI_BAUDRATEPRESCALER_8;
 80056a4:	3bf1      	subs	r3, #241	; 0xf1
 80056a6:	3bff      	subs	r3, #255	; 0xff
 80056a8:	61c3      	str	r3, [r0, #28]
  hspi1.Init.CRCPolynomial = 7;
 80056aa:	3b09      	subs	r3, #9
 80056ac:	62c3      	str	r3, [r0, #44]	; 0x2c
  hspi1.Init.NSSPMode = SPI_NSS_PULSE_ENABLE;
 80056ae:	19db      	adds	r3, r3, r7
 80056b0:	6343      	str	r3, [r0, #52]	; 0x34
  hspi1.Init.CLKPolarity = SPI_POLARITY_LOW;
 80056b2:	6105      	str	r5, [r0, #16]
  hspi1.Init.CLKPhase = SPI_PHASE_1EDGE;
 80056b4:	6145      	str	r5, [r0, #20]
  hspi1.Init.FirstBit = SPI_FIRSTBIT_MSB;
 80056b6:	6205      	str	r5, [r0, #32]
  hspi1.Init.TIMode = SPI_TIMODE_DISABLE;
 80056b8:	6245      	str	r5, [r0, #36]	; 0x24
  hspi1.Init.CRCCalculation = SPI_CRCCALCULATION_DISABLE;
 80056ba:	6285      	str	r5, [r0, #40]	; 0x28
  hspi1.Init.CRCLength = SPI_CRC_LENGTH_DATASIZE;
 80056bc:	6305      	str	r5, [r0, #48]	; 0x30
  if (HAL_SPI_Init(&hspi1) != HAL_OK)
 80056be:	f7fc fda7 	bl	8002210 <HAL_SPI_Init>
  huart1.Instance = USART1;
 80056c2:	48a2      	ldr	r0, [pc, #648]	; (800594c <main+0x38c>)
 80056c4:	4ba2      	ldr	r3, [pc, #648]	; (8005950 <main+0x390>)
  huart1.Init.Mode = UART_MODE_TX_RX;
 80056c6:	240c      	movs	r4, #12
  huart1.Instance = USART1;
 80056c8:	6003      	str	r3, [r0, #0]
  huart1.Init.BaudRate = 115200;
 80056ca:	23e1      	movs	r3, #225	; 0xe1
 80056cc:	025b      	lsls	r3, r3, #9
 80056ce:	6043      	str	r3, [r0, #4]
  huart1.Init.Mode = UART_MODE_TX_RX;
 80056d0:	6144      	str	r4, [r0, #20]
  huart1.Init.WordLength = UART_WORDLENGTH_8B;
 80056d2:	6085      	str	r5, [r0, #8]
  huart1.Init.StopBits = UART_STOPBITS_1;
 80056d4:	60c5      	str	r5, [r0, #12]
  huart1.Init.Parity = UART_PARITY_NONE;
 80056d6:	6105      	str	r5, [r0, #16]
  huart1.Init.HwFlowCtl = UART_HWCONTROL_NONE;
 80056d8:	6185      	str	r5, [r0, #24]
  huart1.Init.OverSampling = UART_OVERSAMPLING_16;
 80056da:	61c5      	str	r5, [r0, #28]
  huart1.Init.OneBitSampling = UART_ONE_BIT_SAMPLE_DISABLE;
 80056dc:	6205      	str	r5, [r0, #32]
  huart1.AdvancedInit.AdvFeatureInit = UART_ADVFEATURE_NO_INIT;
 80056de:	6245      	str	r5, [r0, #36]	; 0x24
  if (HAL_UART_Init(&huart1) != HAL_OK)
 80056e0:	f7fd f9ea 	bl	8002ab8 <HAL_UART_Init>
  MX_FATFS_Init();
 80056e4:	f7ff fc0c 	bl	8004f00 <MX_FATFS_Init>
  ADC_ChannelConfTypeDef sConfig = {0};
 80056e8:	0022      	movs	r2, r4
 80056ea:	0029      	movs	r1, r5
 80056ec:	a80b      	add	r0, sp, #44	; 0x2c
 80056ee:	f000 fb5e 	bl	8005dae <memset>
  hadc.Instance = ADC1;
 80056f2:	4c98      	ldr	r4, [pc, #608]	; (8005954 <main+0x394>)
 80056f4:	4b98      	ldr	r3, [pc, #608]	; (8005958 <main+0x398>)
  hadc.Init.EOCSelection = ADC_EOC_SINGLE_CONV;
 80056f6:	2604      	movs	r6, #4
  hadc.Instance = ADC1;
 80056f8:	6023      	str	r3, [r4, #0]
  hadc.Init.ExternalTrigConv = ADC_SOFTWARE_START;
 80056fa:	23c2      	movs	r3, #194	; 0xc2
 80056fc:	33ff      	adds	r3, #255	; 0xff
 80056fe:	61e3      	str	r3, [r4, #28]
  if (HAL_ADC_Init(&hadc) != HAL_OK)
 8005700:	0020      	movs	r0, r4
  hadc.Init.DMAContinuousRequests = DISABLE;
 8005702:	1d63      	adds	r3, r4, #5
  hadc.Init.EOCSelection = ADC_EOC_SINGLE_CONV;
 8005704:	6166      	str	r6, [r4, #20]
  hadc.Init.DMAContinuousRequests = DISABLE;
 8005706:	77dd      	strb	r5, [r3, #31]
  hadc.Init.ClockPrescaler = ADC_CLOCK_ASYNC_DIV1;
 8005708:	6065      	str	r5, [r4, #4]
  hadc.Init.Resolution = ADC_RESOLUTION_12B;
 800570a:	60a5      	str	r5, [r4, #8]
  hadc.Init.DataAlign = ADC_DATAALIGN_RIGHT;
 800570c:	60e5      	str	r5, [r4, #12]
  hadc.Init.ScanConvMode = ADC_SCAN_DIRECTION_FORWARD;
 800570e:	6127      	str	r7, [r4, #16]
  hadc.Init.LowPowerAutoWait = DISABLE;
 8005710:	7625      	strb	r5, [r4, #24]
  hadc.Init.LowPowerAutoPowerOff = DISABLE;
 8005712:	7665      	strb	r5, [r4, #25]
  hadc.Init.ContinuousConvMode = DISABLE;
 8005714:	76a5      	strb	r5, [r4, #26]
  hadc.Init.DiscontinuousConvMode = DISABLE;
 8005716:	76e5      	strb	r5, [r4, #27]
  hadc.Init.ExternalTrigConvEdge = ADC_EXTERNALTRIGCONVEDGE_NONE;
 8005718:	6225      	str	r5, [r4, #32]
  hadc.Init.Overrun = ADC_OVR_DATA_PRESERVED;
 800571a:	62a7      	str	r7, [r4, #40]	; 0x28
  if (HAL_ADC_Init(&hadc) != HAL_OK)
 800571c:	f7fb fdbc 	bl	8001298 <HAL_ADC_Init>
  sConfig.Rank = ADC_RANK_CHANNEL_NUMBER;
 8005720:	2380      	movs	r3, #128	; 0x80
 8005722:	015b      	lsls	r3, r3, #5
 8005724:	930c      	str	r3, [sp, #48]	; 0x30
  sConfig.SamplingTime = ADC_SAMPLETIME_1CYCLE_5;
 8005726:	2380      	movs	r3, #128	; 0x80
  if (HAL_ADC_ConfigChannel(&hadc, &sConfig) != HAL_OK)
 8005728:	a90b      	add	r1, sp, #44	; 0x2c
  sConfig.SamplingTime = ADC_SAMPLETIME_1CYCLE_5;
 800572a:	055b      	lsls	r3, r3, #21
  if (HAL_ADC_ConfigChannel(&hadc, &sConfig) != HAL_OK)
 800572c:	0020      	movs	r0, r4
  sConfig.SamplingTime = ADC_SAMPLETIME_1CYCLE_5;
 800572e:	930d      	str	r3, [sp, #52]	; 0x34
  sConfig.Channel = ADC_CHANNEL_0;
 8005730:	950b      	str	r5, [sp, #44]	; 0x2c
  if (HAL_ADC_ConfigChannel(&hadc, &sConfig) != HAL_OK)
 8005732:	f7fb feef 	bl	8001514 <HAL_ADC_ConfigChannel>
  if (HAL_ADC_ConfigChannel(&hadc, &sConfig) != HAL_OK)
 8005736:	a90b      	add	r1, sp, #44	; 0x2c
 8005738:	0020      	movs	r0, r4
  sConfig.Channel = ADC_CHANNEL_1;
 800573a:	970b      	str	r7, [sp, #44]	; 0x2c
  if (HAL_ADC_ConfigChannel(&hadc, &sConfig) != HAL_OK)
 800573c:	f7fb feea 	bl	8001514 <HAL_ADC_ConfigChannel>
  sConfig.Channel = ADC_CHANNEL_2;
 8005740:	2302      	movs	r3, #2
  if (HAL_ADC_ConfigChannel(&hadc, &sConfig) != HAL_OK)
 8005742:	a90b      	add	r1, sp, #44	; 0x2c
 8005744:	0020      	movs	r0, r4
  sConfig.Channel = ADC_CHANNEL_2;
 8005746:	930b      	str	r3, [sp, #44]	; 0x2c
  if (HAL_ADC_ConfigChannel(&hadc, &sConfig) != HAL_OK)
 8005748:	f7fb fee4 	bl	8001514 <HAL_ADC_ConfigChannel>
  sConfig.Channel = ADC_CHANNEL_3;
 800574c:	2303      	movs	r3, #3
  if (HAL_ADC_ConfigChannel(&hadc, &sConfig) != HAL_OK)
 800574e:	a90b      	add	r1, sp, #44	; 0x2c
 8005750:	0020      	movs	r0, r4
  sConfig.Channel = ADC_CHANNEL_3;
 8005752:	930b      	str	r3, [sp, #44]	; 0x2c
  if (HAL_ADC_ConfigChannel(&hadc, &sConfig) != HAL_OK)
 8005754:	f7fb fede 	bl	8001514 <HAL_ADC_ConfigChannel>
  if (HAL_ADC_ConfigChannel(&hadc, &sConfig) != HAL_OK)
 8005758:	a90b      	add	r1, sp, #44	; 0x2c
 800575a:	0020      	movs	r0, r4
  sConfig.Channel = ADC_CHANNEL_4;
 800575c:	960b      	str	r6, [sp, #44]	; 0x2c
  if (HAL_ADC_ConfigChannel(&hadc, &sConfig) != HAL_OK)
 800575e:	f7fb fed9 	bl	8001514 <HAL_ADC_ConfigChannel>
  sConfig.Channel = ADC_CHANNEL_5;
 8005762:	2305      	movs	r3, #5
  if (HAL_ADC_ConfigChannel(&hadc, &sConfig) != HAL_OK)
 8005764:	a90b      	add	r1, sp, #44	; 0x2c
 8005766:	0020      	movs	r0, r4
  sConfig.Channel = ADC_CHANNEL_5;
 8005768:	930b      	str	r3, [sp, #44]	; 0x2c
  if (HAL_ADC_ConfigChannel(&hadc, &sConfig) != HAL_OK)
 800576a:	f7fb fed3 	bl	8001514 <HAL_ADC_ConfigChannel>
  sConfig.Channel = ADC_CHANNEL_6;
 800576e:	2306      	movs	r3, #6
  if (HAL_ADC_ConfigChannel(&hadc, &sConfig) != HAL_OK)
 8005770:	a90b      	add	r1, sp, #44	; 0x2c
 8005772:	0020      	movs	r0, r4
  sConfig.Channel = ADC_CHANNEL_6;
 8005774:	930b      	str	r3, [sp, #44]	; 0x2c
  if (HAL_ADC_ConfigChannel(&hadc, &sConfig) != HAL_OK)
 8005776:	f7fb fecd 	bl	8001514 <HAL_ADC_ConfigChannel>
  sConfig.Channel = ADC_CHANNEL_7;
 800577a:	2307      	movs	r3, #7
  if (HAL_ADC_ConfigChannel(&hadc, &sConfig) != HAL_OK)
 800577c:	a90b      	add	r1, sp, #44	; 0x2c
 800577e:	0020      	movs	r0, r4
  sConfig.Channel = ADC_CHANNEL_7;
 8005780:	930b      	str	r3, [sp, #44]	; 0x2c
  if (HAL_ADC_ConfigChannel(&hadc, &sConfig) != HAL_OK)
 8005782:	f7fb fec7 	bl	8001514 <HAL_ADC_ConfigChannel>
  send_uart("Begin 8 Chan ADC to Micro SD\n");
 8005786:	4875      	ldr	r0, [pc, #468]	; (800595c <main+0x39c>)
 8005788:	f7ff fecc 	bl	8005524 <send_uart>
  fresult = f_mount(&fs, "", 1);
 800578c:	4e74      	ldr	r6, [pc, #464]	; (8005960 <main+0x3a0>)
 800578e:	003a      	movs	r2, r7
 8005790:	0031      	movs	r1, r6
 8005792:	4874      	ldr	r0, [pc, #464]	; (8005964 <main+0x3a4>)
 8005794:	f7fe fca8 	bl	80040e8 <f_mount>
 8005798:	4b73      	ldr	r3, [pc, #460]	; (8005968 <main+0x3a8>)
 800579a:	7018      	strb	r0, [r3, #0]
  if (fresult != FR_OK)
 800579c:	42a8      	cmp	r0, r5
 800579e:	d100      	bne.n	80057a2 <main+0x1e2>
 80057a0:	e0b6      	b.n	8005910 <main+0x350>
    send_uart("error in mounting SD CARD...\n");
 80057a2:	4872      	ldr	r0, [pc, #456]	; (800596c <main+0x3ac>)
    send_uart("SD CARD mounted successfully...\n");
 80057a4:	f7ff febe 	bl	8005524 <send_uart>
  f_getfree("", &fre_clust, &pfs);
 80057a8:	4d71      	ldr	r5, [pc, #452]	; (8005970 <main+0x3b0>)
 80057aa:	4f72      	ldr	r7, [pc, #456]	; (8005974 <main+0x3b4>)
 80057ac:	002a      	movs	r2, r5
 80057ae:	0039      	movs	r1, r7
 80057b0:	0030      	movs	r0, r6
 80057b2:	f7ff fa81 	bl	8004cb8 <f_getfree>
  total = (uint32_t)((pfs->n_fatent - 2) * pfs->csize * 0.5);
 80057b6:	682a      	ldr	r2, [r5, #0]
 80057b8:	4b6f      	ldr	r3, [pc, #444]	; (8005978 <main+0x3b8>)
 80057ba:	4970      	ldr	r1, [pc, #448]	; (800597c <main+0x3bc>)
 80057bc:	58d3      	ldr	r3, [r2, r3]
 80057be:	5c50      	ldrb	r0, [r2, r1]
 80057c0:	3b02      	subs	r3, #2
 80057c2:	4358      	muls	r0, r3
 80057c4:	f7fb fb30 	bl	8000e28 <__aeabi_ui2d>
 80057c8:	2200      	movs	r2, #0
 80057ca:	4b6d      	ldr	r3, [pc, #436]	; (8005980 <main+0x3c0>)
 80057cc:	f7fa fd62 	bl	8000294 <__aeabi_dmul>
 80057d0:	f7fa fd42 	bl	8000258 <__aeabi_d2uiz>
 80057d4:	4b6b      	ldr	r3, [pc, #428]	; (8005984 <main+0x3c4>)
  sprintf(buffer, "SD CARD Total Size: \t%lu\n", total);
 80057d6:	4e6c      	ldr	r6, [pc, #432]	; (8005988 <main+0x3c8>)
  total = (uint32_t)((pfs->n_fatent - 2) * pfs->csize * 0.5);
 80057d8:	0002      	movs	r2, r0
 80057da:	6018      	str	r0, [r3, #0]
  sprintf(buffer, "SD CARD Total Size: \t%lu\n", total);
 80057dc:	496b      	ldr	r1, [pc, #428]	; (800598c <main+0x3cc>)
 80057de:	0030      	movs	r0, r6
 80057e0:	f000 faee 	bl	8005dc0 <siprintf>
  send_uart(buffer);
 80057e4:	0030      	movs	r0, r6
 80057e6:	f7ff fe9d 	bl	8005524 <send_uart>
  bufclear();
 80057ea:	f7ff fea9 	bl	8005540 <bufclear>
  free_space = (uint32_t)(fre_clust * pfs->csize * 0.5);
 80057ee:	682b      	ldr	r3, [r5, #0]
 80057f0:	4a62      	ldr	r2, [pc, #392]	; (800597c <main+0x3bc>)
 80057f2:	6838      	ldr	r0, [r7, #0]
 80057f4:	5c9b      	ldrb	r3, [r3, r2]
  int fileNumber = 0;
 80057f6:	2500      	movs	r5, #0
  free_space = (uint32_t)(fre_clust * pfs->csize * 0.5);
 80057f8:	4358      	muls	r0, r3
 80057fa:	f7fb fb15 	bl	8000e28 <__aeabi_ui2d>
 80057fe:	2200      	movs	r2, #0
 8005800:	4b5f      	ldr	r3, [pc, #380]	; (8005980 <main+0x3c0>)
 8005802:	f7fa fd47 	bl	8000294 <__aeabi_dmul>
 8005806:	f7fa fd27 	bl	8000258 <__aeabi_d2uiz>
 800580a:	4b61      	ldr	r3, [pc, #388]	; (8005990 <main+0x3d0>)
 800580c:	0002      	movs	r2, r0
 800580e:	6018      	str	r0, [r3, #0]
  sprintf(buffer, "SD CARD Free Space: \t%lu\n", free_space);
 8005810:	4960      	ldr	r1, [pc, #384]	; (8005994 <main+0x3d4>)
 8005812:	0030      	movs	r0, r6
 8005814:	f000 fad4 	bl	8005dc0 <siprintf>
  send_uart(buffer);
 8005818:	0030      	movs	r0, r6
 800581a:	f7ff fe83 	bl	8005524 <send_uart>
  sprintf(name, "F%d.TXT", fileNumber);
 800581e:	4f5e      	ldr	r7, [pc, #376]	; (8005998 <main+0x3d8>)
 8005820:	2200      	movs	r2, #0
 8005822:	0039      	movs	r1, r7
 8005824:	a80b      	add	r0, sp, #44	; 0x2c
 8005826:	f000 facb 	bl	8005dc0 <siprintf>
  while (f_stat(name, NULL) == FR_OK)
 800582a:	2100      	movs	r1, #0
 800582c:	a80b      	add	r0, sp, #44	; 0x2c
 800582e:	f7ff fa11 	bl	8004c54 <f_stat>
 8005832:	2800      	cmp	r0, #0
 8005834:	d100      	bne.n	8005838 <main+0x278>
 8005836:	e06d      	b.n	8005914 <main+0x354>
  fresult = f_open(&fil, name, FA_OPEN_ALWAYS | FA_READ | FA_WRITE);
 8005838:	4f58      	ldr	r7, [pc, #352]	; (800599c <main+0x3dc>)
 800583a:	2213      	movs	r2, #19
 800583c:	a90b      	add	r1, sp, #44	; 0x2c
 800583e:	0038      	movs	r0, r7
 8005840:	f7fe fc8a 	bl	8004158 <f_open>
 8005844:	4d48      	ldr	r5, [pc, #288]	; (8005968 <main+0x3a8>)
  fresult = f_puts("ADC0 ADC1 ADC2 ADC3 ADC4 ADC5 ADC6 ADC7\n", &fil);
 8005846:	0039      	movs	r1, r7
  fresult = f_open(&fil, name, FA_OPEN_ALWAYS | FA_READ | FA_WRITE);
 8005848:	7028      	strb	r0, [r5, #0]
  fresult = f_puts("ADC0 ADC1 ADC2 ADC3 ADC4 ADC5 ADC6 ADC7\n", &fil);
 800584a:	4855      	ldr	r0, [pc, #340]	; (80059a0 <main+0x3e0>)
 800584c:	f7ff fadb 	bl	8004e06 <f_puts>
 8005850:	7028      	strb	r0, [r5, #0]
  fresult = f_close(&fil);
 8005852:	0038      	movs	r0, r7
 8005854:	f7ff f84e 	bl	80048f4 <f_close>
 8005858:	7028      	strb	r0, [r5, #0]
  send_uart(name); //ex: File1.txt created and is ready for data to be written
 800585a:	a80b      	add	r0, sp, #44	; 0x2c
 800585c:	f7ff fe62 	bl	8005524 <send_uart>
    HAL_GPIO_TogglePin(GPIOC, LD4_BLUE_LED_Pin);
 8005860:	2780      	movs	r7, #128	; 0x80
  send_uart(" created and header was written \n");
 8005862:	4850      	ldr	r0, [pc, #320]	; (80059a4 <main+0x3e4>)
 8005864:	f7ff fe5e 	bl	8005524 <send_uart>
    HAL_GPIO_TogglePin(GPIOC, LD4_BLUE_LED_Pin);
 8005868:	007f      	lsls	r7, r7, #1
  while (bp == 0)
 800586a:	4b4f      	ldr	r3, [pc, #316]	; (80059a8 <main+0x3e8>)
 800586c:	681b      	ldr	r3, [r3, #0]
 800586e:	2b00      	cmp	r3, #0
 8005870:	d057      	beq.n	8005922 <main+0x362>
 8005872:	2706      	movs	r7, #6
    HAL_GPIO_TogglePin(GPIOC, LD3_GREEN_LED_Pin);
 8005874:	2180      	movs	r1, #128	; 0x80
 8005876:	4830      	ldr	r0, [pc, #192]	; (8005938 <main+0x378>)
 8005878:	0089      	lsls	r1, r1, #2
 800587a:	f7fc f8e1 	bl	8001a40 <HAL_GPIO_TogglePin>
 800587e:	3f01      	subs	r7, #1
    HAL_Delay(100); //1000ms delay
 8005880:	2064      	movs	r0, #100	; 0x64
 8005882:	f7fb fcab 	bl	80011dc <HAL_Delay>
  for (int i = 0; i < 6; i++)
 8005886:	2f00      	cmp	r7, #0
 8005888:	d1f4      	bne.n	8005874 <main+0x2b4>
  HAL_ADCEx_Calibration_Start(&hadc);
 800588a:	0020      	movs	r0, r4
 800588c:	f7fb fec2 	bl	8001614 <HAL_ADCEx_Calibration_Start>
	if (adc_flag == 0) {
 8005890:	4f46      	ldr	r7, [pc, #280]	; (80059ac <main+0x3ec>)
 8005892:	683b      	ldr	r3, [r7, #0]
 8005894:	2b00      	cmp	r3, #0
 8005896:	d104      	bne.n	80058a2 <main+0x2e2>
		HAL_ADC_Start_DMA(&hadc, adc_buf, 8); //start the adc in dma mode
 8005898:	2208      	movs	r2, #8
 800589a:	4945      	ldr	r1, [pc, #276]	; (80059b0 <main+0x3f0>)
 800589c:	0020      	movs	r0, r4
 800589e:	f7fb fda3 	bl	80013e8 <HAL_ADC_Start_DMA>
    if (bp > 1)
 80058a2:	4b41      	ldr	r3, [pc, #260]	; (80059a8 <main+0x3e8>)
 80058a4:	681b      	ldr	r3, [r3, #0]
 80058a6:	2b01      	cmp	r3, #1
 80058a8:	dc00      	bgt.n	80058ac <main+0x2ec>
 80058aa:	e08b      	b.n	80059c4 <main+0x404>
		HAL_GPIO_TogglePin(GPIOC, LD3_GREEN_LED_Pin);
 80058ac:	2780      	movs	r7, #128	; 0x80
 80058ae:	2404      	movs	r4, #4
 80058b0:	00bf      	lsls	r7, r7, #2
 80058b2:	0039      	movs	r1, r7
 80058b4:	4820      	ldr	r0, [pc, #128]	; (8005938 <main+0x378>)
 80058b6:	f7fc f8c3 	bl	8001a40 <HAL_GPIO_TogglePin>
 80058ba:	3c01      	subs	r4, #1
		HAL_Delay(100); //1000ms delay
 80058bc:	2064      	movs	r0, #100	; 0x64
 80058be:	f7fb fc8d 	bl	80011dc <HAL_Delay>
      for (int i = 0; i < 4; i++)
 80058c2:	2c00      	cmp	r4, #0
 80058c4:	d1f5      	bne.n	80058b2 <main+0x2f2>
  send_uart("Data Collection Halted.  Sending data written to serial stream\n\n");
 80058c6:	483b      	ldr	r0, [pc, #236]	; (80059b4 <main+0x3f4>)
 80058c8:	f7ff fe2c 	bl	8005524 <send_uart>
  fresult = f_open(&fil, name, FA_READ);
 80058cc:	4c33      	ldr	r4, [pc, #204]	; (800599c <main+0x3dc>)
 80058ce:	2201      	movs	r2, #1
 80058d0:	a90b      	add	r1, sp, #44	; 0x2c
 80058d2:	0020      	movs	r0, r4
 80058d4:	f7fe fc40 	bl	8004158 <f_open>
  while (!f_eof(&fil))
 80058d8:	2781      	movs	r7, #129	; 0x81
  fresult = f_open(&fil, name, FA_READ);
 80058da:	7028      	strb	r0, [r5, #0]
  while (!f_eof(&fil))
 80058dc:	00ff      	lsls	r7, r7, #3
 80058de:	4b36      	ldr	r3, [pc, #216]	; (80059b8 <main+0x3f8>)
 80058e0:	58e1      	ldr	r1, [r4, r3]
 80058e2:	59e3      	ldr	r3, [r4, r7]
 80058e4:	428b      	cmp	r3, r1
 80058e6:	d000      	beq.n	80058ea <main+0x32a>
 80058e8:	e0a0      	b.n	8005a2c <main+0x46c>
  f_close(&fil);
 80058ea:	0020      	movs	r0, r4
 80058ec:	f7ff f802 	bl	80048f4 <f_close>
  bufclear();
 80058f0:	f7ff fe26 	bl	8005540 <bufclear>
  fresult = f_mount(NULL, "", 1);
 80058f4:	2201      	movs	r2, #1
 80058f6:	491a      	ldr	r1, [pc, #104]	; (8005960 <main+0x3a0>)
 80058f8:	2000      	movs	r0, #0
 80058fa:	f7fe fbf5 	bl	80040e8 <f_mount>
 80058fe:	7028      	strb	r0, [r5, #0]
  if (fresult == FR_OK)
 8005900:	2800      	cmp	r0, #0
 8005902:	d102      	bne.n	800590a <main+0x34a>
    send_uart("SD CARD UNMOUNTED successfully...\n");
 8005904:	482d      	ldr	r0, [pc, #180]	; (80059bc <main+0x3fc>)
 8005906:	f7ff fe0d 	bl	8005524 <send_uart>
}
 800590a:	2000      	movs	r0, #0
 800590c:	b011      	add	sp, #68	; 0x44
 800590e:	bdf0      	pop	{r4, r5, r6, r7, pc}
    send_uart("SD CARD mounted successfully...\n");
 8005910:	482b      	ldr	r0, [pc, #172]	; (80059c0 <main+0x400>)
 8005912:	e747      	b.n	80057a4 <main+0x1e4>
    fileNumber++;
 8005914:	3501      	adds	r5, #1
    sprintf(name, "F%d.TXT", fileNumber);
 8005916:	002a      	movs	r2, r5
 8005918:	0039      	movs	r1, r7
 800591a:	a80b      	add	r0, sp, #44	; 0x2c
 800591c:	f000 fa50 	bl	8005dc0 <siprintf>
 8005920:	e783      	b.n	800582a <main+0x26a>
    HAL_GPIO_TogglePin(GPIOC, LD4_BLUE_LED_Pin);
 8005922:	0039      	movs	r1, r7
 8005924:	4804      	ldr	r0, [pc, #16]	; (8005938 <main+0x378>)
 8005926:	f7fc f88b 	bl	8001a40 <HAL_GPIO_TogglePin>
    HAL_Delay(100);
 800592a:	2064      	movs	r0, #100	; 0x64
 800592c:	f7fb fc56 	bl	80011dc <HAL_Delay>
 8005930:	e79b      	b.n	800586a <main+0x2aa>
 8005932:	46c0      	nop			; (mov r8, r8)
 8005934:	40021000 	.word	0x40021000
 8005938:	48000800 	.word	0x48000800
 800593c:	48000400 	.word	0x48000400
 8005940:	10110000 	.word	0x10110000
 8005944:	2000143c 	.word	0x2000143c
 8005948:	40013000 	.word	0x40013000
 800594c:	20000f90 	.word	0x20000f90
 8005950:	40013800 	.word	0x40013800
 8005954:	2000153c 	.word	0x2000153c
 8005958:	40012400 	.word	0x40012400
 800595c:	08006bca 	.word	0x08006bca
 8005960:	08006d0f 	.word	0x08006d0f
 8005964:	20000b58 	.word	0x20000b58
 8005968:	20001438 	.word	0x20001438
 800596c:	08006be8 	.word	0x08006be8
 8005970:	20001434 	.word	0x20001434
 8005974:	20000b54 	.word	0x20000b54
 8005978:	00000414 	.word	0x00000414
 800597c:	00000402 	.word	0x00000402
 8005980:	3fe00000 	.word	0x3fe00000
 8005984:	200014f4 	.word	0x200014f4
 8005988:	20001010 	.word	0x20001010
 800598c:	08006c27 	.word	0x08006c27
 8005990:	20000f8c 	.word	0x20000f8c
 8005994:	08006c41 	.word	0x08006c41
 8005998:	08006c5b 	.word	0x08006c5b
 800599c:	2000157c 	.word	0x2000157c
 80059a0:	08006c63 	.word	0x08006c63
 80059a4:	08006c8c 	.word	0x08006c8c
 80059a8:	200002d8 	.word	0x200002d8
 80059ac:	200002d4 	.word	0x200002d4
 80059b0:	200014a0 	.word	0x200014a0
 80059b4:	08006ccf 	.word	0x08006ccf
 80059b8:	0000040c 	.word	0x0000040c
 80059bc:	08006d10 	.word	0x08006d10
 80059c0:	08006c06 	.word	0x08006c06
    else if (adc_flag == 1)
 80059c4:	683b      	ldr	r3, [r7, #0]
 80059c6:	2b01      	cmp	r3, #1
 80059c8:	d12c      	bne.n	8005a24 <main+0x464>
    	adc_flag = 0; //clear adc_flag
 80059ca:	2300      	movs	r3, #0
		sprintf(str, "%4d %4d %4d %4d %4d %4d %4d %4d\n",
 80059cc:	4a1b      	ldr	r2, [pc, #108]	; (8005a3c <main+0x47c>)
    	adc_flag = 0; //clear adc_flag
 80059ce:	603b      	str	r3, [r7, #0]
		sprintf(str, "%4d %4d %4d %4d %4d %4d %4d %4d\n",
 80059d0:	69d3      	ldr	r3, [r2, #28]
 80059d2:	491b      	ldr	r1, [pc, #108]	; (8005a40 <main+0x480>)
 80059d4:	9305      	str	r3, [sp, #20]
 80059d6:	6993      	ldr	r3, [r2, #24]
 80059d8:	481a      	ldr	r0, [pc, #104]	; (8005a44 <main+0x484>)
 80059da:	9304      	str	r3, [sp, #16]
 80059dc:	6953      	ldr	r3, [r2, #20]
 80059de:	9303      	str	r3, [sp, #12]
 80059e0:	6913      	ldr	r3, [r2, #16]
 80059e2:	9302      	str	r3, [sp, #8]
 80059e4:	68d3      	ldr	r3, [r2, #12]
 80059e6:	9301      	str	r3, [sp, #4]
 80059e8:	6893      	ldr	r3, [r2, #8]
 80059ea:	9300      	str	r3, [sp, #0]
 80059ec:	6853      	ldr	r3, [r2, #4]
 80059ee:	6812      	ldr	r2, [r2, #0]
 80059f0:	f000 f9e6 	bl	8005dc0 <siprintf>
		send_uart(str);
 80059f4:	4813      	ldr	r0, [pc, #76]	; (8005a44 <main+0x484>)
 80059f6:	f7ff fd95 	bl	8005524 <send_uart>
		fresult = f_open(&fil, name, FA_OPEN_ALWAYS | FA_WRITE);
 80059fa:	4f13      	ldr	r7, [pc, #76]	; (8005a48 <main+0x488>)
 80059fc:	2212      	movs	r2, #18
 80059fe:	a90b      	add	r1, sp, #44	; 0x2c
 8005a00:	0038      	movs	r0, r7
 8005a02:	f7fe fba9 	bl	8004158 <f_open>
		fresult = f_lseek(&fil, fil.fsize);
 8005a06:	4b11      	ldr	r3, [pc, #68]	; (8005a4c <main+0x48c>)
		fresult = f_open(&fil, name, FA_OPEN_ALWAYS | FA_WRITE);
 8005a08:	7028      	strb	r0, [r5, #0]
		fresult = f_lseek(&fil, fil.fsize);
 8005a0a:	58f9      	ldr	r1, [r7, r3]
 8005a0c:	0038      	movs	r0, r7
 8005a0e:	f7fe ff87 	bl	8004920 <f_lseek>
		fresult = f_puts(str, &fil);
 8005a12:	0039      	movs	r1, r7
		fresult = f_lseek(&fil, fil.fsize);
 8005a14:	7028      	strb	r0, [r5, #0]
		fresult = f_puts(str, &fil);
 8005a16:	480b      	ldr	r0, [pc, #44]	; (8005a44 <main+0x484>)
 8005a18:	f7ff f9f5 	bl	8004e06 <f_puts>
 8005a1c:	7028      	strb	r0, [r5, #0]
		f_close(&fil);
 8005a1e:	0038      	movs	r0, r7
 8005a20:	f7fe ff68 	bl	80048f4 <f_close>
    HAL_Delay(1); //1ms delay
 8005a24:	2001      	movs	r0, #1
 8005a26:	f7fb fbd9 	bl	80011dc <HAL_Delay>
	if (adc_flag == 0) {
 8005a2a:	e731      	b.n	8005890 <main+0x2d0>
    f_gets(buffer, fil.fsize, &fil);
 8005a2c:	0022      	movs	r2, r4
 8005a2e:	0030      	movs	r0, r6
 8005a30:	f7ff f9c2 	bl	8004db8 <f_gets>
    send_uart(buffer);
 8005a34:	0030      	movs	r0, r6
 8005a36:	f7ff fd75 	bl	8005524 <send_uart>
 8005a3a:	e750      	b.n	80058de <main+0x31e>
 8005a3c:	20001410 	.word	0x20001410
 8005a40:	08006cae 	.word	0x08006cae
 8005a44:	200014c0 	.word	0x200014c0
 8005a48:	2000157c 	.word	0x2000157c
 8005a4c:	0000040c 	.word	0x0000040c

08005a50 <HAL_GPIO_EXTI_Callback>:
  * @retval None
  */
void HAL_GPIO_EXTI_Callback(uint16_t GPIO_Pin)
{
    /* Toggle LED1 */
    bp++;
 8005a50:	4a02      	ldr	r2, [pc, #8]	; (8005a5c <HAL_GPIO_EXTI_Callback+0xc>)
 8005a52:	6813      	ldr	r3, [r2, #0]
 8005a54:	3301      	adds	r3, #1
 8005a56:	6013      	str	r3, [r2, #0]
}
 8005a58:	4770      	bx	lr
 8005a5a:	46c0      	nop			; (mov r8, r8)
 8005a5c:	200002d8 	.word	0x200002d8

08005a60 <HAL_ADC_ConvCpltCallback>:

void HAL_ADC_ConvCpltCallback(ADC_HandleTypeDef* hadc)
{
 8005a60:	2300      	movs	r3, #0
	for (int i =0; i<8; i++)
	{
	   adc[i] = adc_buf[i];  // store the values in adc[]
 8005a62:	4a05      	ldr	r2, [pc, #20]	; (8005a78 <HAL_ADC_ConvCpltCallback+0x18>)
 8005a64:	4905      	ldr	r1, [pc, #20]	; (8005a7c <HAL_ADC_ConvCpltCallback+0x1c>)
 8005a66:	58c8      	ldr	r0, [r1, r3]
 8005a68:	50d0      	str	r0, [r2, r3]
 8005a6a:	3304      	adds	r3, #4
	for (int i =0; i<8; i++)
 8005a6c:	2b20      	cmp	r3, #32
 8005a6e:	d1fa      	bne.n	8005a66 <HAL_ADC_ConvCpltCallback+0x6>
	}
	adc_flag = 1;
 8005a70:	2201      	movs	r2, #1
 8005a72:	4b03      	ldr	r3, [pc, #12]	; (8005a80 <HAL_ADC_ConvCpltCallback+0x20>)
 8005a74:	601a      	str	r2, [r3, #0]
}
 8005a76:	4770      	bx	lr
 8005a78:	20001410 	.word	0x20001410
 8005a7c:	200014a0 	.word	0x200014a0
 8005a80:	200002d4 	.word	0x200002d4

08005a84 <Error_Handler>:
{
  /* USER CODE BEGIN Error_Handler_Debug */
  /* User can add his own implementation to report the HAL error return state */

  /* USER CODE END Error_Handler_Debug */
}
 8005a84:	4770      	bx	lr
	...

08005a88 <HAL_MspInit>:
{
  /* USER CODE BEGIN MspInit 0 */

  /* USER CODE END MspInit 0 */

  __HAL_RCC_SYSCFG_CLK_ENABLE();
 8005a88:	2001      	movs	r0, #1
 8005a8a:	4b0a      	ldr	r3, [pc, #40]	; (8005ab4 <HAL_MspInit+0x2c>)
{
 8005a8c:	b082      	sub	sp, #8
  __HAL_RCC_SYSCFG_CLK_ENABLE();
 8005a8e:	6999      	ldr	r1, [r3, #24]
 8005a90:	4301      	orrs	r1, r0
 8005a92:	6199      	str	r1, [r3, #24]
  __HAL_RCC_PWR_CLK_ENABLE();
 8005a94:	2180      	movs	r1, #128	; 0x80
  __HAL_RCC_SYSCFG_CLK_ENABLE();
 8005a96:	699a      	ldr	r2, [r3, #24]
  __HAL_RCC_PWR_CLK_ENABLE();
 8005a98:	0549      	lsls	r1, r1, #21
  __HAL_RCC_SYSCFG_CLK_ENABLE();
 8005a9a:	4002      	ands	r2, r0
 8005a9c:	9200      	str	r2, [sp, #0]
 8005a9e:	9a00      	ldr	r2, [sp, #0]
  __HAL_RCC_PWR_CLK_ENABLE();
 8005aa0:	69da      	ldr	r2, [r3, #28]
 8005aa2:	430a      	orrs	r2, r1
 8005aa4:	61da      	str	r2, [r3, #28]
 8005aa6:	69db      	ldr	r3, [r3, #28]
 8005aa8:	400b      	ands	r3, r1
 8005aaa:	9301      	str	r3, [sp, #4]
 8005aac:	9b01      	ldr	r3, [sp, #4]
  /* System interrupt init*/

  /* USER CODE BEGIN MspInit 1 */

  /* USER CODE END MspInit 1 */
}
 8005aae:	b002      	add	sp, #8
 8005ab0:	4770      	bx	lr
 8005ab2:	46c0      	nop			; (mov r8, r8)
 8005ab4:	40021000 	.word	0x40021000

08005ab8 <HAL_ADC_MspInit>:
* This function configures the hardware resources used in this example
* @param hadc: ADC handle pointer
* @retval None
*/
void HAL_ADC_MspInit(ADC_HandleTypeDef* hadc)
{
 8005ab8:	b570      	push	{r4, r5, r6, lr}
 8005aba:	0005      	movs	r5, r0
 8005abc:	b088      	sub	sp, #32
  GPIO_InitTypeDef GPIO_InitStruct = {0};
 8005abe:	2214      	movs	r2, #20
 8005ac0:	2100      	movs	r1, #0
 8005ac2:	a803      	add	r0, sp, #12
 8005ac4:	f000 f973 	bl	8005dae <memset>
  if(hadc->Instance==ADC1)
 8005ac8:	4b1c      	ldr	r3, [pc, #112]	; (8005b3c <HAL_ADC_MspInit+0x84>)
 8005aca:	682a      	ldr	r2, [r5, #0]
 8005acc:	429a      	cmp	r2, r3
 8005ace:	d132      	bne.n	8005b36 <HAL_ADC_MspInit+0x7e>
  {
  /* USER CODE BEGIN ADC1_MspInit 0 */

  /* USER CODE END ADC1_MspInit 0 */
    /* Peripheral clock enable */
    __HAL_RCC_ADC1_CLK_ENABLE();
 8005ad0:	2680      	movs	r6, #128	; 0x80

    __HAL_RCC_GPIOA_CLK_ENABLE();
 8005ad2:	2180      	movs	r1, #128	; 0x80
    __HAL_RCC_ADC1_CLK_ENABLE();
 8005ad4:	4b1a      	ldr	r3, [pc, #104]	; (8005b40 <HAL_ADC_MspInit+0x88>)
 8005ad6:	00b6      	lsls	r6, r6, #2
 8005ad8:	699a      	ldr	r2, [r3, #24]
    __HAL_RCC_GPIOA_CLK_ENABLE();
 8005ada:	0289      	lsls	r1, r1, #10
    __HAL_RCC_ADC1_CLK_ENABLE();
 8005adc:	4332      	orrs	r2, r6
 8005ade:	619a      	str	r2, [r3, #24]
 8005ae0:	699a      	ldr	r2, [r3, #24]
    */
    GPIO_InitStruct.Pin = GPIO_PIN_0|GPIO_PIN_1|GPIO_PIN_2|GPIO_PIN_3
                          |GPIO_PIN_4|GPIO_PIN_5|GPIO_PIN_6|GPIO_PIN_7;
    GPIO_InitStruct.Mode = GPIO_MODE_ANALOG;
    GPIO_InitStruct.Pull = GPIO_NOPULL;
    HAL_GPIO_Init(GPIOA, &GPIO_InitStruct);
 8005ae2:	2090      	movs	r0, #144	; 0x90
    __HAL_RCC_ADC1_CLK_ENABLE();
 8005ae4:	4032      	ands	r2, r6
 8005ae6:	9201      	str	r2, [sp, #4]
 8005ae8:	9a01      	ldr	r2, [sp, #4]
    __HAL_RCC_GPIOA_CLK_ENABLE();
 8005aea:	695a      	ldr	r2, [r3, #20]
    HAL_GPIO_Init(GPIOA, &GPIO_InitStruct);
 8005aec:	05c0      	lsls	r0, r0, #23
    __HAL_RCC_GPIOA_CLK_ENABLE();
 8005aee:	430a      	orrs	r2, r1
 8005af0:	615a      	str	r2, [r3, #20]
 8005af2:	695b      	ldr	r3, [r3, #20]
 8005af4:	400b      	ands	r3, r1
 8005af6:	9302      	str	r3, [sp, #8]
 8005af8:	9b02      	ldr	r3, [sp, #8]
    GPIO_InitStruct.Pin = GPIO_PIN_0|GPIO_PIN_1|GPIO_PIN_2|GPIO_PIN_3
 8005afa:	23ff      	movs	r3, #255	; 0xff
    HAL_GPIO_Init(GPIOA, &GPIO_InitStruct);
 8005afc:	a903      	add	r1, sp, #12
    GPIO_InitStruct.Pin = GPIO_PIN_0|GPIO_PIN_1|GPIO_PIN_2|GPIO_PIN_3
 8005afe:	9303      	str	r3, [sp, #12]
    GPIO_InitStruct.Mode = GPIO_MODE_ANALOG;
 8005b00:	3bfc      	subs	r3, #252	; 0xfc
 8005b02:	9304      	str	r3, [sp, #16]
    HAL_GPIO_Init(GPIOA, &GPIO_InitStruct);
 8005b04:	f7fb fee6 	bl	80018d4 <HAL_GPIO_Init>
    /* ADC1 DMA Init */
    /* ADC Init */
    hdma_adc.Instance = DMA1_Channel1;
    hdma_adc.Init.Direction = DMA_PERIPH_TO_MEMORY;
    hdma_adc.Init.PeriphInc = DMA_PINC_DISABLE;
    hdma_adc.Init.MemInc = DMA_MINC_ENABLE;
 8005b08:	2280      	movs	r2, #128	; 0x80
    hdma_adc.Instance = DMA1_Channel1;
 8005b0a:	4c0e      	ldr	r4, [pc, #56]	; (8005b44 <HAL_ADC_MspInit+0x8c>)
 8005b0c:	4b0e      	ldr	r3, [pc, #56]	; (8005b48 <HAL_ADC_MspInit+0x90>)
    hdma_adc.Init.MemInc = DMA_MINC_ENABLE;
 8005b0e:	60e2      	str	r2, [r4, #12]
    hdma_adc.Init.PeriphDataAlignment = DMA_PDATAALIGN_WORD;
    hdma_adc.Init.MemDataAlignment = DMA_MDATAALIGN_WORD;
 8005b10:	2280      	movs	r2, #128	; 0x80
    hdma_adc.Instance = DMA1_Channel1;
 8005b12:	6023      	str	r3, [r4, #0]
    hdma_adc.Init.Direction = DMA_PERIPH_TO_MEMORY;
 8005b14:	2300      	movs	r3, #0
    hdma_adc.Init.MemDataAlignment = DMA_MDATAALIGN_WORD;
 8005b16:	0112      	lsls	r2, r2, #4
    hdma_adc.Init.Mode = DMA_NORMAL;
    hdma_adc.Init.Priority = DMA_PRIORITY_LOW;
    if (HAL_DMA_Init(&hdma_adc) != HAL_OK)
 8005b18:	0020      	movs	r0, r4
    hdma_adc.Init.Direction = DMA_PERIPH_TO_MEMORY;
 8005b1a:	6063      	str	r3, [r4, #4]
    hdma_adc.Init.PeriphInc = DMA_PINC_DISABLE;
 8005b1c:	60a3      	str	r3, [r4, #8]
    hdma_adc.Init.PeriphDataAlignment = DMA_PDATAALIGN_WORD;
 8005b1e:	6126      	str	r6, [r4, #16]
    hdma_adc.Init.MemDataAlignment = DMA_MDATAALIGN_WORD;
 8005b20:	6162      	str	r2, [r4, #20]
    hdma_adc.Init.Mode = DMA_NORMAL;
 8005b22:	61a3      	str	r3, [r4, #24]
    hdma_adc.Init.Priority = DMA_PRIORITY_LOW;
 8005b24:	61e3      	str	r3, [r4, #28]
    if (HAL_DMA_Init(&hdma_adc) != HAL_OK)
 8005b26:	f7fb fe1f 	bl	8001768 <HAL_DMA_Init>
 8005b2a:	2800      	cmp	r0, #0
 8005b2c:	d001      	beq.n	8005b32 <HAL_ADC_MspInit+0x7a>
    {
      Error_Handler();
 8005b2e:	f7ff ffa9 	bl	8005a84 <Error_Handler>
    }

    __HAL_LINKDMA(hadc,DMA_Handle,hdma_adc);
 8005b32:	632c      	str	r4, [r5, #48]	; 0x30
 8005b34:	6265      	str	r5, [r4, #36]	; 0x24
  /* USER CODE BEGIN ADC1_MspInit 1 */

  /* USER CODE END ADC1_MspInit 1 */
  }

}
 8005b36:	b008      	add	sp, #32
 8005b38:	bd70      	pop	{r4, r5, r6, pc}
 8005b3a:	46c0      	nop			; (mov r8, r8)
 8005b3c:	40012400 	.word	0x40012400
 8005b40:	40021000 	.word	0x40021000
 8005b44:	200014f8 	.word	0x200014f8
 8005b48:	40020008 	.word	0x40020008

08005b4c <HAL_SPI_MspInit>:
* This function configures the hardware resources used in this example
* @param hspi: SPI handle pointer
* @retval None
*/
void HAL_SPI_MspInit(SPI_HandleTypeDef* hspi)
{
 8005b4c:	b510      	push	{r4, lr}
 8005b4e:	0004      	movs	r4, r0
 8005b50:	b088      	sub	sp, #32
  GPIO_InitTypeDef GPIO_InitStruct = {0};
 8005b52:	2214      	movs	r2, #20
 8005b54:	2100      	movs	r1, #0
 8005b56:	a803      	add	r0, sp, #12
 8005b58:	f000 f929 	bl	8005dae <memset>
  if(hspi->Instance==SPI1)
 8005b5c:	4b11      	ldr	r3, [pc, #68]	; (8005ba4 <HAL_SPI_MspInit+0x58>)
 8005b5e:	6822      	ldr	r2, [r4, #0]
 8005b60:	429a      	cmp	r2, r3
 8005b62:	d11c      	bne.n	8005b9e <HAL_SPI_MspInit+0x52>
  {
  /* USER CODE BEGIN SPI1_MspInit 0 */

  /* USER CODE END SPI1_MspInit 0 */
    /* Peripheral clock enable */
    __HAL_RCC_SPI1_CLK_ENABLE();
 8005b64:	2080      	movs	r0, #128	; 0x80
 8005b66:	4b10      	ldr	r3, [pc, #64]	; (8005ba8 <HAL_SPI_MspInit+0x5c>)
 8005b68:	0140      	lsls	r0, r0, #5
 8005b6a:	6999      	ldr	r1, [r3, #24]
 8005b6c:	4301      	orrs	r1, r0
 8005b6e:	6199      	str	r1, [r3, #24]

    __HAL_RCC_GPIOB_CLK_ENABLE();
 8005b70:	2180      	movs	r1, #128	; 0x80
    __HAL_RCC_SPI1_CLK_ENABLE();
 8005b72:	699a      	ldr	r2, [r3, #24]
    __HAL_RCC_GPIOB_CLK_ENABLE();
 8005b74:	02c9      	lsls	r1, r1, #11
    __HAL_RCC_SPI1_CLK_ENABLE();
 8005b76:	4002      	ands	r2, r0
 8005b78:	9201      	str	r2, [sp, #4]
 8005b7a:	9a01      	ldr	r2, [sp, #4]
    __HAL_RCC_GPIOB_CLK_ENABLE();
 8005b7c:	695a      	ldr	r2, [r3, #20]
    GPIO_InitStruct.Pin = GPIO_PIN_3|GPIO_PIN_4|GPIO_PIN_5;
    GPIO_InitStruct.Mode = GPIO_MODE_AF_PP;
    GPIO_InitStruct.Pull = GPIO_NOPULL;
    GPIO_InitStruct.Speed = GPIO_SPEED_FREQ_HIGH;
    GPIO_InitStruct.Alternate = GPIO_AF0_SPI1;
    HAL_GPIO_Init(GPIOB, &GPIO_InitStruct);
 8005b7e:	480b      	ldr	r0, [pc, #44]	; (8005bac <HAL_SPI_MspInit+0x60>)
    __HAL_RCC_GPIOB_CLK_ENABLE();
 8005b80:	430a      	orrs	r2, r1
 8005b82:	615a      	str	r2, [r3, #20]
 8005b84:	695b      	ldr	r3, [r3, #20]
 8005b86:	400b      	ands	r3, r1
 8005b88:	9302      	str	r3, [sp, #8]
 8005b8a:	9b02      	ldr	r3, [sp, #8]
    GPIO_InitStruct.Pin = GPIO_PIN_3|GPIO_PIN_4|GPIO_PIN_5;
 8005b8c:	2338      	movs	r3, #56	; 0x38
 8005b8e:	9303      	str	r3, [sp, #12]
    GPIO_InitStruct.Mode = GPIO_MODE_AF_PP;
 8005b90:	3b36      	subs	r3, #54	; 0x36
 8005b92:	9304      	str	r3, [sp, #16]
    HAL_GPIO_Init(GPIOB, &GPIO_InitStruct);
 8005b94:	a903      	add	r1, sp, #12
    GPIO_InitStruct.Speed = GPIO_SPEED_FREQ_HIGH;
 8005b96:	3301      	adds	r3, #1
 8005b98:	9306      	str	r3, [sp, #24]
    HAL_GPIO_Init(GPIOB, &GPIO_InitStruct);
 8005b9a:	f7fb fe9b 	bl	80018d4 <HAL_GPIO_Init>
  /* USER CODE BEGIN SPI1_MspInit 1 */

  /* USER CODE END SPI1_MspInit 1 */
  }

}
 8005b9e:	b008      	add	sp, #32
 8005ba0:	bd10      	pop	{r4, pc}
 8005ba2:	46c0      	nop			; (mov r8, r8)
 8005ba4:	40013000 	.word	0x40013000
 8005ba8:	40021000 	.word	0x40021000
 8005bac:	48000400 	.word	0x48000400

08005bb0 <HAL_UART_MspInit>:
* This function configures the hardware resources used in this example
* @param huart: UART handle pointer
* @retval None
*/
void HAL_UART_MspInit(UART_HandleTypeDef* huart)
{
 8005bb0:	b510      	push	{r4, lr}
 8005bb2:	0004      	movs	r4, r0
 8005bb4:	b088      	sub	sp, #32
  GPIO_InitTypeDef GPIO_InitStruct = {0};
 8005bb6:	2214      	movs	r2, #20
 8005bb8:	2100      	movs	r1, #0
 8005bba:	a803      	add	r0, sp, #12
 8005bbc:	f000 f8f7 	bl	8005dae <memset>
  if(huart->Instance==USART1)
 8005bc0:	4b13      	ldr	r3, [pc, #76]	; (8005c10 <HAL_UART_MspInit+0x60>)
 8005bc2:	6822      	ldr	r2, [r4, #0]
 8005bc4:	429a      	cmp	r2, r3
 8005bc6:	d120      	bne.n	8005c0a <HAL_UART_MspInit+0x5a>
  {
  /* USER CODE BEGIN USART1_MspInit 0 */

  /* USER CODE END USART1_MspInit 0 */
    /* Peripheral clock enable */
    __HAL_RCC_USART1_CLK_ENABLE();
 8005bc8:	2080      	movs	r0, #128	; 0x80
 8005bca:	4b12      	ldr	r3, [pc, #72]	; (8005c14 <HAL_UART_MspInit+0x64>)
 8005bcc:	01c0      	lsls	r0, r0, #7
 8005bce:	6999      	ldr	r1, [r3, #24]
 8005bd0:	4301      	orrs	r1, r0
 8005bd2:	6199      	str	r1, [r3, #24]

    __HAL_RCC_GPIOA_CLK_ENABLE();
 8005bd4:	2180      	movs	r1, #128	; 0x80
    __HAL_RCC_USART1_CLK_ENABLE();
 8005bd6:	699a      	ldr	r2, [r3, #24]
    __HAL_RCC_GPIOA_CLK_ENABLE();
 8005bd8:	0289      	lsls	r1, r1, #10
    __HAL_RCC_USART1_CLK_ENABLE();
 8005bda:	4002      	ands	r2, r0
 8005bdc:	9201      	str	r2, [sp, #4]
 8005bde:	9a01      	ldr	r2, [sp, #4]
    __HAL_RCC_GPIOA_CLK_ENABLE();
 8005be0:	695a      	ldr	r2, [r3, #20]
    GPIO_InitStruct.Pin = GPIO_PIN_9|GPIO_PIN_10;
    GPIO_InitStruct.Mode = GPIO_MODE_AF_PP;
    GPIO_InitStruct.Pull = GPIO_NOPULL;
    GPIO_InitStruct.Speed = GPIO_SPEED_FREQ_HIGH;
    GPIO_InitStruct.Alternate = GPIO_AF1_USART1;
    HAL_GPIO_Init(GPIOA, &GPIO_InitStruct);
 8005be2:	2090      	movs	r0, #144	; 0x90
    __HAL_RCC_GPIOA_CLK_ENABLE();
 8005be4:	430a      	orrs	r2, r1
 8005be6:	615a      	str	r2, [r3, #20]
 8005be8:	695b      	ldr	r3, [r3, #20]
    HAL_GPIO_Init(GPIOA, &GPIO_InitStruct);
 8005bea:	05c0      	lsls	r0, r0, #23
    __HAL_RCC_GPIOA_CLK_ENABLE();
 8005bec:	400b      	ands	r3, r1
 8005bee:	9302      	str	r3, [sp, #8]
 8005bf0:	9b02      	ldr	r3, [sp, #8]
    GPIO_InitStruct.Pin = GPIO_PIN_9|GPIO_PIN_10;
 8005bf2:	23c0      	movs	r3, #192	; 0xc0
 8005bf4:	00db      	lsls	r3, r3, #3
 8005bf6:	9303      	str	r3, [sp, #12]
    GPIO_InitStruct.Mode = GPIO_MODE_AF_PP;
 8005bf8:	2302      	movs	r3, #2
 8005bfa:	9304      	str	r3, [sp, #16]
    GPIO_InitStruct.Speed = GPIO_SPEED_FREQ_HIGH;
 8005bfc:	3301      	adds	r3, #1
 8005bfe:	9306      	str	r3, [sp, #24]
    HAL_GPIO_Init(GPIOA, &GPIO_InitStruct);
 8005c00:	a903      	add	r1, sp, #12
    GPIO_InitStruct.Alternate = GPIO_AF1_USART1;
 8005c02:	3b02      	subs	r3, #2
 8005c04:	9307      	str	r3, [sp, #28]
    HAL_GPIO_Init(GPIOA, &GPIO_InitStruct);
 8005c06:	f7fb fe65 	bl	80018d4 <HAL_GPIO_Init>
  /* USER CODE BEGIN USART1_MspInit 1 */

  /* USER CODE END USART1_MspInit 1 */
  }

}
 8005c0a:	b008      	add	sp, #32
 8005c0c:	bd10      	pop	{r4, pc}
 8005c0e:	46c0      	nop			; (mov r8, r8)
 8005c10:	40013800 	.word	0x40013800
 8005c14:	40021000 	.word	0x40021000

08005c18 <SDTimer_Handler>:
volatile uint8_t FatFsCnt = 0;
volatile uint8_t Timer1, Timer2;

void SDTimer_Handler(void)
{
  if(Timer1 > 0)
 8005c18:	4a08      	ldr	r2, [pc, #32]	; (8005c3c <SDTimer_Handler+0x24>)
 8005c1a:	7813      	ldrb	r3, [r2, #0]
 8005c1c:	2b00      	cmp	r3, #0
 8005c1e:	d003      	beq.n	8005c28 <SDTimer_Handler+0x10>
    Timer1--;
 8005c20:	7813      	ldrb	r3, [r2, #0]
 8005c22:	3b01      	subs	r3, #1
 8005c24:	b2db      	uxtb	r3, r3
 8005c26:	7013      	strb	r3, [r2, #0]

  if(Timer2 > 0)
 8005c28:	4a05      	ldr	r2, [pc, #20]	; (8005c40 <SDTimer_Handler+0x28>)
 8005c2a:	7813      	ldrb	r3, [r2, #0]
 8005c2c:	2b00      	cmp	r3, #0
 8005c2e:	d003      	beq.n	8005c38 <SDTimer_Handler+0x20>
    Timer2--;
 8005c30:	7813      	ldrb	r3, [r2, #0]
 8005c32:	3b01      	subs	r3, #1
 8005c34:	b2db      	uxtb	r3, r3
 8005c36:	7013      	strb	r3, [r2, #0]
}
 8005c38:	4770      	bx	lr
 8005c3a:	46c0      	nop			; (mov r8, r8)
 8005c3c:	200019a9 	.word	0x200019a9
 8005c40:	200019a8 	.word	0x200019a8

08005c44 <NMI_Handler>:
 8005c44:	4770      	bx	lr

08005c46 <HardFault_Handler>:

/**
  * @brief This function handles Hard fault interrupt.
  */
void HardFault_Handler(void)
{
 8005c46:	e7fe      	b.n	8005c46 <HardFault_Handler>

08005c48 <SVC_Handler>:
 8005c48:	4770      	bx	lr

08005c4a <PendSV_Handler>:

  /* USER CODE END PendSV_IRQn 0 */
  /* USER CODE BEGIN PendSV_IRQn 1 */

  /* USER CODE END PendSV_IRQn 1 */
}
 8005c4a:	4770      	bx	lr

08005c4c <SysTick_Handler>:

/**
  * @brief This function handles System tick timer.
  */
void SysTick_Handler(void)
{
 8005c4c:	b510      	push	{r4, lr}
  /* USER CODE BEGIN SysTick_IRQn 0 */

	FatFsCnt++;
 8005c4e:	4a07      	ldr	r2, [pc, #28]	; (8005c6c <SysTick_Handler+0x20>)
 8005c50:	7813      	ldrb	r3, [r2, #0]
 8005c52:	3301      	adds	r3, #1
 8005c54:	b2db      	uxtb	r3, r3
 8005c56:	7013      	strb	r3, [r2, #0]
    if(FatFsCnt >= 10)
 8005c58:	7813      	ldrb	r3, [r2, #0]
 8005c5a:	2b09      	cmp	r3, #9
 8005c5c:	d903      	bls.n	8005c66 <SysTick_Handler+0x1a>
    {
	  FatFsCnt = 0;
 8005c5e:	2300      	movs	r3, #0
 8005c60:	7013      	strb	r3, [r2, #0]
	  SDTimer_Handler();
 8005c62:	f7ff ffd9 	bl	8005c18 <SDTimer_Handler>
    }


  /* USER CODE END SysTick_IRQn 0 */
  HAL_IncTick();
 8005c66:	f7fb faa7 	bl	80011b8 <HAL_IncTick>
  /* USER CODE BEGIN SysTick_IRQn 1 */

  /* USER CODE END SysTick_IRQn 1 */
}
 8005c6a:	bd10      	pop	{r4, pc}
 8005c6c:	200002dc 	.word	0x200002dc

08005c70 <EXTI0_1_IRQHandler>:

/**
  * @brief This function handles EXTI line 0 and 1 interrupts.
  */
void EXTI0_1_IRQHandler(void)
{
 8005c70:	b510      	push	{r4, lr}
  /* USER CODE BEGIN EXTI0_1_IRQn 0 */

  /* USER CODE END EXTI0_1_IRQn 0 */
  HAL_GPIO_EXTI_IRQHandler(GPIO_PIN_0);
 8005c72:	2001      	movs	r0, #1
 8005c74:	f7fb feea 	bl	8001a4c <HAL_GPIO_EXTI_IRQHandler>
  /* USER CODE BEGIN EXTI0_1_IRQn 1 */

  /* USER CODE END EXTI0_1_IRQn 1 */
}
 8005c78:	bd10      	pop	{r4, pc}
	...

08005c7c <DMA1_Channel1_IRQHandler>:

/**
  * @brief This function handles DMA1 channel 1 interrupt.
  */
void DMA1_Channel1_IRQHandler(void)
{
 8005c7c:	b510      	push	{r4, lr}
  /* USER CODE BEGIN DMA1_Channel1_IRQn 0 */

  /* USER CODE END DMA1_Channel1_IRQn 0 */
  HAL_DMA_IRQHandler(&hdma_adc);
 8005c7e:	4802      	ldr	r0, [pc, #8]	; (8005c88 <DMA1_Channel1_IRQHandler+0xc>)
 8005c80:	f7fb fddf 	bl	8001842 <HAL_DMA_IRQHandler>
  /* USER CODE BEGIN DMA1_Channel1_IRQn 1 */

  /* USER CODE END DMA1_Channel1_IRQn 1 */
}
 8005c84:	bd10      	pop	{r4, pc}
 8005c86:	46c0      	nop			; (mov r8, r8)
 8005c88:	200014f8 	.word	0x200014f8

08005c8c <_sbrk>:
{
	extern char end asm("end");
	static char *heap_end;
	char *prev_heap_end;

	if (heap_end == 0)
 8005c8c:	4b0a      	ldr	r3, [pc, #40]	; (8005cb8 <_sbrk+0x2c>)
{
 8005c8e:	b510      	push	{r4, lr}
	if (heap_end == 0)
 8005c90:	6819      	ldr	r1, [r3, #0]
{
 8005c92:	0002      	movs	r2, r0
	if (heap_end == 0)
 8005c94:	2900      	cmp	r1, #0
 8005c96:	d101      	bne.n	8005c9c <_sbrk+0x10>
		heap_end = &end;
 8005c98:	4908      	ldr	r1, [pc, #32]	; (8005cbc <_sbrk+0x30>)
 8005c9a:	6019      	str	r1, [r3, #0]

	prev_heap_end = heap_end;
	if (heap_end + incr > stack_ptr)
 8005c9c:	4669      	mov	r1, sp
	prev_heap_end = heap_end;
 8005c9e:	6818      	ldr	r0, [r3, #0]
	if (heap_end + incr > stack_ptr)
 8005ca0:	1882      	adds	r2, r0, r2
 8005ca2:	428a      	cmp	r2, r1
 8005ca4:	d906      	bls.n	8005cb4 <_sbrk+0x28>
	{
//		write(1, "Heap and stack collision\n", 25);
//		abort();
		errno = ENOMEM;
 8005ca6:	f000 f84f 	bl	8005d48 <__errno>
 8005caa:	230c      	movs	r3, #12
 8005cac:	6003      	str	r3, [r0, #0]
		return (caddr_t) -1;
 8005cae:	2001      	movs	r0, #1
 8005cb0:	4240      	negs	r0, r0
	}

	heap_end += incr;

	return (caddr_t) prev_heap_end;
}
 8005cb2:	bd10      	pop	{r4, pc}
	heap_end += incr;
 8005cb4:	601a      	str	r2, [r3, #0]
	return (caddr_t) prev_heap_end;
 8005cb6:	e7fc      	b.n	8005cb2 <_sbrk+0x26>
 8005cb8:	200002e0 	.word	0x200002e0
 8005cbc:	200019b0 	.word	0x200019b0

08005cc0 <SystemInit>:
                         before branch to main program. This call is made inside
                         the "startup_stm32f0xx.s" file.
                         User can setups the default system clock (System clock source, PLL Multiplier
                         and Divider factors, AHB/APBx prescalers and Flash settings).
   */
}
 8005cc0:	4770      	bx	lr

08005cc2 <USER_initialize>:
  * @retval DSTATUS: Operation status
  */
DSTATUS USER_initialize (
	BYTE pdrv           /* Physical drive nmuber to identify the drive */
)
{
 8005cc2:	b510      	push	{r4, lr}
  /* USER CODE BEGIN INIT */
	return SD_disk_initialize (pdrv);
 8005cc4:	f7ff fa40 	bl	8005148 <SD_disk_initialize>
 8005cc8:	b2c0      	uxtb	r0, r0
  /* USER CODE END INIT */
}
 8005cca:	bd10      	pop	{r4, pc}

08005ccc <USER_status>:
  * @retval DSTATUS: Operation status
  */
DSTATUS USER_status (
	BYTE pdrv       /* Physical drive number to identify the drive */
)
{
 8005ccc:	b510      	push	{r4, lr}
  /* USER CODE BEGIN STATUS */
	return SD_disk_status (pdrv);
 8005cce:	f7ff fad5 	bl	800527c <SD_disk_status>
 8005cd2:	b2c0      	uxtb	r0, r0
  /* USER CODE END STATUS */
}
 8005cd4:	bd10      	pop	{r4, pc}

08005cd6 <USER_read>:
	BYTE pdrv,      /* Physical drive nmuber to identify the drive */
	BYTE *buff,     /* Data buffer to store read data */
	DWORD sector,   /* Sector address in LBA */
	UINT count      /* Number of sectors to read */
)
{
 8005cd6:	b510      	push	{r4, lr}
  /* USER CODE BEGIN READ */
	return SD_disk_read(pdrv, buff, sector, count);
 8005cd8:	f7ff fada 	bl	8005290 <SD_disk_read>
 8005cdc:	b2c0      	uxtb	r0, r0
  /* USER CODE END READ */
}
 8005cde:	bd10      	pop	{r4, pc}

08005ce0 <USER_write>:
	BYTE pdrv,          /* Physical drive nmuber to identify the drive */
	const BYTE *buff,   /* Data to be written */
	DWORD sector,       /* Sector address in LBA */
	UINT count          /* Number of sectors to write */
)
{
 8005ce0:	b510      	push	{r4, lr}
  /* USER CODE BEGIN WRITE */
  /* USER CODE HERE */
	return SD_disk_write(pdrv, buff, sector, count);
 8005ce2:	f7ff fb1f 	bl	8005324 <SD_disk_write>
 8005ce6:	b2c0      	uxtb	r0, r0
  /* USER CODE END WRITE */
}
 8005ce8:	bd10      	pop	{r4, pc}

08005cea <USER_ioctl>:
DRESULT USER_ioctl (
	BYTE pdrv,      /* Physical drive nmuber (0..) */
	BYTE cmd,       /* Control code */
	void *buff      /* Buffer to send/receive control data */
)
{
 8005cea:	b510      	push	{r4, lr}
  /* USER CODE BEGIN IOCTL */
	return SD_disk_ioctl(pdrv, cmd, buff);
 8005cec:	f7ff fb74 	bl	80053d8 <SD_disk_ioctl>
 8005cf0:	b2c0      	uxtb	r0, r0
  /* USER CODE END IOCTL */
}
 8005cf2:	bd10      	pop	{r4, pc}

08005cf4 <Reset_Handler>:

  .section .text.Reset_Handler
  .weak Reset_Handler
  .type Reset_Handler, %function
Reset_Handler:
  ldr   r0, =_estack
 8005cf4:	480d      	ldr	r0, [pc, #52]	; (8005d2c <LoopForever+0x2>)
  mov   sp, r0          /* set stack pointer */
 8005cf6:	4685      	mov	sp, r0

/* Copy the data segment initializers from flash to SRAM */
  ldr r0, =_sdata
 8005cf8:	480d      	ldr	r0, [pc, #52]	; (8005d30 <LoopForever+0x6>)
  ldr r1, =_edata
 8005cfa:	490e      	ldr	r1, [pc, #56]	; (8005d34 <LoopForever+0xa>)
  ldr r2, =_sidata
 8005cfc:	4a0e      	ldr	r2, [pc, #56]	; (8005d38 <LoopForever+0xe>)
  movs r3, #0
 8005cfe:	2300      	movs	r3, #0
  b LoopCopyDataInit
 8005d00:	e002      	b.n	8005d08 <LoopCopyDataInit>

08005d02 <CopyDataInit>:

CopyDataInit:
  ldr r4, [r2, r3]
 8005d02:	58d4      	ldr	r4, [r2, r3]
  str r4, [r0, r3]
 8005d04:	50c4      	str	r4, [r0, r3]
  adds r3, r3, #4
 8005d06:	3304      	adds	r3, #4

08005d08 <LoopCopyDataInit>:

LoopCopyDataInit:
  adds r4, r0, r3
 8005d08:	18c4      	adds	r4, r0, r3
  cmp r4, r1
 8005d0a:	428c      	cmp	r4, r1
  bcc CopyDataInit
 8005d0c:	d3f9      	bcc.n	8005d02 <CopyDataInit>
  
/* Zero fill the bss segment. */
  ldr r2, =_sbss
 8005d0e:	4a0b      	ldr	r2, [pc, #44]	; (8005d3c <LoopForever+0x12>)
  ldr r4, =_ebss
 8005d10:	4c0b      	ldr	r4, [pc, #44]	; (8005d40 <LoopForever+0x16>)
  movs r3, #0
 8005d12:	2300      	movs	r3, #0
  b LoopFillZerobss
 8005d14:	e001      	b.n	8005d1a <LoopFillZerobss>

08005d16 <FillZerobss>:

FillZerobss:
  str  r3, [r2]
 8005d16:	6013      	str	r3, [r2, #0]
  adds r2, r2, #4
 8005d18:	3204      	adds	r2, #4

08005d1a <LoopFillZerobss>:

LoopFillZerobss:
  cmp r2, r4
 8005d1a:	42a2      	cmp	r2, r4
  bcc FillZerobss
 8005d1c:	d3fb      	bcc.n	8005d16 <FillZerobss>

/* Call the clock system intitialization function.*/
  bl  SystemInit
 8005d1e:	f7ff ffcf 	bl	8005cc0 <SystemInit>
/* Call static constructors */
  bl __libc_init_array
 8005d22:	f000 f817 	bl	8005d54 <__libc_init_array>
/* Call the application's entry point.*/
  bl main
 8005d26:	f7ff fc4b 	bl	80055c0 <main>

08005d2a <LoopForever>:

LoopForever:
    b LoopForever
 8005d2a:	e7fe      	b.n	8005d2a <LoopForever>
  ldr   r0, =_estack
 8005d2c:	20002000 	.word	0x20002000
  ldr r0, =_sdata
 8005d30:	20000000 	.word	0x20000000
  ldr r1, =_edata
 8005d34:	20000088 	.word	0x20000088
  ldr r2, =_sidata
 8005d38:	08006d88 	.word	0x08006d88
  ldr r2, =_sbss
 8005d3c:	20000088 	.word	0x20000088
  ldr r4, =_ebss
 8005d40:	200019b0 	.word	0x200019b0

08005d44 <ADC1_COMP_IRQHandler>:
 * @retval : None
*/
    .section .text.Default_Handler,"ax",%progbits
Default_Handler:
Infinite_Loop:
  b Infinite_Loop
 8005d44:	e7fe      	b.n	8005d44 <ADC1_COMP_IRQHandler>
	...

08005d48 <__errno>:
 8005d48:	4b01      	ldr	r3, [pc, #4]	; (8005d50 <__errno+0x8>)
 8005d4a:	6818      	ldr	r0, [r3, #0]
 8005d4c:	4770      	bx	lr
 8005d4e:	46c0      	nop			; (mov r8, r8)
 8005d50:	20000024 	.word	0x20000024

08005d54 <__libc_init_array>:
 8005d54:	b570      	push	{r4, r5, r6, lr}
 8005d56:	2600      	movs	r6, #0
 8005d58:	4d0c      	ldr	r5, [pc, #48]	; (8005d8c <__libc_init_array+0x38>)
 8005d5a:	4c0d      	ldr	r4, [pc, #52]	; (8005d90 <__libc_init_array+0x3c>)
 8005d5c:	1b64      	subs	r4, r4, r5
 8005d5e:	10a4      	asrs	r4, r4, #2
 8005d60:	42a6      	cmp	r6, r4
 8005d62:	d109      	bne.n	8005d78 <__libc_init_array+0x24>
 8005d64:	2600      	movs	r6, #0
 8005d66:	f000 fc43 	bl	80065f0 <_init>
 8005d6a:	4d0a      	ldr	r5, [pc, #40]	; (8005d94 <__libc_init_array+0x40>)
 8005d6c:	4c0a      	ldr	r4, [pc, #40]	; (8005d98 <__libc_init_array+0x44>)
 8005d6e:	1b64      	subs	r4, r4, r5
 8005d70:	10a4      	asrs	r4, r4, #2
 8005d72:	42a6      	cmp	r6, r4
 8005d74:	d105      	bne.n	8005d82 <__libc_init_array+0x2e>
 8005d76:	bd70      	pop	{r4, r5, r6, pc}
 8005d78:	00b3      	lsls	r3, r6, #2
 8005d7a:	58eb      	ldr	r3, [r5, r3]
 8005d7c:	4798      	blx	r3
 8005d7e:	3601      	adds	r6, #1
 8005d80:	e7ee      	b.n	8005d60 <__libc_init_array+0xc>
 8005d82:	00b3      	lsls	r3, r6, #2
 8005d84:	58eb      	ldr	r3, [r5, r3]
 8005d86:	4798      	blx	r3
 8005d88:	3601      	adds	r6, #1
 8005d8a:	e7f2      	b.n	8005d72 <__libc_init_array+0x1e>
 8005d8c:	08006d80 	.word	0x08006d80
 8005d90:	08006d80 	.word	0x08006d80
 8005d94:	08006d80 	.word	0x08006d80
 8005d98:	08006d84 	.word	0x08006d84

08005d9c <memcpy>:
 8005d9c:	2300      	movs	r3, #0
 8005d9e:	b510      	push	{r4, lr}
 8005da0:	429a      	cmp	r2, r3
 8005da2:	d100      	bne.n	8005da6 <memcpy+0xa>
 8005da4:	bd10      	pop	{r4, pc}
 8005da6:	5ccc      	ldrb	r4, [r1, r3]
 8005da8:	54c4      	strb	r4, [r0, r3]
 8005daa:	3301      	adds	r3, #1
 8005dac:	e7f8      	b.n	8005da0 <memcpy+0x4>

08005dae <memset>:
 8005dae:	0003      	movs	r3, r0
 8005db0:	1882      	adds	r2, r0, r2
 8005db2:	4293      	cmp	r3, r2
 8005db4:	d100      	bne.n	8005db8 <memset+0xa>
 8005db6:	4770      	bx	lr
 8005db8:	7019      	strb	r1, [r3, #0]
 8005dba:	3301      	adds	r3, #1
 8005dbc:	e7f9      	b.n	8005db2 <memset+0x4>
	...

08005dc0 <siprintf>:
 8005dc0:	b40e      	push	{r1, r2, r3}
 8005dc2:	b510      	push	{r4, lr}
 8005dc4:	b09d      	sub	sp, #116	; 0x74
 8005dc6:	a902      	add	r1, sp, #8
 8005dc8:	9002      	str	r0, [sp, #8]
 8005dca:	6108      	str	r0, [r1, #16]
 8005dcc:	480b      	ldr	r0, [pc, #44]	; (8005dfc <siprintf+0x3c>)
 8005dce:	2482      	movs	r4, #130	; 0x82
 8005dd0:	6088      	str	r0, [r1, #8]
 8005dd2:	6148      	str	r0, [r1, #20]
 8005dd4:	2001      	movs	r0, #1
 8005dd6:	4240      	negs	r0, r0
 8005dd8:	ab1f      	add	r3, sp, #124	; 0x7c
 8005dda:	81c8      	strh	r0, [r1, #14]
 8005ddc:	4808      	ldr	r0, [pc, #32]	; (8005e00 <siprintf+0x40>)
 8005dde:	cb04      	ldmia	r3!, {r2}
 8005de0:	00a4      	lsls	r4, r4, #2
 8005de2:	6800      	ldr	r0, [r0, #0]
 8005de4:	9301      	str	r3, [sp, #4]
 8005de6:	818c      	strh	r4, [r1, #12]
 8005de8:	f000 f86e 	bl	8005ec8 <_svfiprintf_r>
 8005dec:	2300      	movs	r3, #0
 8005dee:	9a02      	ldr	r2, [sp, #8]
 8005df0:	7013      	strb	r3, [r2, #0]
 8005df2:	b01d      	add	sp, #116	; 0x74
 8005df4:	bc10      	pop	{r4}
 8005df6:	bc08      	pop	{r3}
 8005df8:	b003      	add	sp, #12
 8005dfa:	4718      	bx	r3
 8005dfc:	7fffffff 	.word	0x7fffffff
 8005e00:	20000024 	.word	0x20000024

08005e04 <__ssputs_r>:
 8005e04:	b5f0      	push	{r4, r5, r6, r7, lr}
 8005e06:	688e      	ldr	r6, [r1, #8]
 8005e08:	b085      	sub	sp, #20
 8005e0a:	0007      	movs	r7, r0
 8005e0c:	000c      	movs	r4, r1
 8005e0e:	9203      	str	r2, [sp, #12]
 8005e10:	9301      	str	r3, [sp, #4]
 8005e12:	429e      	cmp	r6, r3
 8005e14:	d839      	bhi.n	8005e8a <__ssputs_r+0x86>
 8005e16:	2390      	movs	r3, #144	; 0x90
 8005e18:	898a      	ldrh	r2, [r1, #12]
 8005e1a:	00db      	lsls	r3, r3, #3
 8005e1c:	421a      	tst	r2, r3
 8005e1e:	d034      	beq.n	8005e8a <__ssputs_r+0x86>
 8005e20:	2503      	movs	r5, #3
 8005e22:	6909      	ldr	r1, [r1, #16]
 8005e24:	6823      	ldr	r3, [r4, #0]
 8005e26:	1a5b      	subs	r3, r3, r1
 8005e28:	9302      	str	r3, [sp, #8]
 8005e2a:	6963      	ldr	r3, [r4, #20]
 8005e2c:	9802      	ldr	r0, [sp, #8]
 8005e2e:	435d      	muls	r5, r3
 8005e30:	0feb      	lsrs	r3, r5, #31
 8005e32:	195d      	adds	r5, r3, r5
 8005e34:	9b01      	ldr	r3, [sp, #4]
 8005e36:	106d      	asrs	r5, r5, #1
 8005e38:	3301      	adds	r3, #1
 8005e3a:	181b      	adds	r3, r3, r0
 8005e3c:	42ab      	cmp	r3, r5
 8005e3e:	d900      	bls.n	8005e42 <__ssputs_r+0x3e>
 8005e40:	001d      	movs	r5, r3
 8005e42:	0553      	lsls	r3, r2, #21
 8005e44:	d532      	bpl.n	8005eac <__ssputs_r+0xa8>
 8005e46:	0029      	movs	r1, r5
 8005e48:	0038      	movs	r0, r7
 8005e4a:	f000 fb31 	bl	80064b0 <_malloc_r>
 8005e4e:	1e06      	subs	r6, r0, #0
 8005e50:	d109      	bne.n	8005e66 <__ssputs_r+0x62>
 8005e52:	230c      	movs	r3, #12
 8005e54:	603b      	str	r3, [r7, #0]
 8005e56:	2340      	movs	r3, #64	; 0x40
 8005e58:	2001      	movs	r0, #1
 8005e5a:	89a2      	ldrh	r2, [r4, #12]
 8005e5c:	4240      	negs	r0, r0
 8005e5e:	4313      	orrs	r3, r2
 8005e60:	81a3      	strh	r3, [r4, #12]
 8005e62:	b005      	add	sp, #20
 8005e64:	bdf0      	pop	{r4, r5, r6, r7, pc}
 8005e66:	9a02      	ldr	r2, [sp, #8]
 8005e68:	6921      	ldr	r1, [r4, #16]
 8005e6a:	f7ff ff97 	bl	8005d9c <memcpy>
 8005e6e:	89a3      	ldrh	r3, [r4, #12]
 8005e70:	4a14      	ldr	r2, [pc, #80]	; (8005ec4 <__ssputs_r+0xc0>)
 8005e72:	401a      	ands	r2, r3
 8005e74:	2380      	movs	r3, #128	; 0x80
 8005e76:	4313      	orrs	r3, r2
 8005e78:	81a3      	strh	r3, [r4, #12]
 8005e7a:	9b02      	ldr	r3, [sp, #8]
 8005e7c:	6126      	str	r6, [r4, #16]
 8005e7e:	18f6      	adds	r6, r6, r3
 8005e80:	6026      	str	r6, [r4, #0]
 8005e82:	6165      	str	r5, [r4, #20]
 8005e84:	9e01      	ldr	r6, [sp, #4]
 8005e86:	1aed      	subs	r5, r5, r3
 8005e88:	60a5      	str	r5, [r4, #8]
 8005e8a:	9b01      	ldr	r3, [sp, #4]
 8005e8c:	42b3      	cmp	r3, r6
 8005e8e:	d200      	bcs.n	8005e92 <__ssputs_r+0x8e>
 8005e90:	001e      	movs	r6, r3
 8005e92:	0032      	movs	r2, r6
 8005e94:	9903      	ldr	r1, [sp, #12]
 8005e96:	6820      	ldr	r0, [r4, #0]
 8005e98:	f000 faad 	bl	80063f6 <memmove>
 8005e9c:	68a3      	ldr	r3, [r4, #8]
 8005e9e:	2000      	movs	r0, #0
 8005ea0:	1b9b      	subs	r3, r3, r6
 8005ea2:	60a3      	str	r3, [r4, #8]
 8005ea4:	6823      	ldr	r3, [r4, #0]
 8005ea6:	199e      	adds	r6, r3, r6
 8005ea8:	6026      	str	r6, [r4, #0]
 8005eaa:	e7da      	b.n	8005e62 <__ssputs_r+0x5e>
 8005eac:	002a      	movs	r2, r5
 8005eae:	0038      	movs	r0, r7
 8005eb0:	f000 fb5c 	bl	800656c <_realloc_r>
 8005eb4:	1e06      	subs	r6, r0, #0
 8005eb6:	d1e0      	bne.n	8005e7a <__ssputs_r+0x76>
 8005eb8:	6921      	ldr	r1, [r4, #16]
 8005eba:	0038      	movs	r0, r7
 8005ebc:	f000 faae 	bl	800641c <_free_r>
 8005ec0:	e7c7      	b.n	8005e52 <__ssputs_r+0x4e>
 8005ec2:	46c0      	nop			; (mov r8, r8)
 8005ec4:	fffffb7f 	.word	0xfffffb7f

08005ec8 <_svfiprintf_r>:
 8005ec8:	b5f0      	push	{r4, r5, r6, r7, lr}
 8005eca:	b09f      	sub	sp, #124	; 0x7c
 8005ecc:	9002      	str	r0, [sp, #8]
 8005ece:	9305      	str	r3, [sp, #20]
 8005ed0:	898b      	ldrh	r3, [r1, #12]
 8005ed2:	000f      	movs	r7, r1
 8005ed4:	0016      	movs	r6, r2
 8005ed6:	061b      	lsls	r3, r3, #24
 8005ed8:	d511      	bpl.n	8005efe <_svfiprintf_r+0x36>
 8005eda:	690b      	ldr	r3, [r1, #16]
 8005edc:	2b00      	cmp	r3, #0
 8005ede:	d10e      	bne.n	8005efe <_svfiprintf_r+0x36>
 8005ee0:	2140      	movs	r1, #64	; 0x40
 8005ee2:	f000 fae5 	bl	80064b0 <_malloc_r>
 8005ee6:	6038      	str	r0, [r7, #0]
 8005ee8:	6138      	str	r0, [r7, #16]
 8005eea:	2800      	cmp	r0, #0
 8005eec:	d105      	bne.n	8005efa <_svfiprintf_r+0x32>
 8005eee:	230c      	movs	r3, #12
 8005ef0:	9a02      	ldr	r2, [sp, #8]
 8005ef2:	3801      	subs	r0, #1
 8005ef4:	6013      	str	r3, [r2, #0]
 8005ef6:	b01f      	add	sp, #124	; 0x7c
 8005ef8:	bdf0      	pop	{r4, r5, r6, r7, pc}
 8005efa:	2340      	movs	r3, #64	; 0x40
 8005efc:	617b      	str	r3, [r7, #20]
 8005efe:	2300      	movs	r3, #0
 8005f00:	ad06      	add	r5, sp, #24
 8005f02:	616b      	str	r3, [r5, #20]
 8005f04:	3320      	adds	r3, #32
 8005f06:	766b      	strb	r3, [r5, #25]
 8005f08:	3310      	adds	r3, #16
 8005f0a:	76ab      	strb	r3, [r5, #26]
 8005f0c:	0034      	movs	r4, r6
 8005f0e:	7823      	ldrb	r3, [r4, #0]
 8005f10:	2b00      	cmp	r3, #0
 8005f12:	d147      	bne.n	8005fa4 <_svfiprintf_r+0xdc>
 8005f14:	1ba3      	subs	r3, r4, r6
 8005f16:	9304      	str	r3, [sp, #16]
 8005f18:	d00d      	beq.n	8005f36 <_svfiprintf_r+0x6e>
 8005f1a:	1ba3      	subs	r3, r4, r6
 8005f1c:	0032      	movs	r2, r6
 8005f1e:	0039      	movs	r1, r7
 8005f20:	9802      	ldr	r0, [sp, #8]
 8005f22:	f7ff ff6f 	bl	8005e04 <__ssputs_r>
 8005f26:	1c43      	adds	r3, r0, #1
 8005f28:	d100      	bne.n	8005f2c <_svfiprintf_r+0x64>
 8005f2a:	e0b5      	b.n	8006098 <_svfiprintf_r+0x1d0>
 8005f2c:	696a      	ldr	r2, [r5, #20]
 8005f2e:	9b04      	ldr	r3, [sp, #16]
 8005f30:	4694      	mov	ip, r2
 8005f32:	4463      	add	r3, ip
 8005f34:	616b      	str	r3, [r5, #20]
 8005f36:	7823      	ldrb	r3, [r4, #0]
 8005f38:	2b00      	cmp	r3, #0
 8005f3a:	d100      	bne.n	8005f3e <_svfiprintf_r+0x76>
 8005f3c:	e0ac      	b.n	8006098 <_svfiprintf_r+0x1d0>
 8005f3e:	2201      	movs	r2, #1
 8005f40:	2300      	movs	r3, #0
 8005f42:	4252      	negs	r2, r2
 8005f44:	606a      	str	r2, [r5, #4]
 8005f46:	a902      	add	r1, sp, #8
 8005f48:	3254      	adds	r2, #84	; 0x54
 8005f4a:	1852      	adds	r2, r2, r1
 8005f4c:	3401      	adds	r4, #1
 8005f4e:	602b      	str	r3, [r5, #0]
 8005f50:	60eb      	str	r3, [r5, #12]
 8005f52:	60ab      	str	r3, [r5, #8]
 8005f54:	7013      	strb	r3, [r2, #0]
 8005f56:	65ab      	str	r3, [r5, #88]	; 0x58
 8005f58:	4e58      	ldr	r6, [pc, #352]	; (80060bc <_svfiprintf_r+0x1f4>)
 8005f5a:	2205      	movs	r2, #5
 8005f5c:	7821      	ldrb	r1, [r4, #0]
 8005f5e:	0030      	movs	r0, r6
 8005f60:	f000 fa3e 	bl	80063e0 <memchr>
 8005f64:	1c62      	adds	r2, r4, #1
 8005f66:	2800      	cmp	r0, #0
 8005f68:	d120      	bne.n	8005fac <_svfiprintf_r+0xe4>
 8005f6a:	6829      	ldr	r1, [r5, #0]
 8005f6c:	06cb      	lsls	r3, r1, #27
 8005f6e:	d504      	bpl.n	8005f7a <_svfiprintf_r+0xb2>
 8005f70:	2353      	movs	r3, #83	; 0x53
 8005f72:	ae02      	add	r6, sp, #8
 8005f74:	3020      	adds	r0, #32
 8005f76:	199b      	adds	r3, r3, r6
 8005f78:	7018      	strb	r0, [r3, #0]
 8005f7a:	070b      	lsls	r3, r1, #28
 8005f7c:	d504      	bpl.n	8005f88 <_svfiprintf_r+0xc0>
 8005f7e:	2353      	movs	r3, #83	; 0x53
 8005f80:	202b      	movs	r0, #43	; 0x2b
 8005f82:	ae02      	add	r6, sp, #8
 8005f84:	199b      	adds	r3, r3, r6
 8005f86:	7018      	strb	r0, [r3, #0]
 8005f88:	7823      	ldrb	r3, [r4, #0]
 8005f8a:	2b2a      	cmp	r3, #42	; 0x2a
 8005f8c:	d016      	beq.n	8005fbc <_svfiprintf_r+0xf4>
 8005f8e:	2000      	movs	r0, #0
 8005f90:	210a      	movs	r1, #10
 8005f92:	9b09      	ldr	r3, [sp, #36]	; 0x24
 8005f94:	7822      	ldrb	r2, [r4, #0]
 8005f96:	3a30      	subs	r2, #48	; 0x30
 8005f98:	2a09      	cmp	r2, #9
 8005f9a:	d955      	bls.n	8006048 <_svfiprintf_r+0x180>
 8005f9c:	2800      	cmp	r0, #0
 8005f9e:	d015      	beq.n	8005fcc <_svfiprintf_r+0x104>
 8005fa0:	9309      	str	r3, [sp, #36]	; 0x24
 8005fa2:	e013      	b.n	8005fcc <_svfiprintf_r+0x104>
 8005fa4:	2b25      	cmp	r3, #37	; 0x25
 8005fa6:	d0b5      	beq.n	8005f14 <_svfiprintf_r+0x4c>
 8005fa8:	3401      	adds	r4, #1
 8005faa:	e7b0      	b.n	8005f0e <_svfiprintf_r+0x46>
 8005fac:	2301      	movs	r3, #1
 8005fae:	1b80      	subs	r0, r0, r6
 8005fb0:	4083      	lsls	r3, r0
 8005fb2:	6829      	ldr	r1, [r5, #0]
 8005fb4:	0014      	movs	r4, r2
 8005fb6:	430b      	orrs	r3, r1
 8005fb8:	602b      	str	r3, [r5, #0]
 8005fba:	e7cd      	b.n	8005f58 <_svfiprintf_r+0x90>
 8005fbc:	9b05      	ldr	r3, [sp, #20]
 8005fbe:	1d18      	adds	r0, r3, #4
 8005fc0:	681b      	ldr	r3, [r3, #0]
 8005fc2:	9005      	str	r0, [sp, #20]
 8005fc4:	2b00      	cmp	r3, #0
 8005fc6:	db39      	blt.n	800603c <_svfiprintf_r+0x174>
 8005fc8:	9309      	str	r3, [sp, #36]	; 0x24
 8005fca:	0014      	movs	r4, r2
 8005fcc:	7823      	ldrb	r3, [r4, #0]
 8005fce:	2b2e      	cmp	r3, #46	; 0x2e
 8005fd0:	d10b      	bne.n	8005fea <_svfiprintf_r+0x122>
 8005fd2:	7863      	ldrb	r3, [r4, #1]
 8005fd4:	1c62      	adds	r2, r4, #1
 8005fd6:	2b2a      	cmp	r3, #42	; 0x2a
 8005fd8:	d13e      	bne.n	8006058 <_svfiprintf_r+0x190>
 8005fda:	9b05      	ldr	r3, [sp, #20]
 8005fdc:	3402      	adds	r4, #2
 8005fde:	1d1a      	adds	r2, r3, #4
 8005fe0:	681b      	ldr	r3, [r3, #0]
 8005fe2:	9205      	str	r2, [sp, #20]
 8005fe4:	2b00      	cmp	r3, #0
 8005fe6:	db34      	blt.n	8006052 <_svfiprintf_r+0x18a>
 8005fe8:	9307      	str	r3, [sp, #28]
 8005fea:	4e35      	ldr	r6, [pc, #212]	; (80060c0 <_svfiprintf_r+0x1f8>)
 8005fec:	7821      	ldrb	r1, [r4, #0]
 8005fee:	2203      	movs	r2, #3
 8005ff0:	0030      	movs	r0, r6
 8005ff2:	f000 f9f5 	bl	80063e0 <memchr>
 8005ff6:	2800      	cmp	r0, #0
 8005ff8:	d006      	beq.n	8006008 <_svfiprintf_r+0x140>
 8005ffa:	2340      	movs	r3, #64	; 0x40
 8005ffc:	1b80      	subs	r0, r0, r6
 8005ffe:	4083      	lsls	r3, r0
 8006000:	682a      	ldr	r2, [r5, #0]
 8006002:	3401      	adds	r4, #1
 8006004:	4313      	orrs	r3, r2
 8006006:	602b      	str	r3, [r5, #0]
 8006008:	7821      	ldrb	r1, [r4, #0]
 800600a:	2206      	movs	r2, #6
 800600c:	482d      	ldr	r0, [pc, #180]	; (80060c4 <_svfiprintf_r+0x1fc>)
 800600e:	1c66      	adds	r6, r4, #1
 8006010:	7629      	strb	r1, [r5, #24]
 8006012:	f000 f9e5 	bl	80063e0 <memchr>
 8006016:	2800      	cmp	r0, #0
 8006018:	d046      	beq.n	80060a8 <_svfiprintf_r+0x1e0>
 800601a:	4b2b      	ldr	r3, [pc, #172]	; (80060c8 <_svfiprintf_r+0x200>)
 800601c:	2b00      	cmp	r3, #0
 800601e:	d12f      	bne.n	8006080 <_svfiprintf_r+0x1b8>
 8006020:	6829      	ldr	r1, [r5, #0]
 8006022:	9b05      	ldr	r3, [sp, #20]
 8006024:	2207      	movs	r2, #7
 8006026:	05c9      	lsls	r1, r1, #23
 8006028:	d528      	bpl.n	800607c <_svfiprintf_r+0x1b4>
 800602a:	189b      	adds	r3, r3, r2
 800602c:	4393      	bics	r3, r2
 800602e:	3308      	adds	r3, #8
 8006030:	9305      	str	r3, [sp, #20]
 8006032:	696b      	ldr	r3, [r5, #20]
 8006034:	9a03      	ldr	r2, [sp, #12]
 8006036:	189b      	adds	r3, r3, r2
 8006038:	616b      	str	r3, [r5, #20]
 800603a:	e767      	b.n	8005f0c <_svfiprintf_r+0x44>
 800603c:	425b      	negs	r3, r3
 800603e:	60eb      	str	r3, [r5, #12]
 8006040:	2302      	movs	r3, #2
 8006042:	430b      	orrs	r3, r1
 8006044:	602b      	str	r3, [r5, #0]
 8006046:	e7c0      	b.n	8005fca <_svfiprintf_r+0x102>
 8006048:	434b      	muls	r3, r1
 800604a:	3401      	adds	r4, #1
 800604c:	189b      	adds	r3, r3, r2
 800604e:	2001      	movs	r0, #1
 8006050:	e7a0      	b.n	8005f94 <_svfiprintf_r+0xcc>
 8006052:	2301      	movs	r3, #1
 8006054:	425b      	negs	r3, r3
 8006056:	e7c7      	b.n	8005fe8 <_svfiprintf_r+0x120>
 8006058:	2300      	movs	r3, #0
 800605a:	0014      	movs	r4, r2
 800605c:	200a      	movs	r0, #10
 800605e:	001a      	movs	r2, r3
 8006060:	606b      	str	r3, [r5, #4]
 8006062:	7821      	ldrb	r1, [r4, #0]
 8006064:	3930      	subs	r1, #48	; 0x30
 8006066:	2909      	cmp	r1, #9
 8006068:	d903      	bls.n	8006072 <_svfiprintf_r+0x1aa>
 800606a:	2b00      	cmp	r3, #0
 800606c:	d0bd      	beq.n	8005fea <_svfiprintf_r+0x122>
 800606e:	9207      	str	r2, [sp, #28]
 8006070:	e7bb      	b.n	8005fea <_svfiprintf_r+0x122>
 8006072:	4342      	muls	r2, r0
 8006074:	3401      	adds	r4, #1
 8006076:	1852      	adds	r2, r2, r1
 8006078:	2301      	movs	r3, #1
 800607a:	e7f2      	b.n	8006062 <_svfiprintf_r+0x19a>
 800607c:	3307      	adds	r3, #7
 800607e:	e7d5      	b.n	800602c <_svfiprintf_r+0x164>
 8006080:	ab05      	add	r3, sp, #20
 8006082:	9300      	str	r3, [sp, #0]
 8006084:	003a      	movs	r2, r7
 8006086:	4b11      	ldr	r3, [pc, #68]	; (80060cc <_svfiprintf_r+0x204>)
 8006088:	0029      	movs	r1, r5
 800608a:	9802      	ldr	r0, [sp, #8]
 800608c:	e000      	b.n	8006090 <_svfiprintf_r+0x1c8>
 800608e:	bf00      	nop
 8006090:	9003      	str	r0, [sp, #12]
 8006092:	9b03      	ldr	r3, [sp, #12]
 8006094:	3301      	adds	r3, #1
 8006096:	d1cc      	bne.n	8006032 <_svfiprintf_r+0x16a>
 8006098:	89bb      	ldrh	r3, [r7, #12]
 800609a:	980b      	ldr	r0, [sp, #44]	; 0x2c
 800609c:	065b      	lsls	r3, r3, #25
 800609e:	d400      	bmi.n	80060a2 <_svfiprintf_r+0x1da>
 80060a0:	e729      	b.n	8005ef6 <_svfiprintf_r+0x2e>
 80060a2:	2001      	movs	r0, #1
 80060a4:	4240      	negs	r0, r0
 80060a6:	e726      	b.n	8005ef6 <_svfiprintf_r+0x2e>
 80060a8:	ab05      	add	r3, sp, #20
 80060aa:	9300      	str	r3, [sp, #0]
 80060ac:	003a      	movs	r2, r7
 80060ae:	4b07      	ldr	r3, [pc, #28]	; (80060cc <_svfiprintf_r+0x204>)
 80060b0:	0029      	movs	r1, r5
 80060b2:	9802      	ldr	r0, [sp, #8]
 80060b4:	f000 f87a 	bl	80061ac <_printf_i>
 80060b8:	e7ea      	b.n	8006090 <_svfiprintf_r+0x1c8>
 80060ba:	46c0      	nop			; (mov r8, r8)
 80060bc:	08006d4b 	.word	0x08006d4b
 80060c0:	08006d51 	.word	0x08006d51
 80060c4:	08006d55 	.word	0x08006d55
 80060c8:	00000000 	.word	0x00000000
 80060cc:	08005e05 	.word	0x08005e05

080060d0 <_printf_common>:
 80060d0:	b5f7      	push	{r0, r1, r2, r4, r5, r6, r7, lr}
 80060d2:	0015      	movs	r5, r2
 80060d4:	9301      	str	r3, [sp, #4]
 80060d6:	688a      	ldr	r2, [r1, #8]
 80060d8:	690b      	ldr	r3, [r1, #16]
 80060da:	9000      	str	r0, [sp, #0]
 80060dc:	000c      	movs	r4, r1
 80060de:	4293      	cmp	r3, r2
 80060e0:	da00      	bge.n	80060e4 <_printf_common+0x14>
 80060e2:	0013      	movs	r3, r2
 80060e4:	0022      	movs	r2, r4
 80060e6:	602b      	str	r3, [r5, #0]
 80060e8:	3243      	adds	r2, #67	; 0x43
 80060ea:	7812      	ldrb	r2, [r2, #0]
 80060ec:	2a00      	cmp	r2, #0
 80060ee:	d001      	beq.n	80060f4 <_printf_common+0x24>
 80060f0:	3301      	adds	r3, #1
 80060f2:	602b      	str	r3, [r5, #0]
 80060f4:	6823      	ldr	r3, [r4, #0]
 80060f6:	069b      	lsls	r3, r3, #26
 80060f8:	d502      	bpl.n	8006100 <_printf_common+0x30>
 80060fa:	682b      	ldr	r3, [r5, #0]
 80060fc:	3302      	adds	r3, #2
 80060fe:	602b      	str	r3, [r5, #0]
 8006100:	2706      	movs	r7, #6
 8006102:	6823      	ldr	r3, [r4, #0]
 8006104:	401f      	ands	r7, r3
 8006106:	d027      	beq.n	8006158 <_printf_common+0x88>
 8006108:	0023      	movs	r3, r4
 800610a:	3343      	adds	r3, #67	; 0x43
 800610c:	781b      	ldrb	r3, [r3, #0]
 800610e:	1e5a      	subs	r2, r3, #1
 8006110:	4193      	sbcs	r3, r2
 8006112:	6822      	ldr	r2, [r4, #0]
 8006114:	0692      	lsls	r2, r2, #26
 8006116:	d430      	bmi.n	800617a <_printf_common+0xaa>
 8006118:	0022      	movs	r2, r4
 800611a:	9901      	ldr	r1, [sp, #4]
 800611c:	3243      	adds	r2, #67	; 0x43
 800611e:	9800      	ldr	r0, [sp, #0]
 8006120:	9e08      	ldr	r6, [sp, #32]
 8006122:	47b0      	blx	r6
 8006124:	1c43      	adds	r3, r0, #1
 8006126:	d025      	beq.n	8006174 <_printf_common+0xa4>
 8006128:	2306      	movs	r3, #6
 800612a:	6820      	ldr	r0, [r4, #0]
 800612c:	682a      	ldr	r2, [r5, #0]
 800612e:	68e1      	ldr	r1, [r4, #12]
 8006130:	4003      	ands	r3, r0
 8006132:	2500      	movs	r5, #0
 8006134:	2b04      	cmp	r3, #4
 8006136:	d103      	bne.n	8006140 <_printf_common+0x70>
 8006138:	1a8d      	subs	r5, r1, r2
 800613a:	43eb      	mvns	r3, r5
 800613c:	17db      	asrs	r3, r3, #31
 800613e:	401d      	ands	r5, r3
 8006140:	68a3      	ldr	r3, [r4, #8]
 8006142:	6922      	ldr	r2, [r4, #16]
 8006144:	4293      	cmp	r3, r2
 8006146:	dd01      	ble.n	800614c <_printf_common+0x7c>
 8006148:	1a9b      	subs	r3, r3, r2
 800614a:	18ed      	adds	r5, r5, r3
 800614c:	2700      	movs	r7, #0
 800614e:	42bd      	cmp	r5, r7
 8006150:	d120      	bne.n	8006194 <_printf_common+0xc4>
 8006152:	2000      	movs	r0, #0
 8006154:	e010      	b.n	8006178 <_printf_common+0xa8>
 8006156:	3701      	adds	r7, #1
 8006158:	68e3      	ldr	r3, [r4, #12]
 800615a:	682a      	ldr	r2, [r5, #0]
 800615c:	1a9b      	subs	r3, r3, r2
 800615e:	429f      	cmp	r7, r3
 8006160:	dad2      	bge.n	8006108 <_printf_common+0x38>
 8006162:	0022      	movs	r2, r4
 8006164:	2301      	movs	r3, #1
 8006166:	3219      	adds	r2, #25
 8006168:	9901      	ldr	r1, [sp, #4]
 800616a:	9800      	ldr	r0, [sp, #0]
 800616c:	9e08      	ldr	r6, [sp, #32]
 800616e:	47b0      	blx	r6
 8006170:	1c43      	adds	r3, r0, #1
 8006172:	d1f0      	bne.n	8006156 <_printf_common+0x86>
 8006174:	2001      	movs	r0, #1
 8006176:	4240      	negs	r0, r0
 8006178:	bdfe      	pop	{r1, r2, r3, r4, r5, r6, r7, pc}
 800617a:	2030      	movs	r0, #48	; 0x30
 800617c:	18e1      	adds	r1, r4, r3
 800617e:	3143      	adds	r1, #67	; 0x43
 8006180:	7008      	strb	r0, [r1, #0]
 8006182:	0021      	movs	r1, r4
 8006184:	1c5a      	adds	r2, r3, #1
 8006186:	3145      	adds	r1, #69	; 0x45
 8006188:	7809      	ldrb	r1, [r1, #0]
 800618a:	18a2      	adds	r2, r4, r2
 800618c:	3243      	adds	r2, #67	; 0x43
 800618e:	3302      	adds	r3, #2
 8006190:	7011      	strb	r1, [r2, #0]
 8006192:	e7c1      	b.n	8006118 <_printf_common+0x48>
 8006194:	0022      	movs	r2, r4
 8006196:	2301      	movs	r3, #1
 8006198:	321a      	adds	r2, #26
 800619a:	9901      	ldr	r1, [sp, #4]
 800619c:	9800      	ldr	r0, [sp, #0]
 800619e:	9e08      	ldr	r6, [sp, #32]
 80061a0:	47b0      	blx	r6
 80061a2:	1c43      	adds	r3, r0, #1
 80061a4:	d0e6      	beq.n	8006174 <_printf_common+0xa4>
 80061a6:	3701      	adds	r7, #1
 80061a8:	e7d1      	b.n	800614e <_printf_common+0x7e>
	...

080061ac <_printf_i>:
 80061ac:	b5f0      	push	{r4, r5, r6, r7, lr}
 80061ae:	b08b      	sub	sp, #44	; 0x2c
 80061b0:	9206      	str	r2, [sp, #24]
 80061b2:	000a      	movs	r2, r1
 80061b4:	3243      	adds	r2, #67	; 0x43
 80061b6:	9307      	str	r3, [sp, #28]
 80061b8:	9005      	str	r0, [sp, #20]
 80061ba:	9204      	str	r2, [sp, #16]
 80061bc:	7e0a      	ldrb	r2, [r1, #24]
 80061be:	000c      	movs	r4, r1
 80061c0:	9b10      	ldr	r3, [sp, #64]	; 0x40
 80061c2:	2a6e      	cmp	r2, #110	; 0x6e
 80061c4:	d100      	bne.n	80061c8 <_printf_i+0x1c>
 80061c6:	e08f      	b.n	80062e8 <_printf_i+0x13c>
 80061c8:	d817      	bhi.n	80061fa <_printf_i+0x4e>
 80061ca:	2a63      	cmp	r2, #99	; 0x63
 80061cc:	d02c      	beq.n	8006228 <_printf_i+0x7c>
 80061ce:	d808      	bhi.n	80061e2 <_printf_i+0x36>
 80061d0:	2a00      	cmp	r2, #0
 80061d2:	d100      	bne.n	80061d6 <_printf_i+0x2a>
 80061d4:	e099      	b.n	800630a <_printf_i+0x15e>
 80061d6:	2a58      	cmp	r2, #88	; 0x58
 80061d8:	d054      	beq.n	8006284 <_printf_i+0xd8>
 80061da:	0026      	movs	r6, r4
 80061dc:	3642      	adds	r6, #66	; 0x42
 80061de:	7032      	strb	r2, [r6, #0]
 80061e0:	e029      	b.n	8006236 <_printf_i+0x8a>
 80061e2:	2a64      	cmp	r2, #100	; 0x64
 80061e4:	d001      	beq.n	80061ea <_printf_i+0x3e>
 80061e6:	2a69      	cmp	r2, #105	; 0x69
 80061e8:	d1f7      	bne.n	80061da <_printf_i+0x2e>
 80061ea:	6821      	ldr	r1, [r4, #0]
 80061ec:	681a      	ldr	r2, [r3, #0]
 80061ee:	0608      	lsls	r0, r1, #24
 80061f0:	d523      	bpl.n	800623a <_printf_i+0x8e>
 80061f2:	1d11      	adds	r1, r2, #4
 80061f4:	6019      	str	r1, [r3, #0]
 80061f6:	6815      	ldr	r5, [r2, #0]
 80061f8:	e025      	b.n	8006246 <_printf_i+0x9a>
 80061fa:	2a73      	cmp	r2, #115	; 0x73
 80061fc:	d100      	bne.n	8006200 <_printf_i+0x54>
 80061fe:	e088      	b.n	8006312 <_printf_i+0x166>
 8006200:	d808      	bhi.n	8006214 <_printf_i+0x68>
 8006202:	2a6f      	cmp	r2, #111	; 0x6f
 8006204:	d029      	beq.n	800625a <_printf_i+0xae>
 8006206:	2a70      	cmp	r2, #112	; 0x70
 8006208:	d1e7      	bne.n	80061da <_printf_i+0x2e>
 800620a:	2220      	movs	r2, #32
 800620c:	6809      	ldr	r1, [r1, #0]
 800620e:	430a      	orrs	r2, r1
 8006210:	6022      	str	r2, [r4, #0]
 8006212:	e003      	b.n	800621c <_printf_i+0x70>
 8006214:	2a75      	cmp	r2, #117	; 0x75
 8006216:	d020      	beq.n	800625a <_printf_i+0xae>
 8006218:	2a78      	cmp	r2, #120	; 0x78
 800621a:	d1de      	bne.n	80061da <_printf_i+0x2e>
 800621c:	0022      	movs	r2, r4
 800621e:	2178      	movs	r1, #120	; 0x78
 8006220:	3245      	adds	r2, #69	; 0x45
 8006222:	7011      	strb	r1, [r2, #0]
 8006224:	4a6c      	ldr	r2, [pc, #432]	; (80063d8 <_printf_i+0x22c>)
 8006226:	e030      	b.n	800628a <_printf_i+0xde>
 8006228:	000e      	movs	r6, r1
 800622a:	681a      	ldr	r2, [r3, #0]
 800622c:	3642      	adds	r6, #66	; 0x42
 800622e:	1d11      	adds	r1, r2, #4
 8006230:	6019      	str	r1, [r3, #0]
 8006232:	6813      	ldr	r3, [r2, #0]
 8006234:	7033      	strb	r3, [r6, #0]
 8006236:	2301      	movs	r3, #1
 8006238:	e079      	b.n	800632e <_printf_i+0x182>
 800623a:	0649      	lsls	r1, r1, #25
 800623c:	d5d9      	bpl.n	80061f2 <_printf_i+0x46>
 800623e:	1d11      	adds	r1, r2, #4
 8006240:	6019      	str	r1, [r3, #0]
 8006242:	2300      	movs	r3, #0
 8006244:	5ed5      	ldrsh	r5, [r2, r3]
 8006246:	2d00      	cmp	r5, #0
 8006248:	da03      	bge.n	8006252 <_printf_i+0xa6>
 800624a:	232d      	movs	r3, #45	; 0x2d
 800624c:	9a04      	ldr	r2, [sp, #16]
 800624e:	426d      	negs	r5, r5
 8006250:	7013      	strb	r3, [r2, #0]
 8006252:	4b62      	ldr	r3, [pc, #392]	; (80063dc <_printf_i+0x230>)
 8006254:	270a      	movs	r7, #10
 8006256:	9303      	str	r3, [sp, #12]
 8006258:	e02f      	b.n	80062ba <_printf_i+0x10e>
 800625a:	6820      	ldr	r0, [r4, #0]
 800625c:	6819      	ldr	r1, [r3, #0]
 800625e:	0605      	lsls	r5, r0, #24
 8006260:	d503      	bpl.n	800626a <_printf_i+0xbe>
 8006262:	1d08      	adds	r0, r1, #4
 8006264:	6018      	str	r0, [r3, #0]
 8006266:	680d      	ldr	r5, [r1, #0]
 8006268:	e005      	b.n	8006276 <_printf_i+0xca>
 800626a:	0640      	lsls	r0, r0, #25
 800626c:	d5f9      	bpl.n	8006262 <_printf_i+0xb6>
 800626e:	680d      	ldr	r5, [r1, #0]
 8006270:	1d08      	adds	r0, r1, #4
 8006272:	6018      	str	r0, [r3, #0]
 8006274:	b2ad      	uxth	r5, r5
 8006276:	4b59      	ldr	r3, [pc, #356]	; (80063dc <_printf_i+0x230>)
 8006278:	2708      	movs	r7, #8
 800627a:	9303      	str	r3, [sp, #12]
 800627c:	2a6f      	cmp	r2, #111	; 0x6f
 800627e:	d018      	beq.n	80062b2 <_printf_i+0x106>
 8006280:	270a      	movs	r7, #10
 8006282:	e016      	b.n	80062b2 <_printf_i+0x106>
 8006284:	3145      	adds	r1, #69	; 0x45
 8006286:	700a      	strb	r2, [r1, #0]
 8006288:	4a54      	ldr	r2, [pc, #336]	; (80063dc <_printf_i+0x230>)
 800628a:	9203      	str	r2, [sp, #12]
 800628c:	681a      	ldr	r2, [r3, #0]
 800628e:	6821      	ldr	r1, [r4, #0]
 8006290:	1d10      	adds	r0, r2, #4
 8006292:	6018      	str	r0, [r3, #0]
 8006294:	6815      	ldr	r5, [r2, #0]
 8006296:	0608      	lsls	r0, r1, #24
 8006298:	d522      	bpl.n	80062e0 <_printf_i+0x134>
 800629a:	07cb      	lsls	r3, r1, #31
 800629c:	d502      	bpl.n	80062a4 <_printf_i+0xf8>
 800629e:	2320      	movs	r3, #32
 80062a0:	4319      	orrs	r1, r3
 80062a2:	6021      	str	r1, [r4, #0]
 80062a4:	2710      	movs	r7, #16
 80062a6:	2d00      	cmp	r5, #0
 80062a8:	d103      	bne.n	80062b2 <_printf_i+0x106>
 80062aa:	2320      	movs	r3, #32
 80062ac:	6822      	ldr	r2, [r4, #0]
 80062ae:	439a      	bics	r2, r3
 80062b0:	6022      	str	r2, [r4, #0]
 80062b2:	0023      	movs	r3, r4
 80062b4:	2200      	movs	r2, #0
 80062b6:	3343      	adds	r3, #67	; 0x43
 80062b8:	701a      	strb	r2, [r3, #0]
 80062ba:	6863      	ldr	r3, [r4, #4]
 80062bc:	60a3      	str	r3, [r4, #8]
 80062be:	2b00      	cmp	r3, #0
 80062c0:	db5c      	blt.n	800637c <_printf_i+0x1d0>
 80062c2:	2204      	movs	r2, #4
 80062c4:	6821      	ldr	r1, [r4, #0]
 80062c6:	4391      	bics	r1, r2
 80062c8:	6021      	str	r1, [r4, #0]
 80062ca:	2d00      	cmp	r5, #0
 80062cc:	d158      	bne.n	8006380 <_printf_i+0x1d4>
 80062ce:	9e04      	ldr	r6, [sp, #16]
 80062d0:	2b00      	cmp	r3, #0
 80062d2:	d064      	beq.n	800639e <_printf_i+0x1f2>
 80062d4:	0026      	movs	r6, r4
 80062d6:	9b03      	ldr	r3, [sp, #12]
 80062d8:	3642      	adds	r6, #66	; 0x42
 80062da:	781b      	ldrb	r3, [r3, #0]
 80062dc:	7033      	strb	r3, [r6, #0]
 80062de:	e05e      	b.n	800639e <_printf_i+0x1f2>
 80062e0:	0648      	lsls	r0, r1, #25
 80062e2:	d5da      	bpl.n	800629a <_printf_i+0xee>
 80062e4:	b2ad      	uxth	r5, r5
 80062e6:	e7d8      	b.n	800629a <_printf_i+0xee>
 80062e8:	6809      	ldr	r1, [r1, #0]
 80062ea:	681a      	ldr	r2, [r3, #0]
 80062ec:	0608      	lsls	r0, r1, #24
 80062ee:	d505      	bpl.n	80062fc <_printf_i+0x150>
 80062f0:	1d11      	adds	r1, r2, #4
 80062f2:	6019      	str	r1, [r3, #0]
 80062f4:	6813      	ldr	r3, [r2, #0]
 80062f6:	6962      	ldr	r2, [r4, #20]
 80062f8:	601a      	str	r2, [r3, #0]
 80062fa:	e006      	b.n	800630a <_printf_i+0x15e>
 80062fc:	0649      	lsls	r1, r1, #25
 80062fe:	d5f7      	bpl.n	80062f0 <_printf_i+0x144>
 8006300:	1d11      	adds	r1, r2, #4
 8006302:	6019      	str	r1, [r3, #0]
 8006304:	6813      	ldr	r3, [r2, #0]
 8006306:	8aa2      	ldrh	r2, [r4, #20]
 8006308:	801a      	strh	r2, [r3, #0]
 800630a:	2300      	movs	r3, #0
 800630c:	9e04      	ldr	r6, [sp, #16]
 800630e:	6123      	str	r3, [r4, #16]
 8006310:	e054      	b.n	80063bc <_printf_i+0x210>
 8006312:	681a      	ldr	r2, [r3, #0]
 8006314:	1d11      	adds	r1, r2, #4
 8006316:	6019      	str	r1, [r3, #0]
 8006318:	6816      	ldr	r6, [r2, #0]
 800631a:	2100      	movs	r1, #0
 800631c:	6862      	ldr	r2, [r4, #4]
 800631e:	0030      	movs	r0, r6
 8006320:	f000 f85e 	bl	80063e0 <memchr>
 8006324:	2800      	cmp	r0, #0
 8006326:	d001      	beq.n	800632c <_printf_i+0x180>
 8006328:	1b80      	subs	r0, r0, r6
 800632a:	6060      	str	r0, [r4, #4]
 800632c:	6863      	ldr	r3, [r4, #4]
 800632e:	6123      	str	r3, [r4, #16]
 8006330:	2300      	movs	r3, #0
 8006332:	9a04      	ldr	r2, [sp, #16]
 8006334:	7013      	strb	r3, [r2, #0]
 8006336:	e041      	b.n	80063bc <_printf_i+0x210>
 8006338:	6923      	ldr	r3, [r4, #16]
 800633a:	0032      	movs	r2, r6
 800633c:	9906      	ldr	r1, [sp, #24]
 800633e:	9805      	ldr	r0, [sp, #20]
 8006340:	9d07      	ldr	r5, [sp, #28]
 8006342:	47a8      	blx	r5
 8006344:	1c43      	adds	r3, r0, #1
 8006346:	d043      	beq.n	80063d0 <_printf_i+0x224>
 8006348:	6823      	ldr	r3, [r4, #0]
 800634a:	2500      	movs	r5, #0
 800634c:	079b      	lsls	r3, r3, #30
 800634e:	d40f      	bmi.n	8006370 <_printf_i+0x1c4>
 8006350:	9b09      	ldr	r3, [sp, #36]	; 0x24
 8006352:	68e0      	ldr	r0, [r4, #12]
 8006354:	4298      	cmp	r0, r3
 8006356:	da3d      	bge.n	80063d4 <_printf_i+0x228>
 8006358:	0018      	movs	r0, r3
 800635a:	e03b      	b.n	80063d4 <_printf_i+0x228>
 800635c:	0022      	movs	r2, r4
 800635e:	2301      	movs	r3, #1
 8006360:	3219      	adds	r2, #25
 8006362:	9906      	ldr	r1, [sp, #24]
 8006364:	9805      	ldr	r0, [sp, #20]
 8006366:	9e07      	ldr	r6, [sp, #28]
 8006368:	47b0      	blx	r6
 800636a:	1c43      	adds	r3, r0, #1
 800636c:	d030      	beq.n	80063d0 <_printf_i+0x224>
 800636e:	3501      	adds	r5, #1
 8006370:	68e3      	ldr	r3, [r4, #12]
 8006372:	9a09      	ldr	r2, [sp, #36]	; 0x24
 8006374:	1a9b      	subs	r3, r3, r2
 8006376:	429d      	cmp	r5, r3
 8006378:	dbf0      	blt.n	800635c <_printf_i+0x1b0>
 800637a:	e7e9      	b.n	8006350 <_printf_i+0x1a4>
 800637c:	2d00      	cmp	r5, #0
 800637e:	d0a9      	beq.n	80062d4 <_printf_i+0x128>
 8006380:	9e04      	ldr	r6, [sp, #16]
 8006382:	0028      	movs	r0, r5
 8006384:	0039      	movs	r1, r7
 8006386:	f7f9 ff61 	bl	800024c <__aeabi_uidivmod>
 800638a:	9b03      	ldr	r3, [sp, #12]
 800638c:	3e01      	subs	r6, #1
 800638e:	5c5b      	ldrb	r3, [r3, r1]
 8006390:	0028      	movs	r0, r5
 8006392:	7033      	strb	r3, [r6, #0]
 8006394:	0039      	movs	r1, r7
 8006396:	f7f9 fed3 	bl	8000140 <__udivsi3>
 800639a:	1e05      	subs	r5, r0, #0
 800639c:	d1f1      	bne.n	8006382 <_printf_i+0x1d6>
 800639e:	2f08      	cmp	r7, #8
 80063a0:	d109      	bne.n	80063b6 <_printf_i+0x20a>
 80063a2:	6823      	ldr	r3, [r4, #0]
 80063a4:	07db      	lsls	r3, r3, #31
 80063a6:	d506      	bpl.n	80063b6 <_printf_i+0x20a>
 80063a8:	6863      	ldr	r3, [r4, #4]
 80063aa:	6922      	ldr	r2, [r4, #16]
 80063ac:	4293      	cmp	r3, r2
 80063ae:	dc02      	bgt.n	80063b6 <_printf_i+0x20a>
 80063b0:	2330      	movs	r3, #48	; 0x30
 80063b2:	3e01      	subs	r6, #1
 80063b4:	7033      	strb	r3, [r6, #0]
 80063b6:	9b04      	ldr	r3, [sp, #16]
 80063b8:	1b9b      	subs	r3, r3, r6
 80063ba:	6123      	str	r3, [r4, #16]
 80063bc:	9b07      	ldr	r3, [sp, #28]
 80063be:	aa09      	add	r2, sp, #36	; 0x24
 80063c0:	9300      	str	r3, [sp, #0]
 80063c2:	0021      	movs	r1, r4
 80063c4:	9b06      	ldr	r3, [sp, #24]
 80063c6:	9805      	ldr	r0, [sp, #20]
 80063c8:	f7ff fe82 	bl	80060d0 <_printf_common>
 80063cc:	1c43      	adds	r3, r0, #1
 80063ce:	d1b3      	bne.n	8006338 <_printf_i+0x18c>
 80063d0:	2001      	movs	r0, #1
 80063d2:	4240      	negs	r0, r0
 80063d4:	b00b      	add	sp, #44	; 0x2c
 80063d6:	bdf0      	pop	{r4, r5, r6, r7, pc}
 80063d8:	08006d6d 	.word	0x08006d6d
 80063dc:	08006d5c 	.word	0x08006d5c

080063e0 <memchr>:
 80063e0:	b2c9      	uxtb	r1, r1
 80063e2:	1882      	adds	r2, r0, r2
 80063e4:	4290      	cmp	r0, r2
 80063e6:	d101      	bne.n	80063ec <memchr+0xc>
 80063e8:	2000      	movs	r0, #0
 80063ea:	4770      	bx	lr
 80063ec:	7803      	ldrb	r3, [r0, #0]
 80063ee:	428b      	cmp	r3, r1
 80063f0:	d0fb      	beq.n	80063ea <memchr+0xa>
 80063f2:	3001      	adds	r0, #1
 80063f4:	e7f6      	b.n	80063e4 <memchr+0x4>

080063f6 <memmove>:
 80063f6:	b510      	push	{r4, lr}
 80063f8:	4288      	cmp	r0, r1
 80063fa:	d902      	bls.n	8006402 <memmove+0xc>
 80063fc:	188b      	adds	r3, r1, r2
 80063fe:	4298      	cmp	r0, r3
 8006400:	d308      	bcc.n	8006414 <memmove+0x1e>
 8006402:	2300      	movs	r3, #0
 8006404:	429a      	cmp	r2, r3
 8006406:	d007      	beq.n	8006418 <memmove+0x22>
 8006408:	5ccc      	ldrb	r4, [r1, r3]
 800640a:	54c4      	strb	r4, [r0, r3]
 800640c:	3301      	adds	r3, #1
 800640e:	e7f9      	b.n	8006404 <memmove+0xe>
 8006410:	5c8b      	ldrb	r3, [r1, r2]
 8006412:	5483      	strb	r3, [r0, r2]
 8006414:	3a01      	subs	r2, #1
 8006416:	d2fb      	bcs.n	8006410 <memmove+0x1a>
 8006418:	bd10      	pop	{r4, pc}
	...

0800641c <_free_r>:
 800641c:	b570      	push	{r4, r5, r6, lr}
 800641e:	0005      	movs	r5, r0
 8006420:	2900      	cmp	r1, #0
 8006422:	d010      	beq.n	8006446 <_free_r+0x2a>
 8006424:	1f0c      	subs	r4, r1, #4
 8006426:	6823      	ldr	r3, [r4, #0]
 8006428:	2b00      	cmp	r3, #0
 800642a:	da00      	bge.n	800642e <_free_r+0x12>
 800642c:	18e4      	adds	r4, r4, r3
 800642e:	0028      	movs	r0, r5
 8006430:	f000 f8d4 	bl	80065dc <__malloc_lock>
 8006434:	4a1d      	ldr	r2, [pc, #116]	; (80064ac <_free_r+0x90>)
 8006436:	6813      	ldr	r3, [r2, #0]
 8006438:	2b00      	cmp	r3, #0
 800643a:	d105      	bne.n	8006448 <_free_r+0x2c>
 800643c:	6063      	str	r3, [r4, #4]
 800643e:	6014      	str	r4, [r2, #0]
 8006440:	0028      	movs	r0, r5
 8006442:	f000 f8cc 	bl	80065de <__malloc_unlock>
 8006446:	bd70      	pop	{r4, r5, r6, pc}
 8006448:	42a3      	cmp	r3, r4
 800644a:	d909      	bls.n	8006460 <_free_r+0x44>
 800644c:	6821      	ldr	r1, [r4, #0]
 800644e:	1860      	adds	r0, r4, r1
 8006450:	4283      	cmp	r3, r0
 8006452:	d1f3      	bne.n	800643c <_free_r+0x20>
 8006454:	6818      	ldr	r0, [r3, #0]
 8006456:	685b      	ldr	r3, [r3, #4]
 8006458:	1841      	adds	r1, r0, r1
 800645a:	6021      	str	r1, [r4, #0]
 800645c:	e7ee      	b.n	800643c <_free_r+0x20>
 800645e:	0013      	movs	r3, r2
 8006460:	685a      	ldr	r2, [r3, #4]
 8006462:	2a00      	cmp	r2, #0
 8006464:	d001      	beq.n	800646a <_free_r+0x4e>
 8006466:	42a2      	cmp	r2, r4
 8006468:	d9f9      	bls.n	800645e <_free_r+0x42>
 800646a:	6819      	ldr	r1, [r3, #0]
 800646c:	1858      	adds	r0, r3, r1
 800646e:	42a0      	cmp	r0, r4
 8006470:	d10b      	bne.n	800648a <_free_r+0x6e>
 8006472:	6820      	ldr	r0, [r4, #0]
 8006474:	1809      	adds	r1, r1, r0
 8006476:	1858      	adds	r0, r3, r1
 8006478:	6019      	str	r1, [r3, #0]
 800647a:	4282      	cmp	r2, r0
 800647c:	d1e0      	bne.n	8006440 <_free_r+0x24>
 800647e:	6810      	ldr	r0, [r2, #0]
 8006480:	6852      	ldr	r2, [r2, #4]
 8006482:	1841      	adds	r1, r0, r1
 8006484:	6019      	str	r1, [r3, #0]
 8006486:	605a      	str	r2, [r3, #4]
 8006488:	e7da      	b.n	8006440 <_free_r+0x24>
 800648a:	42a0      	cmp	r0, r4
 800648c:	d902      	bls.n	8006494 <_free_r+0x78>
 800648e:	230c      	movs	r3, #12
 8006490:	602b      	str	r3, [r5, #0]
 8006492:	e7d5      	b.n	8006440 <_free_r+0x24>
 8006494:	6821      	ldr	r1, [r4, #0]
 8006496:	1860      	adds	r0, r4, r1
 8006498:	4282      	cmp	r2, r0
 800649a:	d103      	bne.n	80064a4 <_free_r+0x88>
 800649c:	6810      	ldr	r0, [r2, #0]
 800649e:	6852      	ldr	r2, [r2, #4]
 80064a0:	1841      	adds	r1, r0, r1
 80064a2:	6021      	str	r1, [r4, #0]
 80064a4:	6062      	str	r2, [r4, #4]
 80064a6:	605c      	str	r4, [r3, #4]
 80064a8:	e7ca      	b.n	8006440 <_free_r+0x24>
 80064aa:	46c0      	nop			; (mov r8, r8)
 80064ac:	200002e4 	.word	0x200002e4

080064b0 <_malloc_r>:
 80064b0:	2303      	movs	r3, #3
 80064b2:	b570      	push	{r4, r5, r6, lr}
 80064b4:	1ccd      	adds	r5, r1, #3
 80064b6:	439d      	bics	r5, r3
 80064b8:	3508      	adds	r5, #8
 80064ba:	0006      	movs	r6, r0
 80064bc:	2d0c      	cmp	r5, #12
 80064be:	d21e      	bcs.n	80064fe <_malloc_r+0x4e>
 80064c0:	250c      	movs	r5, #12
 80064c2:	42a9      	cmp	r1, r5
 80064c4:	d81d      	bhi.n	8006502 <_malloc_r+0x52>
 80064c6:	0030      	movs	r0, r6
 80064c8:	f000 f888 	bl	80065dc <__malloc_lock>
 80064cc:	4a25      	ldr	r2, [pc, #148]	; (8006564 <_malloc_r+0xb4>)
 80064ce:	6814      	ldr	r4, [r2, #0]
 80064d0:	0021      	movs	r1, r4
 80064d2:	2900      	cmp	r1, #0
 80064d4:	d119      	bne.n	800650a <_malloc_r+0x5a>
 80064d6:	4c24      	ldr	r4, [pc, #144]	; (8006568 <_malloc_r+0xb8>)
 80064d8:	6823      	ldr	r3, [r4, #0]
 80064da:	2b00      	cmp	r3, #0
 80064dc:	d103      	bne.n	80064e6 <_malloc_r+0x36>
 80064de:	0030      	movs	r0, r6
 80064e0:	f000 f86a 	bl	80065b8 <_sbrk_r>
 80064e4:	6020      	str	r0, [r4, #0]
 80064e6:	0029      	movs	r1, r5
 80064e8:	0030      	movs	r0, r6
 80064ea:	f000 f865 	bl	80065b8 <_sbrk_r>
 80064ee:	1c43      	adds	r3, r0, #1
 80064f0:	d12c      	bne.n	800654c <_malloc_r+0x9c>
 80064f2:	230c      	movs	r3, #12
 80064f4:	0030      	movs	r0, r6
 80064f6:	6033      	str	r3, [r6, #0]
 80064f8:	f000 f871 	bl	80065de <__malloc_unlock>
 80064fc:	e003      	b.n	8006506 <_malloc_r+0x56>
 80064fe:	2d00      	cmp	r5, #0
 8006500:	dadf      	bge.n	80064c2 <_malloc_r+0x12>
 8006502:	230c      	movs	r3, #12
 8006504:	6033      	str	r3, [r6, #0]
 8006506:	2000      	movs	r0, #0
 8006508:	bd70      	pop	{r4, r5, r6, pc}
 800650a:	680b      	ldr	r3, [r1, #0]
 800650c:	1b5b      	subs	r3, r3, r5
 800650e:	d41a      	bmi.n	8006546 <_malloc_r+0x96>
 8006510:	2b0b      	cmp	r3, #11
 8006512:	d903      	bls.n	800651c <_malloc_r+0x6c>
 8006514:	600b      	str	r3, [r1, #0]
 8006516:	18cc      	adds	r4, r1, r3
 8006518:	6025      	str	r5, [r4, #0]
 800651a:	e003      	b.n	8006524 <_malloc_r+0x74>
 800651c:	428c      	cmp	r4, r1
 800651e:	d10e      	bne.n	800653e <_malloc_r+0x8e>
 8006520:	6863      	ldr	r3, [r4, #4]
 8006522:	6013      	str	r3, [r2, #0]
 8006524:	0030      	movs	r0, r6
 8006526:	f000 f85a 	bl	80065de <__malloc_unlock>
 800652a:	0020      	movs	r0, r4
 800652c:	2207      	movs	r2, #7
 800652e:	300b      	adds	r0, #11
 8006530:	1d23      	adds	r3, r4, #4
 8006532:	4390      	bics	r0, r2
 8006534:	1ac3      	subs	r3, r0, r3
 8006536:	d0e7      	beq.n	8006508 <_malloc_r+0x58>
 8006538:	425a      	negs	r2, r3
 800653a:	50e2      	str	r2, [r4, r3]
 800653c:	e7e4      	b.n	8006508 <_malloc_r+0x58>
 800653e:	684b      	ldr	r3, [r1, #4]
 8006540:	6063      	str	r3, [r4, #4]
 8006542:	000c      	movs	r4, r1
 8006544:	e7ee      	b.n	8006524 <_malloc_r+0x74>
 8006546:	000c      	movs	r4, r1
 8006548:	6849      	ldr	r1, [r1, #4]
 800654a:	e7c2      	b.n	80064d2 <_malloc_r+0x22>
 800654c:	2303      	movs	r3, #3
 800654e:	1cc4      	adds	r4, r0, #3
 8006550:	439c      	bics	r4, r3
 8006552:	42a0      	cmp	r0, r4
 8006554:	d0e0      	beq.n	8006518 <_malloc_r+0x68>
 8006556:	1a21      	subs	r1, r4, r0
 8006558:	0030      	movs	r0, r6
 800655a:	f000 f82d 	bl	80065b8 <_sbrk_r>
 800655e:	1c43      	adds	r3, r0, #1
 8006560:	d1da      	bne.n	8006518 <_malloc_r+0x68>
 8006562:	e7c6      	b.n	80064f2 <_malloc_r+0x42>
 8006564:	200002e4 	.word	0x200002e4
 8006568:	200002e8 	.word	0x200002e8

0800656c <_realloc_r>:
 800656c:	b5f8      	push	{r3, r4, r5, r6, r7, lr}
 800656e:	0007      	movs	r7, r0
 8006570:	000d      	movs	r5, r1
 8006572:	0016      	movs	r6, r2
 8006574:	2900      	cmp	r1, #0
 8006576:	d105      	bne.n	8006584 <_realloc_r+0x18>
 8006578:	0011      	movs	r1, r2
 800657a:	f7ff ff99 	bl	80064b0 <_malloc_r>
 800657e:	0004      	movs	r4, r0
 8006580:	0020      	movs	r0, r4
 8006582:	bdf8      	pop	{r3, r4, r5, r6, r7, pc}
 8006584:	2a00      	cmp	r2, #0
 8006586:	d103      	bne.n	8006590 <_realloc_r+0x24>
 8006588:	f7ff ff48 	bl	800641c <_free_r>
 800658c:	0034      	movs	r4, r6
 800658e:	e7f7      	b.n	8006580 <_realloc_r+0x14>
 8006590:	f000 f826 	bl	80065e0 <_malloc_usable_size_r>
 8006594:	002c      	movs	r4, r5
 8006596:	4286      	cmp	r6, r0
 8006598:	d9f2      	bls.n	8006580 <_realloc_r+0x14>
 800659a:	0031      	movs	r1, r6
 800659c:	0038      	movs	r0, r7
 800659e:	f7ff ff87 	bl	80064b0 <_malloc_r>
 80065a2:	1e04      	subs	r4, r0, #0
 80065a4:	d0ec      	beq.n	8006580 <_realloc_r+0x14>
 80065a6:	0029      	movs	r1, r5
 80065a8:	0032      	movs	r2, r6
 80065aa:	f7ff fbf7 	bl	8005d9c <memcpy>
 80065ae:	0029      	movs	r1, r5
 80065b0:	0038      	movs	r0, r7
 80065b2:	f7ff ff33 	bl	800641c <_free_r>
 80065b6:	e7e3      	b.n	8006580 <_realloc_r+0x14>

080065b8 <_sbrk_r>:
 80065b8:	2300      	movs	r3, #0
 80065ba:	b570      	push	{r4, r5, r6, lr}
 80065bc:	4c06      	ldr	r4, [pc, #24]	; (80065d8 <_sbrk_r+0x20>)
 80065be:	0005      	movs	r5, r0
 80065c0:	0008      	movs	r0, r1
 80065c2:	6023      	str	r3, [r4, #0]
 80065c4:	f7ff fb62 	bl	8005c8c <_sbrk>
 80065c8:	1c43      	adds	r3, r0, #1
 80065ca:	d103      	bne.n	80065d4 <_sbrk_r+0x1c>
 80065cc:	6823      	ldr	r3, [r4, #0]
 80065ce:	2b00      	cmp	r3, #0
 80065d0:	d000      	beq.n	80065d4 <_sbrk_r+0x1c>
 80065d2:	602b      	str	r3, [r5, #0]
 80065d4:	bd70      	pop	{r4, r5, r6, pc}
 80065d6:	46c0      	nop			; (mov r8, r8)
 80065d8:	200019ac 	.word	0x200019ac

080065dc <__malloc_lock>:
 80065dc:	4770      	bx	lr

080065de <__malloc_unlock>:
 80065de:	4770      	bx	lr

080065e0 <_malloc_usable_size_r>:
 80065e0:	1f0b      	subs	r3, r1, #4
 80065e2:	681b      	ldr	r3, [r3, #0]
 80065e4:	1f18      	subs	r0, r3, #4
 80065e6:	2b00      	cmp	r3, #0
 80065e8:	da01      	bge.n	80065ee <_malloc_usable_size_r+0xe>
 80065ea:	580b      	ldr	r3, [r1, r0]
 80065ec:	18c0      	adds	r0, r0, r3
 80065ee:	4770      	bx	lr

080065f0 <_init>:
 80065f0:	b5f8      	push	{r3, r4, r5, r6, r7, lr}
 80065f2:	46c0      	nop			; (mov r8, r8)
 80065f4:	bcf8      	pop	{r3, r4, r5, r6, r7}
 80065f6:	bc08      	pop	{r3}
 80065f8:	469e      	mov	lr, r3
 80065fa:	4770      	bx	lr

080065fc <_fini>:
 80065fc:	b5f8      	push	{r3, r4, r5, r6, r7, lr}
 80065fe:	46c0      	nop			; (mov r8, r8)
 8006600:	bcf8      	pop	{r3, r4, r5, r6, r7}
 8006602:	bc08      	pop	{r3}
 8006604:	469e      	mov	lr, r3
 8006606:	4770      	bx	lr
